

HI-TECH Software PIC LITE Macro Assembler V9.83 build 10920 
                                                                                               Tue Oct 26 16:41:18 2021

HI-TECH Software Omniscient Code Generator (Lite mode) build 10920
     1  0000                     opt subtitle "HI-TECH Software Omniscient Code Generator (Lite mode) build 10920"
     2                           
     3                           opt pagewidth 120
     4                           
     5                           	opt lm
     6                           
     7                           	processor	16F877A
     8                           clrc	macro
     9                           	bcf	3,0
    10  0000                     	endm
    11                           clrz	macro
    12                           	bcf	3,2
    13  0000                     	endm
    14                           setc	macro
    15                           	bsf	3,0
    16  0000                     	endm
    17                           setz	macro
    18                           	bsf	3,2
    19  0000                     	endm
    20                           skipc	macro
    21                           	btfss	3,0
    22  0000                     	endm
    23                           skipz	macro
    24                           	btfss	3,2
    25  0000                     	endm
    26                           skipnc	macro
    27                           	btfsc	3,0
    28  0000                     	endm
    29                           skipnz	macro
    30                           	btfsc	3,2
    31  0000                     	endm
    32  0000                     indf	equ	0
    33  0000                     indf0	equ	0
    34  0002                     pc	equ	2
    35  0002                     pcl	equ	2
    36  0003                     status	equ	3
    37  0004                     fsr	equ	4
    38  0004                     fsr0	equ	4
    39  0001                     c	equ	1
    40  0000                     z	equ	0
    41  000A                     pclath	equ	10
    42                           # 8 "C:\Users\USER\OneDrive\Desktop\Studying\Midterm\Code.c"
    43                           	psect config,class=CONFIG,delta=2 ;#
    44                           # 8 "C:\Users\USER\OneDrive\Desktop\Studying\Midterm\Code.c"
    45  2007  FF7A               	dw 0xFFFF & 0xFFFB & 0xFF7F & 0xFFFE & 0xFFFF ;#
    46                           	FNCALL	_main,_InitMain
    47                           	FNCALL	_main,_read_a2d
    48                           	FNCALL	_main,___ftdiv
    49                           	FNCALL	_main,___ftadd
    50                           	FNCALL	_main,___ftmul
    51                           	FNCALL	_main,_ftoa
    52                           	FNCALL	_main,___ftge
    53                           	FNCALL	_main,_lcd_goto
    54                           	FNCALL	_main,_lcd_clear
    55                           	FNCALL	_main,_lcd_puts
    56                           	FNCALL	_main,_DelayMs
    57                           	FNCALL	_ftoa,___fttol
    58                           	FNCALL	_ftoa,___awtoft
    59                           	FNCALL	_ftoa,___ftneg
    60                           	FNCALL	_ftoa,___ftadd
    61                           	FNCALL	_ftoa,_intToStr
    62                           	FNCALL	_ftoa,_pow
    63                           	FNCALL	_ftoa,___ftmul
    64                           	FNCALL	_pow,___ftge
    65                           	FNCALL	_pow,___fttol
    66                           	FNCALL	_pow,___lltoft
    67                           	FNCALL	_pow,___ftneg
    68                           	FNCALL	_pow,_log
    69                           	FNCALL	_pow,___ftmul
    70                           	FNCALL	_pow,_exp
    71                           	FNCALL	_exp,___ftge
    72                           	FNCALL	_exp,___ftneg
    73                           	FNCALL	_exp,___ftmul
    74                           	FNCALL	_exp,_floor
    75                           	FNCALL	_exp,___fttol
    76                           	FNCALL	_exp,___awtoft
    77                           	FNCALL	_exp,___ftsub
    78                           	FNCALL	_exp,_eval_poly
    79                           	FNCALL	_exp,_ldexp
    80                           	FNCALL	_exp,___ftdiv
    81                           	FNCALL	_log,___ftge
    82                           	FNCALL	_log,_frexp
    83                           	FNCALL	_log,___ftmul
    84                           	FNCALL	_log,___ftadd
    85                           	FNCALL	_log,_eval_poly
    86                           	FNCALL	_log,___awtoft
    87                           	FNCALL	_eval_poly,___bmul
    88                           	FNCALL	_eval_poly,___ftmul
    89                           	FNCALL	_eval_poly,___ftadd
    90                           	FNCALL	_floor,_frexp
    91                           	FNCALL	_floor,___ftge
    92                           	FNCALL	_floor,___fttol
    93                           	FNCALL	_floor,___altoft
    94                           	FNCALL	_floor,___ftadd
    95                           	FNCALL	___ftsub,___ftadd
    96                           	FNCALL	_read_a2d,_DelayMs
    97                           	FNCALL	_read_a2d,___lbtoft
    98                           	FNCALL	_InitMain,_init_a2d
    99                           	FNCALL	_InitMain,_lcd_init
   100                           	FNCALL	_InitMain,_lcd_clear
   101                           	FNCALL	_InitMain,_lcd_puts
   102                           	FNCALL	_InitMain,_DelayMs
   103                           	FNCALL	_ldexp,___ftge
   104                           	FNCALL	_ldexp,___ftneg
   105                           	FNCALL	___lltoft,___ftpack
   106                           	FNCALL	___altoft,___ftpack
   107                           	FNCALL	___awtoft,___ftpack
   108                           	FNCALL	___lbtoft,___ftpack
   109                           	FNCALL	___ftmul,___ftpack
   110                           	FNCALL	___ftdiv,___ftpack
   111                           	FNCALL	___ftadd,___ftpack
   112                           	FNCALL	_intToStr,___lwmod
   113                           	FNCALL	_intToStr,___lwdiv
   114                           	FNCALL	_intToStr,_reverse
   115                           	FNCALL	_lcd_goto,_lcd_write
   116                           	FNCALL	_lcd_puts,_lcd_write
   117                           	FNCALL	_lcd_clear,_lcd_write
   118                           	FNCALL	_lcd_clear,_DelayMs
   119                           	FNCALL	_lcd_init,_DelayMs
   120                           	FNCALL	_lcd_init,_lcd_write
   121                           	FNROOT	_main
   122                           	FNCALL	intlevel1,_IntVector
   123                           	global	intlevel1
   124                           	FNROOT	intlevel1
   125                           	global	exp@coeff
   126                           psect	strings,class=STRING,delta=2
   127                           global __pstrings
   128  0800                     __pstrings:
   129                           ;	global	stringdir,stringtab,__stringbase
   130  0800                     stringtab:
   131                           ;	String table - string pointers are 1 byte each
   132  0800  1BFF               	btfsc	(btemp+1),7
   133  0801  280A               	ljmp	stringcode
   134  0802  1383               	bcf	status,7
   135  0803  187F               	btfsc	(btemp+1),0
   136  0804  1783               	bsf	status,7
   137  0805  0800               	movf	indf,w
   138  0806  0A84               	incf fsr
   139  0807  1903               skipnz
   140  0808  0AFF               incf btemp+1
   141  0809  0008               	return
   142  080A                     stringcode:stringdir:
      + 080A                     stringdir:	
   143  080A  3008               movlw high(stringdir)
   144  080B  008A               movwf pclath
   145  080C  0804               movf fsr,w
   146  080D  0A84               incf fsr
   147  080E  0782               	addwf pc
   148  080F                     __stringbase:
   149  080F  3400               	retlw	0
   150                           psect	strings
   151                           	file	"C:\Program Files (x86)\HI-TECH Software\PICC\9.83\sources\exp.c"
   152                           	line	17
   153  0810                     exp@coeff:
   154  0810  3400               	retlw	0x0
   155  0811  3480               	retlw	0x80
   156  0812  343F               	retlw	0x3f
   157                           
   158  0813  3472               	retlw	0x72
   159  0814  3431               	retlw	0x31
   160  0815  343F               	retlw	0x3f
   161                           
   162  0816  34FE               	retlw	0xfe
   163  0817  3475               	retlw	0x75
   164  0818  343E               	retlw	0x3e
   165                           
   166  0819  3458               	retlw	0x58
   167  081A  3463               	retlw	0x63
   168  081B  343D               	retlw	0x3d
   169                           
   170  081C  3495               	retlw	0x95
   171  081D  341D               	retlw	0x1d
   172  081E  343C               	retlw	0x3c
   173                           
   174  081F  34C5               	retlw	0xc5
   175  0820  34AE               	retlw	0xae
   176  0821  343A               	retlw	0x3a
   177                           
   178  0822  3479               	retlw	0x79
   179  0823  3421               	retlw	0x21
   180  0824  3439               	retlw	0x39
   181                           
   182  0825  3494               	retlw	0x94
   183  0826  3480               	retlw	0x80
   184  0827  3437               	retlw	0x37
   185                           
   186  0828  3493               	retlw	0x93
   187  0829  34A7               	retlw	0xa7
   188  082A  3435               	retlw	0x35
   189                           
   190  082B  3456               	retlw	0x56
   191  082C  3415               	retlw	0x15
   192  082D  3434               	retlw	0x34
   193                           
   194                           	global	log@coeff
   195                           psect	strings
   196                           	file	"C:\Program Files (x86)\HI-TECH Software\PICC\9.83\sources\log.c"
   197                           	line	9
   198  082E                     log@coeff:
   199  082E  3400               	retlw	0x0
   200  082F  3400               	retlw	0x0
   201  0830  3400               	retlw	0x0
   202                           
   203  0831  3400               	retlw	0x0
   204  0832  3480               	retlw	0x80
   205  0833  343F               	retlw	0x3f
   206                           
   207  0834  34F0               	retlw	0xf0
   208  0835  34FF               	retlw	0xff
   209  0836  34BE               	retlw	0xbe
   210                           
   211  0837  34E2               	retlw	0xe2
   212  0838  34A9               	retlw	0xa9
   213  0839  343E               	retlw	0x3e
   214                           
   215  083A  3483               	retlw	0x83
   216  083B  3476               	retlw	0x76
   217  083C  34BE               	retlw	0xbe
   218                           
   219  083D  34AE               	retlw	0xae
   220  083E  342B               	retlw	0x2b
   221  083F  343E               	retlw	0x3e
   222                           
   223  0840  343C               	retlw	0x3c
   224  0841  34C3               	retlw	0xc3
   225  0842  34BD               	retlw	0xbd
   226                           
   227  0843  34D2               	retlw	0xd2
   228  0844  3413               	retlw	0x13
   229  0845  343D               	retlw	0x3d
   230                           
   231  0846  3478               	retlw	0x78
   232  0847  34D3               	retlw	0xd3
   233  0848  34BB               	retlw	0xbb
   234                           
   235                           	global	exp@coeff
   236                           	global	log@coeff
   237                           	global	_errno
   238                           	global	_avg
   239                           	global	_s1
   240                           	global	_s2
   241                           	global	_s3
   242                           	global	_s4
   243                           	global	_tempreture
   244                           	global	_Counter
   245                           	global	_str
   246                           	global	_ADCON0
   247  001F                     _ADCON0	set	31
   248                           	global	_ADRESH
   249  001E                     _ADRESH	set	30
   250                           	global	_PORTD
   251  0008                     _PORTD	set	8
   252                           	global	_TMR0
   253  0001                     _TMR0	set	1
   254                           	global	_ADON
   255  00F8                     _ADON	set	248
   256                           	global	_CARRY
   257  0018                     _CARRY	set	24
   258                           	global	_GIE
   259  005F                     _GIE	set	95
   260                           	global	_GO_nDONE
   261  00FA                     _GO_nDONE	set	250
   262                           	global	_RE0
   263  0048                     _RE0	set	72
   264                           	global	_RE1
   265  0049                     _RE1	set	73
   266                           	global	_T0IE
   267  005D                     _T0IE	set	93
   268                           	global	_T0IF
   269  005A                     _T0IF	set	90
   270                           	global	_ADCON1
   271  009F                     _ADCON1	set	159
   272                           	global	_OPTION_REG
   273  0081                     _OPTION_REG	set	129
   274                           	global	_TRISA
   275  0085                     _TRISA	set	133
   276                           	global	_TRISB
   277  0086                     _TRISB	set	134
   278                           	global	_TRISC
   279  0087                     _TRISC	set	135
   280                           	global	_TRISD
   281  0088                     _TRISD	set	136
   282                           	global	_TRISE
   283  0089                     _TRISE	set	137
   284                           	global	_nRBPU
   285  040F                     _nRBPU	set	1039
   286                           	global	_EEADR
   287  010D                     _EEADR	set	269
   288                           	global	_EEDATA
   289  010C                     _EEDATA	set	268
   290                           	global	_EECON1
   291  018C                     _EECON1	set	396
   292                           	global	_EECON2
   293  018D                     _EECON2	set	397
   294                           	global	_RD
   295  0C60                     _RD	set	3168
   296                           	global	_WR
   297  0C61                     _WR	set	3169
   298                           	global	_WREN
   299  0C62                     _WREN	set	3170
   300                           	
   301  0849                     STR_2:	
   302  0849  3441               	retlw	65	;'A'
   303  084A  3476               	retlw	118	;'v'
   304  084B  3465               	retlw	101	;'e'
   305  084C  3472               	retlw	114	;'r'
   306  084D  3461               	retlw	97	;'a'
   307  084E  3467               	retlw	103	;'g'
   308  084F  3465               	retlw	101	;'e'
   309  0850  3420               	retlw	32	;' '
   310  0851  3454               	retlw	84	;'T'
   311  0852  3465               	retlw	101	;'e'
   312  0853  346D               	retlw	109	;'m'
   313  0854  3470               	retlw	112	;'p'
   314  0855  3400               	retlw	0
   315                           psect	strings
   316                           	
   317  0856                     STR_1:	
   318  0856  3453               	retlw	83	;'S'
   319  0857  3474               	retlw	116	;'t'
   320  0858  3461               	retlw	97	;'a'
   321  0859  3472               	retlw	114	;'r'
   322  085A  3474               	retlw	116	;'t'
   323  085B  3469               	retlw	105	;'i'
   324  085C  346E               	retlw	110	;'n'
   325  085D  3467               	retlw	103	;'g'
   326  085E  342E               	retlw	46	;'.'
   327  085F  342E               	retlw	46	;'.'
   328  0860  342E               	retlw	46	;'.'
   329  0861  3400               	retlw	0
   330                           psect	strings
   331                           	
   332  0862                     STR_6:	
   333  0862  3448               	retlw	72	;'H'
   334  0863  3469               	retlw	105	;'i'
   335  0864  3467               	retlw	103	;'g'
   336  0865  3468               	retlw	104	;'h'
   337  0866  3420               	retlw	32	;' '
   338  0867  3444               	retlw	68	;'D'
   339  0868  3461               	retlw	97	;'a'
   340  0869  346E               	retlw	110	;'n'
   341  086A  3467               	retlw	103	;'g'
   342  086B  3465               	retlw	101	;'e'
   343  086C  3472               	retlw	114	;'r'
   344  086D  3400               	retlw	0
   345                           psect	strings
   346                           	
   347  086E                     STR_4:	
   348  086E  3420               	retlw	32	;' '
   349  086F  3420               	retlw	32	;' '
   350  0870  3420               	retlw	32	;' '
   351  0871  3420               	retlw	32	;' '
   352  0872  3420               	retlw	32	;' '
   353  0873  3420               	retlw	32	;' '
   354  0874  3420               	retlw	32	;' '
   355  0875  3420               	retlw	32	;' '
   356  0876  3420               	retlw	32	;' '
   357  0877  3400               	retlw	0
   358                           psect	strings
   359                           	
   360  0878                     STR_3:	
   361  0878  3457               	retlw	87	;'W'
   362  0879  3461               	retlw	97	;'a'
   363  087A  3472               	retlw	114	;'r'
   364  087B  346E               	retlw	110	;'n'
   365  087C  3469               	retlw	105	;'i'
   366  087D  346E               	retlw	110	;'n'
   367  087E  3467               	retlw	103	;'g'
   368  087F  3400               	retlw	0
   369                           psect	strings
   370  0867                     STR_5	equ	STR_6+5
   371                           	file	"Midterm.as"
   372                           	line	#
   373                           psect cinit,class=CODE,delta=2
   374                           global start_initialization
   375  1341                     start_initialization:
   376                           
   377                           psect	bssCOMMON,class=COMMON,space=1
   378                           global __pbssCOMMON
   379  0078                     __pbssCOMMON:
   380  0078                     _errno:
   381  0078                            ds      2
   382                           
   383                           psect	bssBANK1,class=BANK1,space=1
   384                           global __pbssBANK1
   385  00D6                     __pbssBANK1:
   386  00D6                     _avg:
   387  00D6                            ds      3
   388                           
   389  00D9                     _s1:
   390  00D9                            ds      3
   391                           
   392  00DC                     _s2:
   393  00DC                            ds      3
   394                           
   395  00DF                     _s3:
   396  00DF                            ds      3
   397                           
   398  00E2                     _s4:
   399  00E2                            ds      3
   400                           
   401  00E5                     _tempreture:
   402  00E5                            ds      3
   403                           
   404  00E8                     _Counter:
   405  00E8                            ds      2
   406                           
   407                           psect	bssBANK3,class=BANK3,space=1
   408                           global __pbssBANK3
   409  0190                     __pbssBANK3:
   410  0190                     _str:
   411  0190                            ds      10
   412                           
   413                           psect clrtext,class=CODE,delta=2
   414                           global clear_ram
   415                           ;	Called with FSR containing the base address, and
   416                           ;	W with the last address+1
   417  12EB                     clear_ram:
   418  12EB  0064               	clrwdt			;clear the watchdog before getting into this loop
   419  12EC                     clrloop:
   420  12EC  0180               	clrf	indf		;clear RAM location pointed to by FSR
   421  12ED  0A84               	incf	fsr,f		;increment pointer
   422  12EE  0604               	xorwf	fsr,w		;XOR with final address
   423  12EF  1903               	btfsc	status,2	;have we reached the end yet?
   424  12F0  3400               	retlw	0		;all done for this memory range, return
   425  12F1  0604               	xorwf	fsr,w		;XOR again to restore value
   426  12F2  2AEC               	goto	clrloop		;do the next byte
   427                           
   428                           ; Clear objects allocated to COMMON
   429                           psect cinit,class=CODE,delta=2
   430  1341  01F8               	clrf	((__pbssCOMMON)+0)&07Fh
   431  1342  01F9               	clrf	((__pbssCOMMON)+1)&07Fh
   432                           ; Clear objects allocated to BANK1
   433                           psect cinit,class=CODE,delta=2
   434  1343  1383               	bcf	status, 7	;select IRP bank0
   435  1344  30D6               	movlw	low(__pbssBANK1)
   436  1345  0084               	movwf	fsr
   437  1346  30EA               	movlw	low((__pbssBANK1)+014h)
   438  1347  160A  118A  22EB   	fcall	clear_ram
              160A  118A         
   439                           ; Clear objects allocated to BANK3
   440                           psect cinit,class=CODE,delta=2
   441  134C  1783               	bsf	status, 7	;select IRP bank2
   442  134D  3090               	movlw	low(__pbssBANK3)
   443  134E  0084               	movwf	fsr
   444  134F  309A               	movlw	low((__pbssBANK3)+0Ah)
   445  1350  160A  118A  22EB   	fcall	clear_ram
              160A  118A         
   446                           psect cinit,class=CODE,delta=2
   447                           global end_of_initialization
   448                           
   449                           ;End of C runtime variable initialization code
   450                           
   451  1355                     end_of_initialization:
   452  1355  0183               clrf status
   453  1356  120A  118A  2815   ljmp _main	;jump to C main() function
   454                           psect	cstackBANK1,class=BANK1,space=1
   455                           global __pcstackBANK1
   456  00A0                     __pcstackBANK1:
   457                           	global	?_log
   458  00A0                     ?_log:	; 3 bytes @ 0x0
   459                           	global	log@x
   460  00A0                     log@x:	; 3 bytes @ 0x0
   461  00A0                     	ds	3
   462                           	global	log@exp
   463  00A3                     log@exp:	; 2 bytes @ 0x3
   464  00A3                     	ds	2
   465                           	global	?_exp
   466  00A5                     ?_exp:	; 3 bytes @ 0x5
   467                           	global	exp@x
   468  00A5                     exp@x:	; 3 bytes @ 0x5
   469  00A5                     	ds	3
   470                           	global	_exp$3541
   471  00A8                     _exp$3541:	; 3 bytes @ 0x8
   472  00A8                     	ds	3
   473                           	global	exp@exp
   474  00AB                     exp@exp:	; 2 bytes @ 0xB
   475  00AB                     	ds	2
   476                           	global	exp@sign
   477  00AD                     exp@sign:	; 1 bytes @ 0xD
   478  00AD                     	ds	1
   479                           	global	?_pow
   480  00AE                     ?_pow:	; 3 bytes @ 0xE
   481                           	global	pow@x
   482  00AE                     pow@x:	; 3 bytes @ 0xE
   483  00AE                     	ds	3
   484                           	global	pow@y
   485  00B1                     pow@y:	; 3 bytes @ 0x11
   486  00B1                     	ds	3
   487                           	global	??_pow
   488  00B4                     ??_pow:	; 0 bytes @ 0x14
   489  00B4                     	ds	1
   490                           	global	_pow$3830
   491  00B5                     _pow$3830:	; 3 bytes @ 0x15
   492  00B5                     	ds	3
   493                           	global	pow@sign
   494  00B8                     pow@sign:	; 1 bytes @ 0x18
   495  00B8                     	ds	1
   496                           	global	pow@yi
   497  00B9                     pow@yi:	; 4 bytes @ 0x19
   498  00B9                     	ds	4
   499                           	global	?_ftoa
   500  00BD                     ?_ftoa:	; 0 bytes @ 0x1D
   501                           	global	ftoa@n
   502  00BD                     ftoa@n:	; 3 bytes @ 0x1D
   503  00BD                     	ds	3
   504                           	global	ftoa@res
   505  00C0                     ftoa@res:	; 1 bytes @ 0x20
   506  00C0                     	ds	1
   507                           	global	ftoa@afterpoint
   508  00C1                     ftoa@afterpoint:	; 2 bytes @ 0x21
   509  00C1                     	ds	2
   510                           	global	??_ftoa
   511  00C3                     ??_ftoa:	; 0 bytes @ 0x23
   512  00C3                     	ds	2
   513                           	global	_ftoa$3829
   514  00C5                     _ftoa$3829:	; 3 bytes @ 0x25
   515  00C5                     	ds	3
   516                           	global	ftoa@ipart
   517  00C8                     ftoa@ipart:	; 2 bytes @ 0x28
   518  00C8                     	ds	2
   519                           	global	ftoa@i
   520  00CA                     ftoa@i:	; 2 bytes @ 0x2A
   521  00CA                     	ds	2
   522                           	global	ftoa@fpart
   523  00CC                     ftoa@fpart:	; 3 bytes @ 0x2C
   524  00CC                     	ds	3
   525                           	global	??_main
   526  00CF                     ??_main:	; 0 bytes @ 0x2F
   527  00CF                     	ds	1
   528                           	global	_main$3827
   529  00D0                     _main$3827:	; 3 bytes @ 0x30
   530  00D0                     	ds	3
   531                           	global	_main$3828
   532  00D3                     _main$3828:	; 3 bytes @ 0x33
   533  00D3                     	ds	3
   534                           psect	cstackCOMMON,class=COMMON,space=1
   535                           global __pcstackCOMMON
   536  0070                     __pcstackCOMMON:
   537                           	global	?_init_a2d
   538  0070                     ?_init_a2d:	; 0 bytes @ 0x0
   539                           	global	?_lcd_init
   540  0070                     ?_lcd_init:	; 0 bytes @ 0x0
   541                           	global	?_lcd_clear
   542  0070                     ?_lcd_clear:	; 0 bytes @ 0x0
   543                           	global	?_DelayMs
   544  0070                     ?_DelayMs:	; 0 bytes @ 0x0
   545                           	global	?_lcd_goto
   546  0070                     ?_lcd_goto:	; 0 bytes @ 0x0
   547                           	global	?_InitMain
   548  0070                     ?_InitMain:	; 0 bytes @ 0x0
   549                           	global	?_main
   550  0070                     ?_main:	; 0 bytes @ 0x0
   551                           	global	?_IntVector
   552  0070                     ?_IntVector:	; 0 bytes @ 0x0
   553                           	global	??_IntVector
   554  0070                     ??_IntVector:	; 0 bytes @ 0x0
   555                           	global	?_lcd_write
   556  0070                     ?_lcd_write:	; 0 bytes @ 0x0
   557  0070                     	ds	4
   558                           	global	??_init_a2d
   559  0074                     ??_init_a2d:	; 0 bytes @ 0x4
   560                           	global	??_DelayMs
   561  0074                     ??_DelayMs:	; 0 bytes @ 0x4
   562                           	global	??___ftpack
   563  0074                     ??___ftpack:	; 0 bytes @ 0x4
   564                           	global	??_lcd_write
   565  0074                     ??_lcd_write:	; 0 bytes @ 0x4
   566                           	global	?_reverse
   567  0074                     ?_reverse:	; 0 bytes @ 0x4
   568                           	global	?___bmul
   569  0074                     ?___bmul:	; 1 bytes @ 0x4
   570                           	global	?___lwdiv
   571  0074                     ?___lwdiv:	; 2 bytes @ 0x4
   572                           	global	?___lwmod
   573  0074                     ?___lwmod:	; 2 bytes @ 0x4
   574                           	global	?_frexp
   575  0074                     ?_frexp:	; 3 bytes @ 0x4
   576                           	global	?___fttol
   577  0074                     ?___fttol:	; 4 bytes @ 0x4
   578                           	global	___bmul@multiplicand
   579  0074                     ___bmul@multiplicand:	; 1 bytes @ 0x4
   580                           	global	reverse@len
   581  0074                     reverse@len:	; 2 bytes @ 0x4
   582                           	global	___lwdiv@divisor
   583  0074                     ___lwdiv@divisor:	; 2 bytes @ 0x4
   584                           	global	___lwmod@divisor
   585  0074                     ___lwmod@divisor:	; 2 bytes @ 0x4
   586                           	global	___fttol@f1
   587  0074                     ___fttol@f1:	; 3 bytes @ 0x4
   588                           	global	frexp@value
   589  0074                     frexp@value:	; 3 bytes @ 0x4
   590  0074                     	ds	1
   591                           	global	??___bmul
   592  0075                     ??___bmul:	; 0 bytes @ 0x5
   593                           	global	DelayMs@cnt
   594  0075                     DelayMs@cnt:	; 1 bytes @ 0x5
   595                           	global	lcd_write@_dcnt
   596  0075                     lcd_write@_dcnt:	; 1 bytes @ 0x5
   597  0075                     	ds	1
   598                           	global	DelayMs@i
   599  0076                     DelayMs@i:	; 1 bytes @ 0x6
   600                           	global	lcd_write@c
   601  0076                     lcd_write@c:	; 1 bytes @ 0x6
   602                           	global	___bmul@product
   603  0076                     ___bmul@product:	; 1 bytes @ 0x6
   604                           	global	___lwdiv@dividend
   605  0076                     ___lwdiv@dividend:	; 2 bytes @ 0x6
   606                           	global	___lwmod@dividend
   607  0076                     ___lwmod@dividend:	; 2 bytes @ 0x6
   608  0076                     	ds	1
   609                           	global	??_lcd_puts
   610  0077                     ??_lcd_puts:	; 0 bytes @ 0x7
   611                           	global	??_lcd_goto
   612  0077                     ??_lcd_goto:	; 0 bytes @ 0x7
   613                           	global	??___ftneg
   614  0077                     ??___ftneg:	; 0 bytes @ 0x7
   615                           	global	??___lltoft
   616  0077                     ??___lltoft:	; 0 bytes @ 0x7
   617                           	global	DelayMs@_dcnt
   618  0077                     DelayMs@_dcnt:	; 1 bytes @ 0x7
   619                           	global	lcd_goto@pos
   620  0077                     lcd_goto@pos:	; 1 bytes @ 0x7
   621                           	global	___bmul@multiplier
   622  0077                     ___bmul@multiplier:	; 1 bytes @ 0x7
   623                           	global	___lbtoft@c
   624  0077                     ___lbtoft@c:	; 1 bytes @ 0x7
   625                           	global	___awtoft@sign
   626  0077                     ___awtoft@sign:	; 1 bytes @ 0x7
   627                           	global	frexp@eptr
   628  0077                     frexp@eptr:	; 1 bytes @ 0x7
   629  0077                     	ds	1
   630                           	global	??_lcd_clear
   631  0078                     ??_lcd_clear:	; 0 bytes @ 0x8
   632                           	global	??_InitMain
   633  0078                     ??_InitMain:	; 0 bytes @ 0x8
   634                           	global	??___ftsub
   635  0078                     ??___ftsub:	; 0 bytes @ 0x8
   636                           psect	cstackBANK0,class=BANK0,space=1
   637                           global __pcstackBANK0
   638  0020                     __pcstackBANK0:
   639                           	global	??_lcd_init
   640  0020                     ??_lcd_init:	; 0 bytes @ 0x0
   641                           	global	?_lcd_puts
   642  0020                     ?_lcd_puts:	; 0 bytes @ 0x0
   643                           	global	??_frexp
   644  0020                     ??_frexp:	; 0 bytes @ 0x0
   645                           	global	??_reverse
   646  0020                     ??_reverse:	; 0 bytes @ 0x0
   647                           	global	??___lwdiv
   648  0020                     ??___lwdiv:	; 0 bytes @ 0x0
   649                           	global	??___lwmod
   650  0020                     ??___lwmod:	; 0 bytes @ 0x0
   651                           	global	??___fttol
   652  0020                     ??___fttol:	; 0 bytes @ 0x0
   653                           	global	?___ftge
   654  0020                     ?___ftge:	; 1 bit 
   655                           	global	?___ftpack
   656  0020                     ?___ftpack:	; 3 bytes @ 0x0
   657                           	global	lcd_puts@s
   658  0020                     lcd_puts@s:	; 2 bytes @ 0x0
   659                           	global	___ftge@ff1
   660  0020                     ___ftge@ff1:	; 3 bytes @ 0x0
   661                           	global	___ftpack@arg
   662  0020                     ___ftpack@arg:	; 3 bytes @ 0x0
   663  0020                     	ds	1
   664                           	global	lcd_init@_dcnt
   665  0021                     lcd_init@_dcnt:	; 1 bytes @ 0x1
   666                           	global	___lwdiv@counter
   667  0021                     ___lwdiv@counter:	; 1 bytes @ 0x1
   668                           	global	___lwmod@counter
   669  0021                     ___lwmod@counter:	; 1 bytes @ 0x1
   670  0021                     	ds	1
   671                           	global	lcd_init@_dcnt_2128
   672  0022                     lcd_init@_dcnt_2128:	; 1 bytes @ 0x2
   673                           	global	___lwdiv@quotient
   674  0022                     ___lwdiv@quotient:	; 2 bytes @ 0x2
   675  0022                     	ds	1
   676                           	global	___ftpack@exp
   677  0023                     ___ftpack@exp:	; 1 bytes @ 0x3
   678                           	global	reverse@temp
   679  0023                     reverse@temp:	; 2 bytes @ 0x3
   680                           	global	___ftge@ff2
   681  0023                     ___ftge@ff2:	; 3 bytes @ 0x3
   682  0023                     	ds	1
   683                           	global	___fttol@sign1
   684  0024                     ___fttol@sign1:	; 1 bytes @ 0x4
   685                           	global	___ftpack@sign
   686  0024                     ___ftpack@sign:	; 1 bytes @ 0x4
   687  0024                     	ds	1
   688                           	global	?___lbtoft
   689  0025                     ?___lbtoft:	; 3 bytes @ 0x5
   690                           	global	?___ftneg
   691  0025                     ?___ftneg:	; 3 bytes @ 0x5
   692                           	global	?___lltoft
   693  0025                     ?___lltoft:	; 3 bytes @ 0x5
   694                           	global	reverse@i
   695  0025                     reverse@i:	; 2 bytes @ 0x5
   696                           	global	___ftneg@f1
   697  0025                     ___ftneg@f1:	; 3 bytes @ 0x5
   698                           	global	___fttol@lval
   699  0025                     ___fttol@lval:	; 4 bytes @ 0x5
   700                           	global	___lltoft@c
   701  0025                     ___lltoft@c:	; 4 bytes @ 0x5
   702  0025                     	ds	1
   703                           	global	??___ftge
   704  0026                     ??___ftge:	; 0 bytes @ 0x6
   705  0026                     	ds	1
   706                           	global	reverse@j
   707  0027                     reverse@j:	; 2 bytes @ 0x7
   708  0027                     	ds	1
   709                           	global	??___lbtoft
   710  0028                     ??___lbtoft:	; 0 bytes @ 0x8
   711                           	global	?___awtoft
   712  0028                     ?___awtoft:	; 3 bytes @ 0x8
   713                           	global	___awtoft@c
   714  0028                     ___awtoft@c:	; 2 bytes @ 0x8
   715  0028                     	ds	1
   716                           	global	reverse@str
   717  0029                     reverse@str:	; 1 bytes @ 0x9
   718                           	global	___fttol@exp1
   719  0029                     ___fttol@exp1:	; 1 bytes @ 0x9
   720                           	global	___lltoft@exp
   721  0029                     ___lltoft@exp:	; 1 bytes @ 0x9
   722  0029                     	ds	1
   723                           	global	?_intToStr
   724  002A                     ?_intToStr:	; 2 bytes @ 0xA
   725                           	global	?___altoft
   726  002A                     ?___altoft:	; 3 bytes @ 0xA
   727                           	global	intToStr@x
   728  002A                     intToStr@x:	; 2 bytes @ 0xA
   729                           	global	___altoft@c
   730  002A                     ___altoft@c:	; 4 bytes @ 0xA
   731  002A                     	ds	1
   732                           	global	??___awtoft
   733  002B                     ??___awtoft:	; 0 bytes @ 0xB
   734  002B                     	ds	1
   735                           	global	?_read_a2d
   736  002C                     ?_read_a2d:	; 3 bytes @ 0xC
   737                           	global	intToStr@str
   738  002C                     intToStr@str:	; 1 bytes @ 0xC
   739  002C                     	ds	1
   740                           	global	?___ftadd
   741  002D                     ?___ftadd:	; 3 bytes @ 0xD
   742                           	global	intToStr@d
   743  002D                     intToStr@d:	; 2 bytes @ 0xD
   744                           	global	___ftadd@f1
   745  002D                     ___ftadd@f1:	; 3 bytes @ 0xD
   746  002D                     	ds	1
   747                           	global	??___altoft
   748  002E                     ??___altoft:	; 0 bytes @ 0xE
   749  002E                     	ds	1
   750                           	global	??_read_a2d
   751  002F                     ??_read_a2d:	; 0 bytes @ 0xF
   752                           	global	??_intToStr
   753  002F                     ??_intToStr:	; 0 bytes @ 0xF
   754  002F                     	ds	1
   755                           	global	___altoft@exp
   756  0030                     ___altoft@exp:	; 1 bytes @ 0x10
   757                           	global	___ftadd@f2
   758  0030                     ___ftadd@f2:	; 3 bytes @ 0x10
   759  0030                     	ds	1
   760                           	global	read_a2d@channel
   761  0031                     read_a2d@channel:	; 1 bytes @ 0x11
   762                           	global	___altoft@sign
   763  0031                     ___altoft@sign:	; 1 bytes @ 0x11
   764                           	global	intToStr@i
   765  0031                     intToStr@i:	; 2 bytes @ 0x11
   766  0031                     	ds	2
   767                           	global	??___ftadd
   768  0033                     ??___ftadd:	; 0 bytes @ 0x13
   769  0033                     	ds	4
   770                           	global	___ftadd@sign
   771  0037                     ___ftadd@sign:	; 1 bytes @ 0x17
   772  0037                     	ds	1
   773                           	global	___ftadd@exp2
   774  0038                     ___ftadd@exp2:	; 1 bytes @ 0x18
   775  0038                     	ds	1
   776                           	global	___ftadd@exp1
   777  0039                     ___ftadd@exp1:	; 1 bytes @ 0x19
   778  0039                     	ds	1
   779                           	global	?_floor
   780  003A                     ?_floor:	; 3 bytes @ 0x1A
   781                           	global	?___ftsub
   782  003A                     ?___ftsub:	; 3 bytes @ 0x1A
   783                           	global	?___ftdiv
   784  003A                     ?___ftdiv:	; 3 bytes @ 0x1A
   785                           	global	___ftsub@f2
   786  003A                     ___ftsub@f2:	; 3 bytes @ 0x1A
   787                           	global	___ftdiv@f2
   788  003A                     ___ftdiv@f2:	; 3 bytes @ 0x1A
   789                           	global	floor@x
   790  003A                     floor@x:	; 3 bytes @ 0x1A
   791  003A                     	ds	3
   792                           	global	??_floor
   793  003D                     ??_floor:	; 0 bytes @ 0x1D
   794                           	global	___ftsub@f1
   795  003D                     ___ftsub@f1:	; 3 bytes @ 0x1D
   796                           	global	___ftdiv@f1
   797  003D                     ___ftdiv@f1:	; 3 bytes @ 0x1D
   798  003D                     	ds	1
   799                           	global	floor@i
   800  003E                     floor@i:	; 3 bytes @ 0x1E
   801  003E                     	ds	2
   802                           	global	??___ftdiv
   803  0040                     ??___ftdiv:	; 0 bytes @ 0x20
   804  0040                     	ds	1
   805                           	global	floor@expon
   806  0041                     floor@expon:	; 2 bytes @ 0x21
   807  0041                     	ds	3
   808                           	global	___ftdiv@cntr
   809  0044                     ___ftdiv@cntr:	; 1 bytes @ 0x24
   810  0044                     	ds	1
   811                           	global	___ftdiv@f3
   812  0045                     ___ftdiv@f3:	; 3 bytes @ 0x25
   813  0045                     	ds	3
   814                           	global	___ftdiv@exp
   815  0048                     ___ftdiv@exp:	; 1 bytes @ 0x28
   816  0048                     	ds	1
   817                           	global	___ftdiv@sign
   818  0049                     ___ftdiv@sign:	; 1 bytes @ 0x29
   819  0049                     	ds	1
   820                           	global	?___ftmul
   821  004A                     ?___ftmul:	; 3 bytes @ 0x2A
   822                           	global	___ftmul@f1
   823  004A                     ___ftmul@f1:	; 3 bytes @ 0x2A
   824  004A                     	ds	3
   825                           	global	___ftmul@f2
   826  004D                     ___ftmul@f2:	; 3 bytes @ 0x2D
   827  004D                     	ds	3
   828                           	global	??___ftmul
   829  0050                     ??___ftmul:	; 0 bytes @ 0x30
   830  0050                     	ds	4
   831                           	global	___ftmul@exp
   832  0054                     ___ftmul@exp:	; 1 bytes @ 0x34
   833  0054                     	ds	1
   834                           	global	___ftmul@f3_as_product
   835  0055                     ___ftmul@f3_as_product:	; 3 bytes @ 0x35
   836  0055                     	ds	3
   837                           	global	___ftmul@cntr
   838  0058                     ___ftmul@cntr:	; 1 bytes @ 0x38
   839  0058                     	ds	1
   840                           	global	___ftmul@sign
   841  0059                     ___ftmul@sign:	; 1 bytes @ 0x39
   842  0059                     	ds	1
   843                           	global	?_ldexp
   844  005A                     ?_ldexp:	; 3 bytes @ 0x3A
   845                           	global	ldexp@value
   846  005A                     ldexp@value:	; 3 bytes @ 0x3A
   847  005A                     	ds	3
   848                           	global	ldexp@newexp
   849  005D                     ldexp@newexp:	; 2 bytes @ 0x3D
   850  005D                     	ds	2
   851                           	global	??_ldexp
   852  005F                     ??_ldexp:	; 0 bytes @ 0x3F
   853  005F                     	ds	2
   854                           	global	_ldexp$3587
   855  0061                     _ldexp$3587:	; 3 bytes @ 0x41
   856  0061                     	ds	3
   857                           	global	?_eval_poly
   858  0064                     ?_eval_poly:	; 3 bytes @ 0x44
   859                           	global	eval_poly@x
   860  0064                     eval_poly@x:	; 3 bytes @ 0x44
   861  0064                     	ds	3
   862                           	global	eval_poly@d
   863  0067                     eval_poly@d:	; 1 bytes @ 0x47
   864  0067                     	ds	1
   865                           	global	eval_poly@n
   866  0068                     eval_poly@n:	; 2 bytes @ 0x48
   867  0068                     	ds	2
   868                           	global	??_eval_poly
   869  006A                     ??_eval_poly:	; 0 bytes @ 0x4A
   870  006A                     	ds	1
   871                           	global	eval_poly@res
   872  006B                     eval_poly@res:	; 3 bytes @ 0x4B
   873  006B                     	ds	3
   874                           	global	??_log
   875  006E                     ??_log:	; 0 bytes @ 0x4E
   876  006E                     	ds	1
   877                           	global	??_exp
   878  006F                     ??_exp:	; 0 bytes @ 0x4F
   879  006F                     	ds	1
   880 ;;Data sizes: Strings 55, constant 57, data 0, bss 32, persistent 0 stack 0
   881 ;;Auto spaces:   Size  Autos    Used
   882 ;; COMMON          14      8      10
   883 ;; BANK0           80     80      80
   884 ;; BANK1           80     54      74
   885 ;; BANK3           96      0      10
   886 ;; BANK2           96      0       0
   887                           
   888 ;;
   889 ;; Pointer list with targets:
   890                           
   891 ;; ?_frexp	 size(1) Largest target is 0
   892 ;;
   893 ;; ?_ldexp	 size(1) Largest target is 0
   894 ;;
   895 ;; ?_eval_poly	 size(1) Largest target is 0
   896 ;;
   897 ;; ?_floor	 size(1) Largest target is 0
   898 ;;
   899 ;; ?___altoft	float  size(1) Largest target is 0
   900 ;;
   901 ;; ?___lbtoft	float  size(1) Largest target is 0
   902 ;;
   903 ;; ?___ftsub	float  size(1) Largest target is 0
   904 ;;
   905 ;; ?___ftpack	float  size(1) Largest target is 0
   906 ;;
   907 ;; ?_exp	float  size(1) Largest target is 0
   908 ;;
   909 ;; ?_log	float  size(1) Largest target is 0
   910 ;;
   911 ;; ?___lltoft	float  size(1) Largest target is 0
   912 ;;
   913 ;; ?_pow	float  size(1) Largest target is 0
   914 ;;
   915 ;; ?___ftneg	float  size(1) Largest target is 0
   916 ;;
   917 ;; ?___awtoft	float  size(1) Largest target is 0
   918 ;;
   919 ;; ?___fttol	long  size(1) Largest target is 0
   920 ;;
   921 ;; ?_intToStr	unsigned int  size(1) Largest target is 0
   922 ;;
   923 ;; ?___lwdiv	unsigned int  size(1) Largest target is 0
   924 ;;
   925 ;; ?___lwmod	unsigned int  size(1) Largest target is 0
   926 ;;
   927 ;; ?_read_a2d	float  size(1) Largest target is 0
   928 ;;
   929 ;; ?___ftadd	float  size(1) Largest target is 0
   930 ;;
   931 ;; ?___ftmul	float  size(1) Largest target is 0
   932 ;;
   933 ;; ?___ftdiv	float  size(1) Largest target is 0
   934 ;;
   935 ;; eval_poly@d	PTR const  size(1) Largest target is 30
   936 ;;		 -> log@coeff(CODE[27]), exp@coeff(CODE[30]), 
   937 ;;
   938 ;; frexp@eptr	PTR int  size(1) Largest target is 2
   939 ;;		 -> log@exp(BANK1[2]), floor@expon(BANK0[2]), 
   940 ;;
   941 ;; ftoa@res	PTR unsigned char  size(1) Largest target is 10
   942 ;;		 -> str(BANK3[10]), 
   943 ;;
   944 ;; intToStr@str	PTR unsigned char  size(1) Largest target is 10
   945 ;;		 -> str(BANK3[10]), 
   946 ;;
   947 ;; reverse@str	PTR unsigned char  size(1) Largest target is 10
   948 ;;		 -> str(BANK3[10]), 
   949 ;;
   950 ;; lcd_puts@s	PTR const unsigned char  size(2) Largest target is 13
   951 ;;		 -> STR_6(CODE[12]), STR_5(CODE[7]), STR_4(CODE[10]), STR_3(CODE[8]), 
   952 ;;		 -> STR_2(CODE[13]), str(BANK3[10]), STR_1(CODE[12]), 
   953 ;;
   954                           
   955                           
   956 ;;
   957 ;; Critical Paths under _main in COMMON
   958 ;;
   959 ;;   _main->_lcd_goto
   960 ;;   _main->_DelayMs
   961 ;;   _ftoa->___fttol
   962 ;;   _ftoa->___awtoft
   963 ;;   _pow->___fttol
   964 ;;   _pow->___lltoft
   965 ;;   _exp->___fttol
   966 ;;   _exp->___awtoft
   967 ;;   _log->_frexp
   968 ;;   _log->___awtoft
   969 ;;   _eval_poly->___bmul
   970 ;;   _floor->_frexp
   971 ;;   _floor->___fttol
   972 ;;   ___ftsub->___awtoft
   973 ;;   _read_a2d->_DelayMs
   974 ;;   _read_a2d->___lbtoft
   975 ;;   _InitMain->_DelayMs
   976 ;;   _ldexp->___bmul
   977 ;;   ___lltoft->___ftpack
   978 ;;   ___altoft->___fttol
   979 ;;   ___awtoft->___ftpack
   980 ;;   ___lbtoft->___ftpack
   981 ;;   ___ftmul->___awtoft
   982 ;;   ___ftmul->_frexp
   983 ;;   ___ftadd->___awtoft
   984 ;;   ___ftadd->_frexp
   985 ;;   ___ftadd->___bmul
   986 ;;   _intToStr->___lwmod
   987 ;;   _intToStr->___lwdiv
   988 ;;   _intToStr->___fttol
   989 ;;   _lcd_goto->_lcd_write
   990 ;;   _lcd_puts->_lcd_write
   991 ;;   _lcd_clear->_DelayMs
   992 ;;   _lcd_init->_DelayMs
   993 ;;   ___ftneg->___ftpack
   994 ;;
   995 ;; Critical Paths under _IntVector in COMMON
   996 ;;
   997 ;;   None.
   998 ;;
   999 ;; Critical Paths under _main in BANK0
  1000 ;;
  1001 ;;   _pow->_exp
  1002 ;;   _exp->_log
  1003 ;;   _log->_eval_poly
  1004 ;;   _eval_poly->_ldexp
  1005 ;;   _floor->___ftadd
  1006 ;;   ___ftsub->___ftadd
  1007 ;;   _read_a2d->___lbtoft
  1008 ;;   _InitMain->_lcd_init
  1009 ;;   _ldexp->___ftmul
  1010 ;;   ___lltoft->___ftpack
  1011 ;;   ___altoft->___fttol
  1012 ;;   ___awtoft->___ftneg
  1013 ;;   ___lbtoft->___ftpack
  1014 ;;   ___ftmul->___ftdiv
  1015 ;;   ___ftdiv->___ftadd
  1016 ;;   ___ftadd->___awtoft
  1017 ;;   _intToStr->_reverse
  1018 ;;   _intToStr->___fttol
  1019 ;;   ___ftneg->___ftpack
  1020 ;;
  1021 ;; Critical Paths under _IntVector in BANK0
  1022 ;;
  1023 ;;   None.
  1024 ;;
  1025 ;; Critical Paths under _main in BANK1
  1026 ;;
  1027 ;;   _main->_ftoa
  1028 ;;   _ftoa->_pow
  1029 ;;   _pow->_exp
  1030 ;;   _exp->_log
  1031 ;;
  1032 ;; Critical Paths under _IntVector in BANK1
  1033 ;;
  1034 ;;   None.
  1035 ;;
  1036 ;; Critical Paths under _main in BANK3
  1037 ;;
  1038 ;;   None.
  1039 ;;
  1040 ;; Critical Paths under _IntVector in BANK3
  1041 ;;
  1042 ;;   None.
  1043 ;;
  1044 ;; Critical Paths under _main in BANK2
  1045 ;;
  1046 ;;   None.
  1047 ;;
  1048 ;; Critical Paths under _IntVector in BANK2
  1049 ;;
  1050 ;;   None.
  1051                           
  1052 ;;
  1053 ;;Main: autosize = 0, tempsize = 1, incstack = 0, save=0
  1054 ;;
  1055                           
  1056 ;;
  1057 ;;Call Graph Tables:
  1058 ;;
  1059 ;; ---------------------------------------------------------------------------------
  1060 ;; (Depth) Function   	        Calls       Base Space   Used Autos Params    Refs
  1061 ;; ---------------------------------------------------------------------------------
  1062 ;; (0) _main                                                 7     7      0   29174
  1063 ;;                                             47 BANK1      7     7      0
  1064 ;;                           _InitMain
  1065 ;;                           _read_a2d
  1066 ;;                            ___ftdiv
  1067 ;;                            ___ftadd
  1068 ;;                            ___ftmul
  1069 ;;                               _ftoa
  1070 ;;                             ___ftge
  1071 ;;                           _lcd_goto
  1072 ;;                          _lcd_clear
  1073 ;;                           _lcd_puts
  1074 ;;                            _DelayMs
  1075 ;; ---------------------------------------------------------------------------------
  1076 ;; (1) _ftoa                                                18    12      6   24432
  1077 ;;                                             29 BANK1     18    12      6
  1078 ;;                            ___fttol
  1079 ;;                           ___awtoft
  1080 ;;                            ___ftneg
  1081 ;;                            ___ftadd
  1082 ;;                           _intToStr
  1083 ;;                                _pow
  1084 ;;                            ___ftmul
  1085 ;; ---------------------------------------------------------------------------------
  1086 ;; (2) _pow                                                 15     9      6   19567
  1087 ;;                                             14 BANK1     15     9      6
  1088 ;;                             ___ftge
  1089 ;;                            ___fttol
  1090 ;;                           ___lltoft
  1091 ;;                            ___ftneg
  1092 ;;                                _log
  1093 ;;                            ___ftmul
  1094 ;;                                _exp
  1095 ;; ---------------------------------------------------------------------------------
  1096 ;; (3) _exp                                                 10     7      3   11140
  1097 ;;                                             79 BANK0      1     1      0
  1098 ;;                                              5 BANK1      9     6      3
  1099 ;;                             ___ftge
  1100 ;;                            ___ftneg
  1101 ;;                            ___ftmul
  1102 ;;                              _floor
  1103 ;;                            ___fttol
  1104 ;;                           ___awtoft
  1105 ;;                            ___ftsub
  1106 ;;                          _eval_poly
  1107 ;;                              _ldexp
  1108 ;;                            ___ftdiv
  1109 ;;                                _log (ARG)
  1110 ;; ---------------------------------------------------------------------------------
  1111 ;; (3) _log                                                  6     3      3    6235
  1112 ;;                                             78 BANK0      1     1      0
  1113 ;;                                              0 BANK1      5     2      3
  1114 ;;                             ___ftge
  1115 ;;                              _frexp
  1116 ;;                            ___ftmul
  1117 ;;                            ___ftadd
  1118 ;;                          _eval_poly
  1119 ;;                           ___awtoft
  1120 ;; ---------------------------------------------------------------------------------
  1121 ;; (4) _eval_poly                                           10     4      6    2683
  1122 ;;                                             68 BANK0     10     4      6
  1123 ;;                             ___bmul
  1124 ;;                            ___ftmul
  1125 ;;                            ___ftadd
  1126 ;;                              _ldexp (ARG)
  1127 ;; ---------------------------------------------------------------------------------
  1128 ;; (4) _floor                                                9     6      3    3193
  1129 ;;                                             26 BANK0      9     6      3
  1130 ;;                              _frexp
  1131 ;;                             ___ftge
  1132 ;;                            ___fttol
  1133 ;;                           ___altoft
  1134 ;;                            ___ftadd
  1135 ;; ---------------------------------------------------------------------------------
  1136 ;; (4) ___ftsub                                              6     0      6    1602
  1137 ;;                                             26 BANK0      6     0      6
  1138 ;;                            ___ftadd
  1139 ;;                           ___awtoft (ARG)
  1140 ;; ---------------------------------------------------------------------------------
  1141 ;; (1) _read_a2d                                             6     3      3     445
  1142 ;;                                             12 BANK0      6     3      3
  1143 ;;                            _DelayMs
  1144 ;;                           ___lbtoft
  1145 ;; ---------------------------------------------------------------------------------
  1146 ;; (1) _InitMain                                             0     0      0     538
  1147 ;;                           _init_a2d
  1148 ;;                           _lcd_init
  1149 ;;                          _lcd_clear
  1150 ;;                           _lcd_puts
  1151 ;;                            _DelayMs
  1152 ;; ---------------------------------------------------------------------------------
  1153 ;; (4) _ldexp                                               10     5      5     639
  1154 ;;                                             58 BANK0     10     5      5
  1155 ;;                             ___ftge
  1156 ;;                            ___ftneg
  1157 ;;                             ___bmul (ARG)
  1158 ;;                            ___ftmul (ARG)
  1159 ;;                            ___ftadd (ARG)
  1160 ;; ---------------------------------------------------------------------------------
  1161 ;; (3) ___lltoft                                             6     2      4     414
  1162 ;;                                              7 COMMON     1     1      0
  1163 ;;                                              5 BANK0      5     1      4
  1164 ;;                           ___ftpack
  1165 ;; ---------------------------------------------------------------------------------
  1166 ;; (5) ___altoft                                             8     4      4     516
  1167 ;;                                             10 BANK0      8     4      4
  1168 ;;                           ___ftpack
  1169 ;;                            ___fttol (ARG)
  1170 ;; ---------------------------------------------------------------------------------
  1171 ;; (4) ___awtoft                                             6     3      3     445
  1172 ;;                                              7 COMMON     1     1      0
  1173 ;;                                              8 BANK0      5     2      3
  1174 ;;                           ___ftpack
  1175 ;;                            ___ftneg (ARG)
  1176 ;; ---------------------------------------------------------------------------------
  1177 ;; (2) ___lbtoft                                             8     5      3     343
  1178 ;;                                              7 COMMON     1     1      0
  1179 ;;                                              5 BANK0      7     4      3
  1180 ;;                           ___ftpack
  1181 ;; ---------------------------------------------------------------------------------
  1182 ;; (2) ___ftmul                                             16    10      6     800
  1183 ;;                                             42 BANK0     16    10      6
  1184 ;;                           ___ftpack
  1185 ;;                            ___ftdiv (ARG)
  1186 ;;                            ___ftadd (ARG)
  1187 ;;                           ___awtoft (ARG)
  1188 ;;                              _frexp (ARG)
  1189 ;; ---------------------------------------------------------------------------------
  1190 ;; (4) ___ftdiv                                             16    10      6     732
  1191 ;;                                             26 BANK0     16    10      6
  1192 ;;                           ___ftpack
  1193 ;;                            ___ftadd (ARG)
  1194 ;; ---------------------------------------------------------------------------------
  1195 ;; (5) ___ftadd                                             13     7      6    1537
  1196 ;;                                             13 BANK0     13     7      6
  1197 ;;                           ___ftpack
  1198 ;;                            ___ftneg (ARG)
  1199 ;;                           ___awtoft (ARG)
  1200 ;;                              _frexp (ARG)
  1201 ;;                             ___bmul (ARG)
  1202 ;; ---------------------------------------------------------------------------------
  1203 ;; (2) _intToStr                                             9     4      5    1306
  1204 ;;                                             10 BANK0      9     4      5
  1205 ;;                            ___lwmod
  1206 ;;                            ___lwdiv
  1207 ;;                            _reverse
  1208 ;;                            ___fttol (ARG)
  1209 ;; ---------------------------------------------------------------------------------
  1210 ;; (1) _lcd_goto                                             1     1      0      89
  1211 ;;                                              7 COMMON     1     1      0
  1212 ;;                          _lcd_write
  1213 ;; ---------------------------------------------------------------------------------
  1214 ;; (1) _lcd_puts                                             2     0      2     132
  1215 ;;                                              0 BANK0      2     0      2
  1216 ;;                          _lcd_write
  1217 ;; ---------------------------------------------------------------------------------
  1218 ;; (1) _lcd_clear                                            0     0      0     135
  1219 ;;                          _lcd_write
  1220 ;;                            _DelayMs
  1221 ;; ---------------------------------------------------------------------------------
  1222 ;; (2) _lcd_init                                             3     3      0     203
  1223 ;;                                              0 BANK0      3     3      0
  1224 ;;                            _DelayMs
  1225 ;;                          _lcd_write
  1226 ;; ---------------------------------------------------------------------------------
  1227 ;; (5) _frexp                                                6     2      4     322
  1228 ;;                                              4 COMMON     4     0      4
  1229 ;;                                              0 BANK0      2     2      0
  1230 ;; ---------------------------------------------------------------------------------
  1231 ;; (1) ___ftge                                              12     6      6     198
  1232 ;;                                              0 BANK0     12     6      6
  1233 ;; ---------------------------------------------------------------------------------
  1234 ;; (5) ___ftneg                                              3     0      3      45
  1235 ;;                                              5 BANK0      3     0      3
  1236 ;;                           ___ftpack (ARG)
  1237 ;; ---------------------------------------------------------------------------------
  1238 ;; (4) ___fttol                                             14    10      4     252
  1239 ;;                                              4 COMMON     4     0      4
  1240 ;;                                              0 BANK0     10    10      0
  1241 ;; ---------------------------------------------------------------------------------
  1242 ;; (3) ___ftpack                                             8     3      5     312
  1243 ;;                                              4 COMMON     3     3      0
  1244 ;;                                              0 BANK0      5     0      5
  1245 ;; ---------------------------------------------------------------------------------
  1246 ;; (3) ___lwmod                                              6     2      4     232
  1247 ;;                                              4 COMMON     4     0      4
  1248 ;;                                              0 BANK0      2     2      0
  1249 ;; ---------------------------------------------------------------------------------
  1250 ;; (3) ___lwdiv                                              8     4      4     241
  1251 ;;                                              4 COMMON     4     0      4
  1252 ;;                                              0 BANK0      4     4      0
  1253 ;; ---------------------------------------------------------------------------------
  1254 ;; (5) ___bmul                                               4     3      1      92
  1255 ;;                                              4 COMMON     4     3      1
  1256 ;; ---------------------------------------------------------------------------------
  1257 ;; (3) _reverse                                             12    10      2     387
  1258 ;;                                              4 COMMON     2     0      2
  1259 ;;                                              0 BANK0     10    10      0
  1260 ;; ---------------------------------------------------------------------------------
  1261 ;; (2) _lcd_write                                            3     3      0      67
  1262 ;;                                              4 COMMON     3     3      0
  1263 ;; ---------------------------------------------------------------------------------
  1264 ;; (1) _DelayMs                                              4     4      0      68
  1265 ;;                                              4 COMMON     4     4      0
  1266 ;; ---------------------------------------------------------------------------------
  1267 ;; (2) _init_a2d                                             0     0      0       0
  1268 ;; ---------------------------------------------------------------------------------
  1269 ;; Estimated maximum stack depth 5
  1270 ;; ---------------------------------------------------------------------------------
  1271 ;; (Depth) Function   	        Calls       Base Space   Used Autos Params    Refs
  1272 ;; ---------------------------------------------------------------------------------
  1273 ;; (7) _IntVector                                            4     4      0       0
  1274 ;;                                              0 COMMON     4     4      0
  1275 ;; ---------------------------------------------------------------------------------
  1276 ;; Estimated maximum stack depth 7
  1277 ;; ---------------------------------------------------------------------------------
  1278                           
  1279 ;; Call Graph Graphs:
  1280                           
  1281 ;; _main (ROOT)
  1282 ;;   _InitMain
  1283 ;;     _init_a2d
  1284 ;;     _lcd_init
  1285 ;;       _DelayMs
  1286 ;;       _lcd_write
  1287 ;;     _lcd_clear
  1288 ;;       _lcd_write
  1289 ;;       _DelayMs
  1290 ;;     _lcd_puts
  1291 ;;       _lcd_write
  1292 ;;     _DelayMs
  1293 ;;   _read_a2d
  1294 ;;     _DelayMs
  1295 ;;     ___lbtoft
  1296 ;;       ___ftpack
  1297 ;;   ___ftdiv
  1298 ;;     ___ftpack
  1299 ;;     ___ftadd (ARG)
  1300 ;;       ___ftpack
  1301 ;;       ___ftneg (ARG)
  1302 ;;         ___ftpack (ARG)
  1303 ;;       ___awtoft (ARG)
  1304 ;;         ___ftpack
  1305 ;;         ___ftneg (ARG)
  1306 ;;           ___ftpack (ARG)
  1307 ;;       _frexp (ARG)
  1308 ;;       ___bmul (ARG)
  1309 ;;   ___ftadd
  1310 ;;     ___ftpack
  1311 ;;     ___ftneg (ARG)
  1312 ;;       ___ftpack (ARG)
  1313 ;;     ___awtoft (ARG)
  1314 ;;       ___ftpack
  1315 ;;       ___ftneg (ARG)
  1316 ;;         ___ftpack (ARG)
  1317 ;;     _frexp (ARG)
  1318 ;;     ___bmul (ARG)
  1319 ;;   ___ftmul
  1320 ;;     ___ftpack
  1321 ;;     ___ftdiv (ARG)
  1322 ;;       ___ftpack
  1323 ;;       ___ftadd (ARG)
  1324 ;;         ___ftpack
  1325 ;;         ___ftneg (ARG)
  1326 ;;           ___ftpack (ARG)
  1327 ;;         ___awtoft (ARG)
  1328 ;;           ___ftpack
  1329 ;;           ___ftneg (ARG)
  1330 ;;             ___ftpack (ARG)
  1331 ;;         _frexp (ARG)
  1332 ;;         ___bmul (ARG)
  1333 ;;     ___ftadd (ARG)
  1334 ;;       ___ftpack
  1335 ;;       ___ftneg (ARG)
  1336 ;;         ___ftpack (ARG)
  1337 ;;       ___awtoft (ARG)
  1338 ;;         ___ftpack
  1339 ;;         ___ftneg (ARG)
  1340 ;;           ___ftpack (ARG)
  1341 ;;       _frexp (ARG)
  1342 ;;       ___bmul (ARG)
  1343 ;;     ___awtoft (ARG)
  1344 ;;       ___ftpack
  1345 ;;       ___ftneg (ARG)
  1346 ;;         ___ftpack (ARG)
  1347 ;;     _frexp (ARG)
  1348 ;;   _ftoa
  1349 ;;     ___fttol
  1350 ;;     ___awtoft
  1351 ;;       ___ftpack
  1352 ;;       ___ftneg (ARG)
  1353 ;;         ___ftpack (ARG)
  1354 ;;     ___ftneg
  1355 ;;       ___ftpack (ARG)
  1356 ;;     ___ftadd
  1357 ;;       ___ftpack
  1358 ;;       ___ftneg (ARG)
  1359 ;;         ___ftpack (ARG)
  1360 ;;       ___awtoft (ARG)
  1361 ;;         ___ftpack
  1362 ;;         ___ftneg (ARG)
  1363 ;;           ___ftpack (ARG)
  1364 ;;       _frexp (ARG)
  1365 ;;       ___bmul (ARG)
  1366 ;;     _intToStr
  1367 ;;       ___lwmod
  1368 ;;       ___lwdiv
  1369 ;;       _reverse
  1370 ;;       ___fttol (ARG)
  1371 ;;     _pow
  1372 ;;       ___ftge
  1373 ;;       ___fttol
  1374 ;;       ___lltoft
  1375 ;;         ___ftpack
  1376 ;;       ___ftneg
  1377 ;;         ___ftpack (ARG)
  1378 ;;       _log
  1379 ;;         ___ftge
  1380 ;;         _frexp
  1381 ;;         ___ftmul
  1382 ;;           ___ftpack
  1383 ;;           ___ftdiv (ARG)
  1384 ;;             ___ftpack
  1385 ;;             ___ftadd (ARG)
  1386 ;;               ___ftpack
  1387 ;;               ___ftneg (ARG)
  1388 ;;                 ___ftpack (ARG)
  1389 ;;               ___awtoft (ARG)
  1390 ;;                 ___ftpack
  1391 ;;                 ___ftneg (ARG)
  1392 ;;                   ___ftpack (ARG)
  1393 ;;               _frexp (ARG)
  1394 ;;               ___bmul (ARG)
  1395 ;;           ___ftadd (ARG)
  1396 ;;             ___ftpack
  1397 ;;             ___ftneg (ARG)
  1398 ;;               ___ftpack (ARG)
  1399 ;;             ___awtoft (ARG)
  1400 ;;               ___ftpack
  1401 ;;               ___ftneg (ARG)
  1402 ;;                 ___ftpack (ARG)
  1403 ;;             _frexp (ARG)
  1404 ;;             ___bmul (ARG)
  1405 ;;           ___awtoft (ARG)
  1406 ;;             ___ftpack
  1407 ;;             ___ftneg (ARG)
  1408 ;;               ___ftpack (ARG)
  1409 ;;           _frexp (ARG)
  1410 ;;         ___ftadd
  1411 ;;           ___ftpack
  1412 ;;           ___ftneg (ARG)
  1413 ;;             ___ftpack (ARG)
  1414 ;;           ___awtoft (ARG)
  1415 ;;             ___ftpack
  1416 ;;             ___ftneg (ARG)
  1417 ;;               ___ftpack (ARG)
  1418 ;;           _frexp (ARG)
  1419 ;;           ___bmul (ARG)
  1420 ;;         _eval_poly
  1421 ;;           ___bmul
  1422 ;;           ___ftmul
  1423 ;;             ___ftpack
  1424 ;;             ___ftdiv (ARG)
  1425 ;;               ___ftpack
  1426 ;;               ___ftadd (ARG)
  1427 ;;                 ___ftpack
  1428 ;;                 ___ftneg (ARG)
  1429 ;;                   ___ftpack (ARG)
  1430 ;;                 ___awtoft (ARG)
  1431 ;;                   ___ftpack
  1432 ;;                   ___ftneg (ARG)
  1433 ;;                     ___ftpack (ARG)
  1434 ;;                 _frexp (ARG)
  1435 ;;                 ___bmul (ARG)
  1436 ;;             ___ftadd (ARG)
  1437 ;;               ___ftpack
  1438 ;;               ___ftneg (ARG)
  1439 ;;                 ___ftpack (ARG)
  1440 ;;               ___awtoft (ARG)
  1441 ;;                 ___ftpack
  1442 ;;                 ___ftneg (ARG)
  1443 ;;                   ___ftpack (ARG)
  1444 ;;               _frexp (ARG)
  1445 ;;               ___bmul (ARG)
  1446 ;;             ___awtoft (ARG)
  1447 ;;               ___ftpack
  1448 ;;               ___ftneg (ARG)
  1449 ;;                 ___ftpack (ARG)
  1450 ;;             _frexp (ARG)
  1451 ;;           ___ftadd
  1452 ;;             ___ftpack
  1453 ;;             ___ftneg (ARG)
  1454 ;;               ___ftpack (ARG)
  1455 ;;             ___awtoft (ARG)
  1456 ;;               ___ftpack
  1457 ;;               ___ftneg (ARG)
  1458 ;;                 ___ftpack (ARG)
  1459 ;;             _frexp (ARG)
  1460 ;;             ___bmul (ARG)
  1461 ;;           _ldexp (ARG)
  1462 ;;             ___ftge
  1463 ;;             ___ftneg
  1464 ;;               ___ftpack (ARG)
  1465 ;;             ___bmul (ARG)
  1466 ;;             ___ftmul (ARG)
  1467 ;;               ___ftpack
  1468 ;;               ___ftdiv (ARG)
  1469 ;;                 ___ftpack
  1470 ;;                 ___ftadd (ARG)
  1471 ;;                   ___ftpack
  1472 ;;                   ___ftneg (ARG)
  1473 ;;                     ___ftpack (ARG)
  1474 ;;                   ___awtoft (ARG)
  1475 ;;                     ___ftpack
  1476 ;;                     ___ftneg (ARG)
  1477 ;;                       ___ftpack (ARG)
  1478 ;;                   _frexp (ARG)
  1479 ;;                   ___bmul (ARG)
  1480 ;;               ___ftadd (ARG)
  1481 ;;                 ___ftpack
  1482 ;;                 ___ftneg (ARG)
  1483 ;;                   ___ftpack (ARG)
  1484 ;;                 ___awtoft (ARG)
  1485 ;;                   ___ftpack
  1486 ;;                   ___ftneg (ARG)
  1487 ;;                     ___ftpack (ARG)
  1488 ;;                 _frexp (ARG)
  1489 ;;                 ___bmul (ARG)
  1490 ;;               ___awtoft (ARG)
  1491 ;;                 ___ftpack
  1492 ;;                 ___ftneg (ARG)
  1493 ;;                   ___ftpack (ARG)
  1494 ;;               _frexp (ARG)
  1495 ;;             ___ftadd (ARG)
  1496 ;;               ___ftpack
  1497 ;;               ___ftneg (ARG)
  1498 ;;                 ___ftpack (ARG)
  1499 ;;               ___awtoft (ARG)
  1500 ;;                 ___ftpack
  1501 ;;                 ___ftneg (ARG)
  1502 ;;                   ___ftpack (ARG)
  1503 ;;               _frexp (ARG)
  1504 ;;               ___bmul (ARG)
  1505 ;;         ___awtoft
  1506 ;;           ___ftpack
  1507 ;;           ___ftneg (ARG)
  1508 ;;             ___ftpack (ARG)
  1509 ;;       ___ftmul
  1510 ;;         ___ftpack
  1511 ;;         ___ftdiv (ARG)
  1512 ;;           ___ftpack
  1513 ;;           ___ftadd (ARG)
  1514 ;;             ___ftpack
  1515 ;;             ___ftneg (ARG)
  1516 ;;               ___ftpack (ARG)
  1517 ;;             ___awtoft (ARG)
  1518 ;;               ___ftpack
  1519 ;;               ___ftneg (ARG)
  1520 ;;                 ___ftpack (ARG)
  1521 ;;             _frexp (ARG)
  1522 ;;             ___bmul (ARG)
  1523 ;;         ___ftadd (ARG)
  1524 ;;           ___ftpack
  1525 ;;           ___ftneg (ARG)
  1526 ;;             ___ftpack (ARG)
  1527 ;;           ___awtoft (ARG)
  1528 ;;             ___ftpack
  1529 ;;             ___ftneg (ARG)
  1530 ;;               ___ftpack (ARG)
  1531 ;;           _frexp (ARG)
  1532 ;;           ___bmul (ARG)
  1533 ;;         ___awtoft (ARG)
  1534 ;;           ___ftpack
  1535 ;;           ___ftneg (ARG)
  1536 ;;             ___ftpack (ARG)
  1537 ;;         _frexp (ARG)
  1538 ;;       _exp
  1539 ;;         ___ftge
  1540 ;;         ___ftneg
  1541 ;;           ___ftpack (ARG)
  1542 ;;         ___ftmul
  1543 ;;           ___ftpack
  1544 ;;           ___ftdiv (ARG)
  1545 ;;             ___ftpack
  1546 ;;             ___ftadd (ARG)
  1547 ;;               ___ftpack
  1548 ;;               ___ftneg (ARG)
  1549 ;;                 ___ftpack (ARG)
  1550 ;;               ___awtoft (ARG)
  1551 ;;                 ___ftpack
  1552 ;;                 ___ftneg (ARG)
  1553 ;;                   ___ftpack (ARG)
  1554 ;;               _frexp (ARG)
  1555 ;;               ___bmul (ARG)
  1556 ;;           ___ftadd (ARG)
  1557 ;;             ___ftpack
  1558 ;;             ___ftneg (ARG)
  1559 ;;               ___ftpack (ARG)
  1560 ;;             ___awtoft (ARG)
  1561 ;;               ___ftpack
  1562 ;;               ___ftneg (ARG)
  1563 ;;                 ___ftpack (ARG)
  1564 ;;             _frexp (ARG)
  1565 ;;             ___bmul (ARG)
  1566 ;;           ___awtoft (ARG)
  1567 ;;             ___ftpack
  1568 ;;             ___ftneg (ARG)
  1569 ;;               ___ftpack (ARG)
  1570 ;;           _frexp (ARG)
  1571 ;;         _floor
  1572 ;;           _frexp
  1573 ;;           ___ftge
  1574 ;;           ___fttol
  1575 ;;           ___altoft
  1576 ;;             ___ftpack
  1577 ;;             ___fttol (ARG)
  1578 ;;           ___ftadd
  1579 ;;             ___ftpack
  1580 ;;             ___ftneg (ARG)
  1581 ;;               ___ftpack (ARG)
  1582 ;;             ___awtoft (ARG)
  1583 ;;               ___ftpack
  1584 ;;               ___ftneg (ARG)
  1585 ;;                 ___ftpack (ARG)
  1586 ;;             _frexp (ARG)
  1587 ;;             ___bmul (ARG)
  1588 ;;         ___fttol
  1589 ;;         ___awtoft
  1590 ;;           ___ftpack
  1591 ;;           ___ftneg (ARG)
  1592 ;;             ___ftpack (ARG)
  1593 ;;         ___ftsub
  1594 ;;           ___ftadd
  1595 ;;             ___ftpack
  1596 ;;             ___ftneg (ARG)
  1597 ;;               ___ftpack (ARG)
  1598 ;;             ___awtoft (ARG)
  1599 ;;               ___ftpack
  1600 ;;               ___ftneg (ARG)
  1601 ;;                 ___ftpack (ARG)
  1602 ;;             _frexp (ARG)
  1603 ;;             ___bmul (ARG)
  1604 ;;           ___awtoft (ARG)
  1605 ;;             ___ftpack
  1606 ;;             ___ftneg (ARG)
  1607 ;;               ___ftpack (ARG)
  1608 ;;         _eval_poly
  1609 ;;           ___bmul
  1610 ;;           ___ftmul
  1611 ;;             ___ftpack
  1612 ;;             ___ftdiv (ARG)
  1613 ;;               ___ftpack
  1614 ;;               ___ftadd (ARG)
  1615 ;;                 ___ftpack
  1616 ;;                 ___ftneg (ARG)
  1617 ;;                   ___ftpack (ARG)
  1618 ;;                 ___awtoft (ARG)
  1619 ;;                   ___ftpack
  1620 ;;                   ___ftneg (ARG)
  1621 ;;                     ___ftpack (ARG)
  1622 ;;                 _frexp (ARG)
  1623 ;;                 ___bmul (ARG)
  1624 ;;             ___ftadd (ARG)
  1625 ;;               ___ftpack
  1626 ;;               ___ftneg (ARG)
  1627 ;;                 ___ftpack (ARG)
  1628 ;;               ___awtoft (ARG)
  1629 ;;                 ___ftpack
  1630 ;;                 ___ftneg (ARG)
  1631 ;;                   ___ftpack (ARG)
  1632 ;;               _frexp (ARG)
  1633 ;;               ___bmul (ARG)
  1634 ;;             ___awtoft (ARG)
  1635 ;;               ___ftpack
  1636 ;;               ___ftneg (ARG)
  1637 ;;                 ___ftpack (ARG)
  1638 ;;             _frexp (ARG)
  1639 ;;           ___ftadd
  1640 ;;             ___ftpack
  1641 ;;             ___ftneg (ARG)
  1642 ;;               ___ftpack (ARG)
  1643 ;;             ___awtoft (ARG)
  1644 ;;               ___ftpack
  1645 ;;               ___ftneg (ARG)
  1646 ;;                 ___ftpack (ARG)
  1647 ;;             _frexp (ARG)
  1648 ;;             ___bmul (ARG)
  1649 ;;           _ldexp (ARG)
  1650 ;;             ___ftge
  1651 ;;             ___ftneg
  1652 ;;               ___ftpack (ARG)
  1653 ;;             ___bmul (ARG)
  1654 ;;             ___ftmul (ARG)
  1655 ;;               ___ftpack
  1656 ;;               ___ftdiv (ARG)
  1657 ;;                 ___ftpack
  1658 ;;                 ___ftadd (ARG)
  1659 ;;                   ___ftpack
  1660 ;;                   ___ftneg (ARG)
  1661 ;;                     ___ftpack (ARG)
  1662 ;;                   ___awtoft (ARG)
  1663 ;;                     ___ftpack
  1664 ;;                     ___ftneg (ARG)
  1665 ;;                       ___ftpack (ARG)
  1666 ;;                   _frexp (ARG)
  1667 ;;                   ___bmul (ARG)
  1668 ;;               ___ftadd (ARG)
  1669 ;;                 ___ftpack
  1670 ;;                 ___ftneg (ARG)
  1671 ;;                   ___ftpack (ARG)
  1672 ;;                 ___awtoft (ARG)
  1673 ;;                   ___ftpack
  1674 ;;                   ___ftneg (ARG)
  1675 ;;                     ___ftpack (ARG)
  1676 ;;                 _frexp (ARG)
  1677 ;;                 ___bmul (ARG)
  1678 ;;               ___awtoft (ARG)
  1679 ;;                 ___ftpack
  1680 ;;                 ___ftneg (ARG)
  1681 ;;                   ___ftpack (ARG)
  1682 ;;               _frexp (ARG)
  1683 ;;             ___ftadd (ARG)
  1684 ;;               ___ftpack
  1685 ;;               ___ftneg (ARG)
  1686 ;;                 ___ftpack (ARG)
  1687 ;;               ___awtoft (ARG)
  1688 ;;                 ___ftpack
  1689 ;;                 ___ftneg (ARG)
  1690 ;;                   ___ftpack (ARG)
  1691 ;;               _frexp (ARG)
  1692 ;;               ___bmul (ARG)
  1693 ;;         _ldexp
  1694 ;;           ___ftge
  1695 ;;           ___ftneg
  1696 ;;             ___ftpack (ARG)
  1697 ;;           ___bmul (ARG)
  1698 ;;           ___ftmul (ARG)
  1699 ;;             ___ftpack
  1700 ;;             ___ftdiv (ARG)
  1701 ;;               ___ftpack
  1702 ;;               ___ftadd (ARG)
  1703 ;;                 ___ftpack
  1704 ;;                 ___ftneg (ARG)
  1705 ;;                   ___ftpack (ARG)
  1706 ;;                 ___awtoft (ARG)
  1707 ;;                   ___ftpack
  1708 ;;                   ___ftneg (ARG)
  1709 ;;                     ___ftpack (ARG)
  1710 ;;                 _frexp (ARG)
  1711 ;;                 ___bmul (ARG)
  1712 ;;             ___ftadd (ARG)
  1713 ;;               ___ftpack
  1714 ;;               ___ftneg (ARG)
  1715 ;;                 ___ftpack (ARG)
  1716 ;;               ___awtoft (ARG)
  1717 ;;                 ___ftpack
  1718 ;;                 ___ftneg (ARG)
  1719 ;;                   ___ftpack (ARG)
  1720 ;;               _frexp (ARG)
  1721 ;;               ___bmul (ARG)
  1722 ;;             ___awtoft (ARG)
  1723 ;;               ___ftpack
  1724 ;;               ___ftneg (ARG)
  1725 ;;                 ___ftpack (ARG)
  1726 ;;             _frexp (ARG)
  1727 ;;           ___ftadd (ARG)
  1728 ;;             ___ftpack
  1729 ;;             ___ftneg (ARG)
  1730 ;;               ___ftpack (ARG)
  1731 ;;             ___awtoft (ARG)
  1732 ;;               ___ftpack
  1733 ;;               ___ftneg (ARG)
  1734 ;;                 ___ftpack (ARG)
  1735 ;;             _frexp (ARG)
  1736 ;;             ___bmul (ARG)
  1737 ;;         ___ftdiv
  1738 ;;           ___ftpack
  1739 ;;           ___ftadd (ARG)
  1740 ;;             ___ftpack
  1741 ;;             ___ftneg (ARG)
  1742 ;;               ___ftpack (ARG)
  1743 ;;             ___awtoft (ARG)
  1744 ;;               ___ftpack
  1745 ;;               ___ftneg (ARG)
  1746 ;;                 ___ftpack (ARG)
  1747 ;;             _frexp (ARG)
  1748 ;;             ___bmul (ARG)
  1749 ;;         _log (ARG)
  1750 ;;           ___ftge
  1751 ;;           _frexp
  1752 ;;           ___ftmul
  1753 ;;             ___ftpack
  1754 ;;             ___ftdiv (ARG)
  1755 ;;               ___ftpack
  1756 ;;               ___ftadd (ARG)
  1757 ;;                 ___ftpack
  1758 ;;                 ___ftneg (ARG)
  1759 ;;                   ___ftpack (ARG)
  1760 ;;                 ___awtoft (ARG)
  1761 ;;                   ___ftpack
  1762 ;;                   ___ftneg (ARG)
  1763 ;;                     ___ftpack (ARG)
  1764 ;;                 _frexp (ARG)
  1765 ;;                 ___bmul (ARG)
  1766 ;;             ___ftadd (ARG)
  1767 ;;               ___ftpack
  1768 ;;               ___ftneg (ARG)
  1769 ;;                 ___ftpack (ARG)
  1770 ;;               ___awtoft (ARG)
  1771 ;;                 ___ftpack
  1772 ;;                 ___ftneg (ARG)
  1773 ;;                   ___ftpack (ARG)
  1774 ;;               _frexp (ARG)
  1775 ;;               ___bmul (ARG)
  1776 ;;             ___awtoft (ARG)
  1777 ;;               ___ftpack
  1778 ;;               ___ftneg (ARG)
  1779 ;;                 ___ftpack (ARG)
  1780 ;;             _frexp (ARG)
  1781 ;;           ___ftadd
  1782 ;;             ___ftpack
  1783 ;;             ___ftneg (ARG)
  1784 ;;               ___ftpack (ARG)
  1785 ;;             ___awtoft (ARG)
  1786 ;;               ___ftpack
  1787 ;;               ___ftneg (ARG)
  1788 ;;                 ___ftpack (ARG)
  1789 ;;             _frexp (ARG)
  1790 ;;             ___bmul (ARG)
  1791 ;;           _eval_poly
  1792 ;;             ___bmul
  1793 ;;             ___ftmul
  1794 ;;               ___ftpack
  1795 ;;               ___ftdiv (ARG)
  1796 ;;                 ___ftpack
  1797 ;;                 ___ftadd (ARG)
  1798 ;;                   ___ftpack
  1799 ;;                   ___ftneg (ARG)
  1800 ;;                     ___ftpack (ARG)
  1801 ;;                   ___awtoft (ARG)
  1802 ;;                     ___ftpack
  1803 ;;                     ___ftneg (ARG)
  1804 ;;                       ___ftpack (ARG)
  1805 ;;                   _frexp (ARG)
  1806 ;;                   ___bmul (ARG)
  1807 ;;               ___ftadd (ARG)
  1808 ;;                 ___ftpack
  1809 ;;                 ___ftneg (ARG)
  1810 ;;                   ___ftpack (ARG)
  1811 ;;                 ___awtoft (ARG)
  1812 ;;                   ___ftpack
  1813 ;;                   ___ftneg (ARG)
  1814 ;;                     ___ftpack (ARG)
  1815 ;;                 _frexp (ARG)
  1816 ;;                 ___bmul (ARG)
  1817 ;;               ___awtoft (ARG)
  1818 ;;                 ___ftpack
  1819 ;;                 ___ftneg (ARG)
  1820 ;;                   ___ftpack (ARG)
  1821 ;;               _frexp (ARG)
  1822 ;;             ___ftadd
  1823 ;;               ___ftpack
  1824 ;;               ___ftneg (ARG)
  1825 ;;                 ___ftpack (ARG)
  1826 ;;               ___awtoft (ARG)
  1827 ;;                 ___ftpack
  1828 ;;                 ___ftneg (ARG)
  1829 ;;                   ___ftpack (ARG)
  1830 ;;               _frexp (ARG)
  1831 ;;               ___bmul (ARG)
  1832 ;;             _ldexp (ARG)
  1833 ;;               ___ftge
  1834 ;;               ___ftneg
  1835 ;;                 ___ftpack (ARG)
  1836 ;;               ___bmul (ARG)
  1837 ;;               ___ftmul (ARG)
  1838 ;;                 ___ftpack
  1839 ;;                 ___ftdiv (ARG)
  1840 ;;                   ___ftpack
  1841 ;;                   ___ftadd (ARG)
  1842 ;;                     ___ftpack
  1843 ;;                     ___ftneg (ARG)
  1844 ;;                       ___ftpack (ARG)
  1845 ;;                     ___awtoft (ARG)
  1846 ;;                       ___ftpack
  1847 ;;                       ___ftneg (ARG)
  1848 ;;                         ___ftpack (ARG)
  1849 ;;                     _frexp (ARG)
  1850 ;;                     ___bmul (ARG)
  1851 ;;                 ___ftadd (ARG)
  1852 ;;                   ___ftpack
  1853 ;;                   ___ftneg (ARG)
  1854 ;;                     ___ftpack (ARG)
  1855 ;;                   ___awtoft (ARG)
  1856 ;;                     ___ftpack
  1857 ;;                     ___ftneg (ARG)
  1858 ;;                       ___ftpack (ARG)
  1859 ;;                   _frexp (ARG)
  1860 ;;                   ___bmul (ARG)
  1861 ;;                 ___awtoft (ARG)
  1862 ;;                   ___ftpack
  1863 ;;                   ___ftneg (ARG)
  1864 ;;                     ___ftpack (ARG)
  1865 ;;                 _frexp (ARG)
  1866 ;;               ___ftadd (ARG)
  1867 ;;                 ___ftpack
  1868 ;;                 ___ftneg (ARG)
  1869 ;;                   ___ftpack (ARG)
  1870 ;;                 ___awtoft (ARG)
  1871 ;;                   ___ftpack
  1872 ;;                   ___ftneg (ARG)
  1873 ;;                     ___ftpack (ARG)
  1874 ;;                 _frexp (ARG)
  1875 ;;                 ___bmul (ARG)
  1876 ;;           ___awtoft
  1877 ;;             ___ftpack
  1878 ;;             ___ftneg (ARG)
  1879 ;;               ___ftpack (ARG)
  1880 ;;     ___ftmul
  1881 ;;       ___ftpack
  1882 ;;       ___ftdiv (ARG)
  1883 ;;         ___ftpack
  1884 ;;         ___ftadd (ARG)
  1885 ;;           ___ftpack
  1886 ;;           ___ftneg (ARG)
  1887 ;;             ___ftpack (ARG)
  1888 ;;           ___awtoft (ARG)
  1889 ;;             ___ftpack
  1890 ;;             ___ftneg (ARG)
  1891 ;;               ___ftpack (ARG)
  1892 ;;           _frexp (ARG)
  1893 ;;           ___bmul (ARG)
  1894 ;;       ___ftadd (ARG)
  1895 ;;         ___ftpack
  1896 ;;         ___ftneg (ARG)
  1897 ;;           ___ftpack (ARG)
  1898 ;;         ___awtoft (ARG)
  1899 ;;           ___ftpack
  1900 ;;           ___ftneg (ARG)
  1901 ;;             ___ftpack (ARG)
  1902 ;;         _frexp (ARG)
  1903 ;;         ___bmul (ARG)
  1904 ;;       ___awtoft (ARG)
  1905 ;;         ___ftpack
  1906 ;;         ___ftneg (ARG)
  1907 ;;           ___ftpack (ARG)
  1908 ;;       _frexp (ARG)
  1909 ;;   ___ftge
  1910 ;;   _lcd_goto
  1911 ;;     _lcd_write
  1912 ;;   _lcd_clear
  1913 ;;     _lcd_write
  1914 ;;     _DelayMs
  1915 ;;   _lcd_puts
  1916 ;;     _lcd_write
  1917 ;;   _DelayMs
  1918 ;;
  1919 ;; _IntVector (ROOT)
  1920 ;;
  1921                           
  1922 ;; Address spaces:
  1923                           
  1924 ;;Name               Size   Autos  Total    Cost      Usage
  1925 ;;BITCOMMON            E      0       0       0        0.0%
  1926 ;;EEDATA             100      0       0       0        0.0%
  1927 ;;NULL                 0      0       0       0        0.0%
  1928 ;;CODE                 0      0       0       0        0.0%
  1929 ;;COMMON               E      8       A       1       71.4%
  1930 ;;BITSFR0              0      0       0       1        0.0%
  1931 ;;SFR0                 0      0       0       1        0.0%
  1932 ;;BITSFR1              0      0       0       2        0.0%
  1933 ;;SFR1                 0      0       0       2        0.0%
  1934 ;;STACK                0      0       6       2        0.0%
  1935 ;;ABS                  0      0      AE       3        0.0%
  1936 ;;BITBANK0            50      0       0       4        0.0%
  1937 ;;BITSFR3              0      0       0       4        0.0%
  1938 ;;SFR3                 0      0       0       4        0.0%
  1939 ;;BANK0               50     50      50       5      100.0%
  1940 ;;BITSFR2              0      0       0       5        0.0%
  1941 ;;SFR2                 0      0       0       5        0.0%
  1942 ;;BITBANK1            50      0       0       6        0.0%
  1943 ;;BANK1               50     36      4A       7       92.5%
  1944 ;;BITBANK3            60      0       0       8        0.0%
  1945 ;;BANK3               60      0       A       9       10.4%
  1946 ;;BITBANK2            60      0       0      10        0.0%
  1947 ;;BANK2               60      0       0      11        0.0%
  1948 ;;DATA                 0      0      B4      12        0.0%
  1949                           
  1950                           	global	_main
  1951                           psect	maintext,global,class=CODE,delta=2
  1952                           global __pmaintext
  1953  0015                     __pmaintext:
  1954                           
  1955 ;; *************** function _main *****************
  1956 ;; Defined at:
  1957 ;;		line 41 in file "C:\Users\USER\OneDrive\Desktop\Studying\Midterm\Code.c"
  1958 ;; Parameters:    Size  Location     Type
  1959 ;;		None
  1960 ;; Auto vars:     Size  Location     Type
  1961 ;;		None
  1962 ;; Return value:  Size  Location     Type
  1963 ;;		None               void
  1964 ;; Registers used:
  1965 ;;		wreg, fsr0l, fsr0h, status,2, status,0, btemp+1, pclath, cstack
  1966 ;; Tracked objects:
  1967 ;;		On entry : 17F/0
  1968 ;;		On exit  : 0/0
  1969 ;;		Unchanged: 0/0
  1970 ;; Data sizes:     COMMON   BANK0   BANK1   BANK3   BANK2
  1971 ;;      Params:         0       0       0       0       0
  1972 ;;      Locals:         0       0       6       0       0
  1973 ;;      Temps:          0       0       1       0       0
  1974 ;;      Totals:         0       0       7       0       0
  1975 ;;Total ram usage:        7 bytes
  1976 ;; Hardware stack levels required when called:    7
  1977 ;; This function calls:
  1978 ;;		_InitMain
  1979 ;;		_read_a2d
  1980 ;;		___ftdiv
  1981 ;;		___ftadd
  1982 ;;		___ftmul
  1983 ;;		_ftoa
  1984 ;;		___ftge
  1985 ;;		_lcd_goto
  1986 ;;		_lcd_clear
  1987 ;;		_lcd_puts
  1988 ;;		_DelayMs
  1989 ;; This function is called by:
  1990 ;;		Startup code after reset
  1991 ;; This function uses a non-reentrant model
  1992 ;;
  1993                           psect	maintext
  1994                           	file	"C:\Users\USER\OneDrive\Desktop\Studying\Midterm\Code.c"
  1995                           	line	41
  1996                           	global	__size_of_main
  1997  03BA                     	__size_of_main	equ	__end_of_main-_main
  1998                           	
  1999  0015                     _main:	
  2000                           	opt	stack 1
  2001                           ; Regs used in _main: [wreg-fsr0h+status,2+status,0+btemp+1+pclath+cstack]
  2002                           	line	43
  2003                           	
  2004  0015                     l7345:	
  2005                           ;Code.c: 43: InitMain();
  2006  0015  160A  118A  2456   	fcall	_InitMain
              120A  118A         
  2007                           	line	45
  2008                           	
  2009  001A                     l7347:	
  2010                           ;Code.c: 45: TMR0 =60;
  2011  001A  303C               	movlw	(03Ch)
  2012  001B  1283               	bcf	status, 5	;RP0=0, select bank0
  2013  001C  1303               	bcf	status, 6	;RP1=0, select bank0
  2014  001D  0081               	movwf	(1)	;volatile
  2015                           	line	46
  2016                           	
  2017  001E                     l7349:	
  2018                           ;Code.c: 46: OPTION_REG = 0x47;
  2019  001E  3047               	movlw	(047h)
  2020  001F  1683               	bsf	status, 5	;RP0=1, select bank1
  2021  0020  1303               	bcf	status, 6	;RP1=0, select bank1
  2022  0021  0081               	movwf	(129)^080h	;volatile
  2023  0022  2823               	goto	l7351
  2024                           	line	48
  2025                           ;Code.c: 48: while (1)
  2026                           	
  2027  0023                     l720:	
  2028                           	line	53
  2029                           	
  2030  0023                     l7351:	
  2031                           ;Code.c: 49: {
  2032                           ;Code.c: 53: s1= read_a2d(0);
  2033  0023  3000               	movlw	(0)
  2034  0024  120A  158A  2084   	fcall	_read_a2d
              120A  118A         
  2035  0029  1283               	bcf	status, 5	;RP0=0, select bank0
  2036  002A  1303               	bcf	status, 6	;RP1=0, select bank0
  2037  002B  082C               	movf	(0+(?_read_a2d)),w
  2038  002C  1683               	bsf	status, 5	;RP0=1, select bank1
  2039  002D  1303               	bcf	status, 6	;RP1=0, select bank1
  2040  002E  00D9               	movwf	(_s1)^080h
  2041  002F  1283               	bcf	status, 5	;RP0=0, select bank0
  2042  0030  1303               	bcf	status, 6	;RP1=0, select bank0
  2043  0031  082D               	movf	(1+(?_read_a2d)),w
  2044  0032  1683               	bsf	status, 5	;RP0=1, select bank1
  2045  0033  1303               	bcf	status, 6	;RP1=0, select bank1
  2046  0034  00DA               	movwf	(_s1+1)^080h
  2047  0035  1283               	bcf	status, 5	;RP0=0, select bank0
  2048  0036  1303               	bcf	status, 6	;RP1=0, select bank0
  2049  0037  082E               	movf	(2+(?_read_a2d)),w
  2050  0038  1683               	bsf	status, 5	;RP0=1, select bank1
  2051  0039  1303               	bcf	status, 6	;RP1=0, select bank1
  2052  003A  00DB               	movwf	(_s1+2)^080h
  2053                           	line	54
  2054                           	
  2055  003B                     l7353:	
  2056                           ;Code.c: 54: s1 = s1/51.0;
  2057  003B  3000               	movlw	0x0
  2058  003C  1283               	bcf	status, 5	;RP0=0, select bank0
  2059  003D  1303               	bcf	status, 6	;RP1=0, select bank0
  2060  003E  00BA               	movwf	(?___ftdiv)
  2061  003F  304C               	movlw	0x4c
  2062  0040  00BB               	movwf	(?___ftdiv+1)
  2063  0041  3042               	movlw	0x42
  2064  0042  00BC               	movwf	(?___ftdiv+2)
  2065  0043  1683               	bsf	status, 5	;RP0=1, select bank1
  2066  0044  1303               	bcf	status, 6	;RP1=0, select bank1
  2067  0045  0859               	movf	(_s1)^080h,w
  2068  0046  1283               	bcf	status, 5	;RP0=0, select bank0
  2069  0047  1303               	bcf	status, 6	;RP1=0, select bank0
  2070  0048  00BD               	movwf	0+(?___ftdiv)+03h
  2071  0049  1683               	bsf	status, 5	;RP0=1, select bank1
  2072  004A  1303               	bcf	status, 6	;RP1=0, select bank1
  2073  004B  085A               	movf	(_s1+1)^080h,w
  2074  004C  1283               	bcf	status, 5	;RP0=0, select bank0
  2075  004D  1303               	bcf	status, 6	;RP1=0, select bank0
  2076  004E  00BE               	movwf	1+(?___ftdiv)+03h
  2077  004F  1683               	bsf	status, 5	;RP0=1, select bank1
  2078  0050  1303               	bcf	status, 6	;RP1=0, select bank1
  2079  0051  085B               	movf	(_s1+2)^080h,w
  2080  0052  1283               	bcf	status, 5	;RP0=0, select bank0
  2081  0053  1303               	bcf	status, 6	;RP1=0, select bank0
  2082  0054  00BF               	movwf	2+(?___ftdiv)+03h
  2083  0055  120A  158A  22A9   	fcall	___ftdiv
              120A  118A         
  2084  005A  1283               	bcf	status, 5	;RP0=0, select bank0
  2085  005B  1303               	bcf	status, 6	;RP1=0, select bank0
  2086  005C  083A               	movf	(0+(?___ftdiv)),w
  2087  005D  1683               	bsf	status, 5	;RP0=1, select bank1
  2088  005E  1303               	bcf	status, 6	;RP1=0, select bank1
  2089  005F  00D9               	movwf	(_s1)^080h
  2090  0060  1283               	bcf	status, 5	;RP0=0, select bank0
  2091  0061  1303               	bcf	status, 6	;RP1=0, select bank0
  2092  0062  083B               	movf	(1+(?___ftdiv)),w
  2093  0063  1683               	bsf	status, 5	;RP0=1, select bank1
  2094  0064  1303               	bcf	status, 6	;RP1=0, select bank1
  2095  0065  00DA               	movwf	(_s1+1)^080h
  2096  0066  1283               	bcf	status, 5	;RP0=0, select bank0
  2097  0067  1303               	bcf	status, 6	;RP1=0, select bank0
  2098  0068  083C               	movf	(2+(?___ftdiv)),w
  2099  0069  1683               	bsf	status, 5	;RP0=1, select bank1
  2100  006A  1303               	bcf	status, 6	;RP1=0, select bank1
  2101  006B  00DB               	movwf	(_s1+2)^080h
  2102                           	line	56
  2103                           	
  2104  006C                     l7355:	
  2105                           ;Code.c: 56: s2= read_a2d(1);
  2106  006C  3001               	movlw	(01h)
  2107  006D  120A  158A  2084   	fcall	_read_a2d
              120A  118A         
  2108  0072  1283               	bcf	status, 5	;RP0=0, select bank0
  2109  0073  1303               	bcf	status, 6	;RP1=0, select bank0
  2110  0074  082C               	movf	(0+(?_read_a2d)),w
  2111  0075  1683               	bsf	status, 5	;RP0=1, select bank1
  2112  0076  1303               	bcf	status, 6	;RP1=0, select bank1
  2113  0077  00DC               	movwf	(_s2)^080h
  2114  0078  1283               	bcf	status, 5	;RP0=0, select bank0
  2115  0079  1303               	bcf	status, 6	;RP1=0, select bank0
  2116  007A  082D               	movf	(1+(?_read_a2d)),w
  2117  007B  1683               	bsf	status, 5	;RP0=1, select bank1
  2118  007C  1303               	bcf	status, 6	;RP1=0, select bank1
  2119  007D  00DD               	movwf	(_s2+1)^080h
  2120  007E  1283               	bcf	status, 5	;RP0=0, select bank0
  2121  007F  1303               	bcf	status, 6	;RP1=0, select bank0
  2122  0080  082E               	movf	(2+(?_read_a2d)),w
  2123  0081  1683               	bsf	status, 5	;RP0=1, select bank1
  2124  0082  1303               	bcf	status, 6	;RP1=0, select bank1
  2125  0083  00DE               	movwf	(_s2+2)^080h
  2126                           	line	57
  2127                           	
  2128  0084                     l7357:	
  2129                           ;Code.c: 57: s2 = s2/51.0;
  2130  0084  3000               	movlw	0x0
  2131  0085  1283               	bcf	status, 5	;RP0=0, select bank0
  2132  0086  1303               	bcf	status, 6	;RP1=0, select bank0
  2133  0087  00BA               	movwf	(?___ftdiv)
  2134  0088  304C               	movlw	0x4c
  2135  0089  00BB               	movwf	(?___ftdiv+1)
  2136  008A  3042               	movlw	0x42
  2137  008B  00BC               	movwf	(?___ftdiv+2)
  2138  008C  1683               	bsf	status, 5	;RP0=1, select bank1
  2139  008D  1303               	bcf	status, 6	;RP1=0, select bank1
  2140  008E  085C               	movf	(_s2)^080h,w
  2141  008F  1283               	bcf	status, 5	;RP0=0, select bank0
  2142  0090  1303               	bcf	status, 6	;RP1=0, select bank0
  2143  0091  00BD               	movwf	0+(?___ftdiv)+03h
  2144  0092  1683               	bsf	status, 5	;RP0=1, select bank1
  2145  0093  1303               	bcf	status, 6	;RP1=0, select bank1
  2146  0094  085D               	movf	(_s2+1)^080h,w
  2147  0095  1283               	bcf	status, 5	;RP0=0, select bank0
  2148  0096  1303               	bcf	status, 6	;RP1=0, select bank0
  2149  0097  00BE               	movwf	1+(?___ftdiv)+03h
  2150  0098  1683               	bsf	status, 5	;RP0=1, select bank1
  2151  0099  1303               	bcf	status, 6	;RP1=0, select bank1
  2152  009A  085E               	movf	(_s2+2)^080h,w
  2153  009B  1283               	bcf	status, 5	;RP0=0, select bank0
  2154  009C  1303               	bcf	status, 6	;RP1=0, select bank0
  2155  009D  00BF               	movwf	2+(?___ftdiv)+03h
  2156  009E  120A  158A  22A9   	fcall	___ftdiv
              120A  118A         
  2157  00A3  1283               	bcf	status, 5	;RP0=0, select bank0
  2158  00A4  1303               	bcf	status, 6	;RP1=0, select bank0
  2159  00A5  083A               	movf	(0+(?___ftdiv)),w
  2160  00A6  1683               	bsf	status, 5	;RP0=1, select bank1
  2161  00A7  1303               	bcf	status, 6	;RP1=0, select bank1
  2162  00A8  00DC               	movwf	(_s2)^080h
  2163  00A9  1283               	bcf	status, 5	;RP0=0, select bank0
  2164  00AA  1303               	bcf	status, 6	;RP1=0, select bank0
  2165  00AB  083B               	movf	(1+(?___ftdiv)),w
  2166  00AC  1683               	bsf	status, 5	;RP0=1, select bank1
  2167  00AD  1303               	bcf	status, 6	;RP1=0, select bank1
  2168  00AE  00DD               	movwf	(_s2+1)^080h
  2169  00AF  1283               	bcf	status, 5	;RP0=0, select bank0
  2170  00B0  1303               	bcf	status, 6	;RP1=0, select bank0
  2171  00B1  083C               	movf	(2+(?___ftdiv)),w
  2172  00B2  1683               	bsf	status, 5	;RP0=1, select bank1
  2173  00B3  1303               	bcf	status, 6	;RP1=0, select bank1
  2174  00B4  00DE               	movwf	(_s2+2)^080h
  2175                           	line	59
  2176                           	
  2177  00B5                     l7359:	
  2178                           ;Code.c: 59: s3= read_a2d(2);
  2179  00B5  3002               	movlw	(02h)
  2180  00B6  120A  158A  2084   	fcall	_read_a2d
              120A  118A         
  2181  00BB  1283               	bcf	status, 5	;RP0=0, select bank0
  2182  00BC  1303               	bcf	status, 6	;RP1=0, select bank0
  2183  00BD  082C               	movf	(0+(?_read_a2d)),w
  2184  00BE  1683               	bsf	status, 5	;RP0=1, select bank1
  2185  00BF  1303               	bcf	status, 6	;RP1=0, select bank1
  2186  00C0  00DF               	movwf	(_s3)^080h
  2187  00C1  1283               	bcf	status, 5	;RP0=0, select bank0
  2188  00C2  1303               	bcf	status, 6	;RP1=0, select bank0
  2189  00C3  082D               	movf	(1+(?_read_a2d)),w
  2190  00C4  1683               	bsf	status, 5	;RP0=1, select bank1
  2191  00C5  1303               	bcf	status, 6	;RP1=0, select bank1
  2192  00C6  00E0               	movwf	(_s3+1)^080h
  2193  00C7  1283               	bcf	status, 5	;RP0=0, select bank0
  2194  00C8  1303               	bcf	status, 6	;RP1=0, select bank0
  2195  00C9  082E               	movf	(2+(?_read_a2d)),w
  2196  00CA  1683               	bsf	status, 5	;RP0=1, select bank1
  2197  00CB  1303               	bcf	status, 6	;RP1=0, select bank1
  2198  00CC  00E1               	movwf	(_s3+2)^080h
  2199                           	line	60
  2200                           	
  2201  00CD                     l7361:	
  2202                           ;Code.c: 60: s3 = s3/51.0;
  2203  00CD  3000               	movlw	0x0
  2204  00CE  1283               	bcf	status, 5	;RP0=0, select bank0
  2205  00CF  1303               	bcf	status, 6	;RP1=0, select bank0
  2206  00D0  00BA               	movwf	(?___ftdiv)
  2207  00D1  304C               	movlw	0x4c
  2208  00D2  00BB               	movwf	(?___ftdiv+1)
  2209  00D3  3042               	movlw	0x42
  2210  00D4  00BC               	movwf	(?___ftdiv+2)
  2211  00D5  1683               	bsf	status, 5	;RP0=1, select bank1
  2212  00D6  1303               	bcf	status, 6	;RP1=0, select bank1
  2213  00D7  085F               	movf	(_s3)^080h,w
  2214  00D8  1283               	bcf	status, 5	;RP0=0, select bank0
  2215  00D9  1303               	bcf	status, 6	;RP1=0, select bank0
  2216  00DA  00BD               	movwf	0+(?___ftdiv)+03h
  2217  00DB  1683               	bsf	status, 5	;RP0=1, select bank1
  2218  00DC  1303               	bcf	status, 6	;RP1=0, select bank1
  2219  00DD  0860               	movf	(_s3+1)^080h,w
  2220  00DE  1283               	bcf	status, 5	;RP0=0, select bank0
  2221  00DF  1303               	bcf	status, 6	;RP1=0, select bank0
  2222  00E0  00BE               	movwf	1+(?___ftdiv)+03h
  2223  00E1  1683               	bsf	status, 5	;RP0=1, select bank1
  2224  00E2  1303               	bcf	status, 6	;RP1=0, select bank1
  2225  00E3  0861               	movf	(_s3+2)^080h,w
  2226  00E4  1283               	bcf	status, 5	;RP0=0, select bank0
  2227  00E5  1303               	bcf	status, 6	;RP1=0, select bank0
  2228  00E6  00BF               	movwf	2+(?___ftdiv)+03h
  2229  00E7  120A  158A  22A9   	fcall	___ftdiv
              120A  118A         
  2230  00EC  1283               	bcf	status, 5	;RP0=0, select bank0
  2231  00ED  1303               	bcf	status, 6	;RP1=0, select bank0
  2232  00EE  083A               	movf	(0+(?___ftdiv)),w
  2233  00EF  1683               	bsf	status, 5	;RP0=1, select bank1
  2234  00F0  1303               	bcf	status, 6	;RP1=0, select bank1
  2235  00F1  00DF               	movwf	(_s3)^080h
  2236  00F2  1283               	bcf	status, 5	;RP0=0, select bank0
  2237  00F3  1303               	bcf	status, 6	;RP1=0, select bank0
  2238  00F4  083B               	movf	(1+(?___ftdiv)),w
  2239  00F5  1683               	bsf	status, 5	;RP0=1, select bank1
  2240  00F6  1303               	bcf	status, 6	;RP1=0, select bank1
  2241  00F7  00E0               	movwf	(_s3+1)^080h
  2242  00F8  1283               	bcf	status, 5	;RP0=0, select bank0
  2243  00F9  1303               	bcf	status, 6	;RP1=0, select bank0
  2244  00FA  083C               	movf	(2+(?___ftdiv)),w
  2245  00FB  1683               	bsf	status, 5	;RP0=1, select bank1
  2246  00FC  1303               	bcf	status, 6	;RP1=0, select bank1
  2247  00FD  00E1               	movwf	(_s3+2)^080h
  2248                           	line	62
  2249                           	
  2250  00FE                     l7363:	
  2251                           ;Code.c: 62: s4= read_a2d(3);
  2252  00FE  3003               	movlw	(03h)
  2253  00FF  120A  158A  2084   	fcall	_read_a2d
              120A  118A         
  2254  0104  1283               	bcf	status, 5	;RP0=0, select bank0
  2255  0105  1303               	bcf	status, 6	;RP1=0, select bank0
  2256  0106  082C               	movf	(0+(?_read_a2d)),w
  2257  0107  1683               	bsf	status, 5	;RP0=1, select bank1
  2258  0108  1303               	bcf	status, 6	;RP1=0, select bank1
  2259  0109  00E2               	movwf	(_s4)^080h
  2260  010A  1283               	bcf	status, 5	;RP0=0, select bank0
  2261  010B  1303               	bcf	status, 6	;RP1=0, select bank0
  2262  010C  082D               	movf	(1+(?_read_a2d)),w
  2263  010D  1683               	bsf	status, 5	;RP0=1, select bank1
  2264  010E  1303               	bcf	status, 6	;RP1=0, select bank1
  2265  010F  00E3               	movwf	(_s4+1)^080h
  2266  0110  1283               	bcf	status, 5	;RP0=0, select bank0
  2267  0111  1303               	bcf	status, 6	;RP1=0, select bank0
  2268  0112  082E               	movf	(2+(?_read_a2d)),w
  2269  0113  1683               	bsf	status, 5	;RP0=1, select bank1
  2270  0114  1303               	bcf	status, 6	;RP1=0, select bank1
  2271  0115  00E4               	movwf	(_s4+2)^080h
  2272                           	line	63
  2273                           	
  2274  0116                     l7365:	
  2275                           ;Code.c: 63: s4 = s4/51.0;
  2276  0116  3000               	movlw	0x0
  2277  0117  1283               	bcf	status, 5	;RP0=0, select bank0
  2278  0118  1303               	bcf	status, 6	;RP1=0, select bank0
  2279  0119  00BA               	movwf	(?___ftdiv)
  2280  011A  304C               	movlw	0x4c
  2281  011B  00BB               	movwf	(?___ftdiv+1)
  2282  011C  3042               	movlw	0x42
  2283  011D  00BC               	movwf	(?___ftdiv+2)
  2284  011E  1683               	bsf	status, 5	;RP0=1, select bank1
  2285  011F  1303               	bcf	status, 6	;RP1=0, select bank1
  2286  0120  0862               	movf	(_s4)^080h,w
  2287  0121  1283               	bcf	status, 5	;RP0=0, select bank0
  2288  0122  1303               	bcf	status, 6	;RP1=0, select bank0
  2289  0123  00BD               	movwf	0+(?___ftdiv)+03h
  2290  0124  1683               	bsf	status, 5	;RP0=1, select bank1
  2291  0125  1303               	bcf	status, 6	;RP1=0, select bank1
  2292  0126  0863               	movf	(_s4+1)^080h,w
  2293  0127  1283               	bcf	status, 5	;RP0=0, select bank0
  2294  0128  1303               	bcf	status, 6	;RP1=0, select bank0
  2295  0129  00BE               	movwf	1+(?___ftdiv)+03h
  2296  012A  1683               	bsf	status, 5	;RP0=1, select bank1
  2297  012B  1303               	bcf	status, 6	;RP1=0, select bank1
  2298  012C  0864               	movf	(_s4+2)^080h,w
  2299  012D  1283               	bcf	status, 5	;RP0=0, select bank0
  2300  012E  1303               	bcf	status, 6	;RP1=0, select bank0
  2301  012F  00BF               	movwf	2+(?___ftdiv)+03h
  2302  0130  120A  158A  22A9   	fcall	___ftdiv
              120A  118A         
  2303  0135  1283               	bcf	status, 5	;RP0=0, select bank0
  2304  0136  1303               	bcf	status, 6	;RP1=0, select bank0
  2305  0137  083A               	movf	(0+(?___ftdiv)),w
  2306  0138  1683               	bsf	status, 5	;RP0=1, select bank1
  2307  0139  1303               	bcf	status, 6	;RP1=0, select bank1
  2308  013A  00E2               	movwf	(_s4)^080h
  2309  013B  1283               	bcf	status, 5	;RP0=0, select bank0
  2310  013C  1303               	bcf	status, 6	;RP1=0, select bank0
  2311  013D  083B               	movf	(1+(?___ftdiv)),w
  2312  013E  1683               	bsf	status, 5	;RP0=1, select bank1
  2313  013F  1303               	bcf	status, 6	;RP1=0, select bank1
  2314  0140  00E3               	movwf	(_s4+1)^080h
  2315  0141  1283               	bcf	status, 5	;RP0=0, select bank0
  2316  0142  1303               	bcf	status, 6	;RP1=0, select bank0
  2317  0143  083C               	movf	(2+(?___ftdiv)),w
  2318  0144  1683               	bsf	status, 5	;RP0=1, select bank1
  2319  0145  1303               	bcf	status, 6	;RP1=0, select bank1
  2320  0146  00E4               	movwf	(_s4+2)^080h
  2321                           	line	66
  2322                           	
  2323  0147                     l7367:	
  2324                           ;Code.c: 66: avg =((s1+s2+s3+s4)/20)*100;
  2325  0147  085C               	movf	(_s2)^080h,w
  2326  0148  1283               	bcf	status, 5	;RP0=0, select bank0
  2327  0149  1303               	bcf	status, 6	;RP1=0, select bank0
  2328  014A  00AD               	movwf	(?___ftadd)
  2329  014B  1683               	bsf	status, 5	;RP0=1, select bank1
  2330  014C  1303               	bcf	status, 6	;RP1=0, select bank1
  2331  014D  085D               	movf	(_s2+1)^080h,w
  2332  014E  1283               	bcf	status, 5	;RP0=0, select bank0
  2333  014F  1303               	bcf	status, 6	;RP1=0, select bank0
  2334  0150  00AE               	movwf	(?___ftadd+1)
  2335  0151  1683               	bsf	status, 5	;RP0=1, select bank1
  2336  0152  1303               	bcf	status, 6	;RP1=0, select bank1
  2337  0153  085E               	movf	(_s2+2)^080h,w
  2338  0154  1283               	bcf	status, 5	;RP0=0, select bank0
  2339  0155  1303               	bcf	status, 6	;RP1=0, select bank0
  2340  0156  00AF               	movwf	(?___ftadd+2)
  2341  0157  1683               	bsf	status, 5	;RP0=1, select bank1
  2342  0158  1303               	bcf	status, 6	;RP1=0, select bank1
  2343  0159  0859               	movf	(_s1)^080h,w
  2344  015A  1283               	bcf	status, 5	;RP0=0, select bank0
  2345  015B  1303               	bcf	status, 6	;RP1=0, select bank0
  2346  015C  00B0               	movwf	0+(?___ftadd)+03h
  2347  015D  1683               	bsf	status, 5	;RP0=1, select bank1
  2348  015E  1303               	bcf	status, 6	;RP1=0, select bank1
  2349  015F  085A               	movf	(_s1+1)^080h,w
  2350  0160  1283               	bcf	status, 5	;RP0=0, select bank0
  2351  0161  1303               	bcf	status, 6	;RP1=0, select bank0
  2352  0162  00B1               	movwf	1+(?___ftadd)+03h
  2353  0163  1683               	bsf	status, 5	;RP0=1, select bank1
  2354  0164  1303               	bcf	status, 6	;RP1=0, select bank1
  2355  0165  085B               	movf	(_s1+2)^080h,w
  2356  0166  1283               	bcf	status, 5	;RP0=0, select bank0
  2357  0167  1303               	bcf	status, 6	;RP1=0, select bank0
  2358  0168  00B2               	movwf	2+(?___ftadd)+03h
  2359  0169  120A  158A  26BA   	fcall	___ftadd
              120A  118A         
  2360  016E  1283               	bcf	status, 5	;RP0=0, select bank0
  2361  016F  1303               	bcf	status, 6	;RP1=0, select bank0
  2362  0170  082D               	movf	(0+(?___ftadd)),w
  2363  0171  1683               	bsf	status, 5	;RP0=1, select bank1
  2364  0172  1303               	bcf	status, 6	;RP1=0, select bank1
  2365  0173  00D0               	movwf	(_main$3827)^080h
  2366  0174  1283               	bcf	status, 5	;RP0=0, select bank0
  2367  0175  1303               	bcf	status, 6	;RP1=0, select bank0
  2368  0176  082E               	movf	(1+(?___ftadd)),w
  2369  0177  1683               	bsf	status, 5	;RP0=1, select bank1
  2370  0178  1303               	bcf	status, 6	;RP1=0, select bank1
  2371  0179  00D1               	movwf	(_main$3827+1)^080h
  2372  017A  1283               	bcf	status, 5	;RP0=0, select bank0
  2373  017B  1303               	bcf	status, 6	;RP1=0, select bank0
  2374  017C  082F               	movf	(2+(?___ftadd)),w
  2375  017D  1683               	bsf	status, 5	;RP0=1, select bank1
  2376  017E  1303               	bcf	status, 6	;RP1=0, select bank1
  2377  017F  00D2               	movwf	(_main$3827+2)^080h
  2378                           	
  2379  0180                     l7369:	
  2380                           ;Code.c: 66: avg =((s1+s2+s3+s4)/20)*100;
  2381  0180  085F               	movf	(_s3)^080h,w
  2382  0181  1283               	bcf	status, 5	;RP0=0, select bank0
  2383  0182  1303               	bcf	status, 6	;RP1=0, select bank0
  2384  0183  00AD               	movwf	(?___ftadd)
  2385  0184  1683               	bsf	status, 5	;RP0=1, select bank1
  2386  0185  1303               	bcf	status, 6	;RP1=0, select bank1
  2387  0186  0860               	movf	(_s3+1)^080h,w
  2388  0187  1283               	bcf	status, 5	;RP0=0, select bank0
  2389  0188  1303               	bcf	status, 6	;RP1=0, select bank0
  2390  0189  00AE               	movwf	(?___ftadd+1)
  2391  018A  1683               	bsf	status, 5	;RP0=1, select bank1
  2392  018B  1303               	bcf	status, 6	;RP1=0, select bank1
  2393  018C  0861               	movf	(_s3+2)^080h,w
  2394  018D  1283               	bcf	status, 5	;RP0=0, select bank0
  2395  018E  1303               	bcf	status, 6	;RP1=0, select bank0
  2396  018F  00AF               	movwf	(?___ftadd+2)
  2397  0190  1683               	bsf	status, 5	;RP0=1, select bank1
  2398  0191  1303               	bcf	status, 6	;RP1=0, select bank1
  2399  0192  0850               	movf	(_main$3827)^080h,w
  2400  0193  1283               	bcf	status, 5	;RP0=0, select bank0
  2401  0194  1303               	bcf	status, 6	;RP1=0, select bank0
  2402  0195  00B0               	movwf	0+(?___ftadd)+03h
  2403  0196  1683               	bsf	status, 5	;RP0=1, select bank1
  2404  0197  1303               	bcf	status, 6	;RP1=0, select bank1
  2405  0198  0851               	movf	(_main$3827+1)^080h,w
  2406  0199  1283               	bcf	status, 5	;RP0=0, select bank0
  2407  019A  1303               	bcf	status, 6	;RP1=0, select bank0
  2408  019B  00B1               	movwf	1+(?___ftadd)+03h
  2409  019C  1683               	bsf	status, 5	;RP0=1, select bank1
  2410  019D  1303               	bcf	status, 6	;RP1=0, select bank1
  2411  019E  0852               	movf	(_main$3827+2)^080h,w
  2412  019F  1283               	bcf	status, 5	;RP0=0, select bank0
  2413  01A0  1303               	bcf	status, 6	;RP1=0, select bank0
  2414  01A1  00B2               	movwf	2+(?___ftadd)+03h
  2415  01A2  120A  158A  26BA   	fcall	___ftadd
              120A  118A         
  2416  01A7  1283               	bcf	status, 5	;RP0=0, select bank0
  2417  01A8  1303               	bcf	status, 6	;RP1=0, select bank0
  2418  01A9  082D               	movf	(0+(?___ftadd)),w
  2419  01AA  1683               	bsf	status, 5	;RP0=1, select bank1
  2420  01AB  1303               	bcf	status, 6	;RP1=0, select bank1
  2421  01AC  00D3               	movwf	(_main$3828)^080h
  2422  01AD  1283               	bcf	status, 5	;RP0=0, select bank0
  2423  01AE  1303               	bcf	status, 6	;RP1=0, select bank0
  2424  01AF  082E               	movf	(1+(?___ftadd)),w
  2425  01B0  1683               	bsf	status, 5	;RP0=1, select bank1
  2426  01B1  1303               	bcf	status, 6	;RP1=0, select bank1
  2427  01B2  00D4               	movwf	(_main$3828+1)^080h
  2428  01B3  1283               	bcf	status, 5	;RP0=0, select bank0
  2429  01B4  1303               	bcf	status, 6	;RP1=0, select bank0
  2430  01B5  082F               	movf	(2+(?___ftadd)),w
  2431  01B6  1683               	bsf	status, 5	;RP0=1, select bank1
  2432  01B7  1303               	bcf	status, 6	;RP1=0, select bank1
  2433  01B8  00D5               	movwf	(_main$3828+2)^080h
  2434                           	
  2435  01B9                     l7371:	
  2436                           ;Code.c: 66: avg =((s1+s2+s3+s4)/20)*100;
  2437  01B9  3000               	movlw	0x0
  2438  01BA  1283               	bcf	status, 5	;RP0=0, select bank0
  2439  01BB  1303               	bcf	status, 6	;RP1=0, select bank0
  2440  01BC  00CA               	movwf	(?___ftmul)
  2441  01BD  30C8               	movlw	0xc8
  2442  01BE  00CB               	movwf	(?___ftmul+1)
  2443  01BF  3042               	movlw	0x42
  2444  01C0  00CC               	movwf	(?___ftmul+2)
  2445  01C1  3000               	movlw	0x0
  2446  01C2  00BA               	movwf	(?___ftdiv)
  2447  01C3  30A0               	movlw	0xa0
  2448  01C4  00BB               	movwf	(?___ftdiv+1)
  2449  01C5  3041               	movlw	0x41
  2450  01C6  00BC               	movwf	(?___ftdiv+2)
  2451  01C7  1683               	bsf	status, 5	;RP0=1, select bank1
  2452  01C8  1303               	bcf	status, 6	;RP1=0, select bank1
  2453  01C9  0862               	movf	(_s4)^080h,w
  2454  01CA  1283               	bcf	status, 5	;RP0=0, select bank0
  2455  01CB  1303               	bcf	status, 6	;RP1=0, select bank0
  2456  01CC  00AD               	movwf	(?___ftadd)
  2457  01CD  1683               	bsf	status, 5	;RP0=1, select bank1
  2458  01CE  1303               	bcf	status, 6	;RP1=0, select bank1
  2459  01CF  0863               	movf	(_s4+1)^080h,w
  2460  01D0  1283               	bcf	status, 5	;RP0=0, select bank0
  2461  01D1  1303               	bcf	status, 6	;RP1=0, select bank0
  2462  01D2  00AE               	movwf	(?___ftadd+1)
  2463  01D3  1683               	bsf	status, 5	;RP0=1, select bank1
  2464  01D4  1303               	bcf	status, 6	;RP1=0, select bank1
  2465  01D5  0864               	movf	(_s4+2)^080h,w
  2466  01D6  1283               	bcf	status, 5	;RP0=0, select bank0
  2467  01D7  1303               	bcf	status, 6	;RP1=0, select bank0
  2468  01D8  00AF               	movwf	(?___ftadd+2)
  2469  01D9  1683               	bsf	status, 5	;RP0=1, select bank1
  2470  01DA  1303               	bcf	status, 6	;RP1=0, select bank1
  2471  01DB  0853               	movf	(_main$3828)^080h,w
  2472  01DC  1283               	bcf	status, 5	;RP0=0, select bank0
  2473  01DD  1303               	bcf	status, 6	;RP1=0, select bank0
  2474  01DE  00B0               	movwf	0+(?___ftadd)+03h
  2475  01DF  1683               	bsf	status, 5	;RP0=1, select bank1
  2476  01E0  1303               	bcf	status, 6	;RP1=0, select bank1
  2477  01E1  0854               	movf	(_main$3828+1)^080h,w
  2478  01E2  1283               	bcf	status, 5	;RP0=0, select bank0
  2479  01E3  1303               	bcf	status, 6	;RP1=0, select bank0
  2480  01E4  00B1               	movwf	1+(?___ftadd)+03h
  2481  01E5  1683               	bsf	status, 5	;RP0=1, select bank1
  2482  01E6  1303               	bcf	status, 6	;RP1=0, select bank1
  2483  01E7  0855               	movf	(_main$3828+2)^080h,w
  2484  01E8  1283               	bcf	status, 5	;RP0=0, select bank0
  2485  01E9  1303               	bcf	status, 6	;RP1=0, select bank0
  2486  01EA  00B2               	movwf	2+(?___ftadd)+03h
  2487  01EB  120A  158A  26BA   	fcall	___ftadd
              120A  118A         
  2488  01F0  1283               	bcf	status, 5	;RP0=0, select bank0
  2489  01F1  1303               	bcf	status, 6	;RP1=0, select bank0
  2490  01F2  082D               	movf	(0+(?___ftadd)),w
  2491  01F3  00BD               	movwf	0+(?___ftdiv)+03h
  2492  01F4  082E               	movf	(1+(?___ftadd)),w
  2493  01F5  00BE               	movwf	1+(?___ftdiv)+03h
  2494  01F6  082F               	movf	(2+(?___ftadd)),w
  2495  01F7  00BF               	movwf	2+(?___ftdiv)+03h
  2496  01F8  120A  158A  22A9   	fcall	___ftdiv
              120A  118A         
  2497  01FD  1283               	bcf	status, 5	;RP0=0, select bank0
  2498  01FE  1303               	bcf	status, 6	;RP1=0, select bank0
  2499  01FF  083A               	movf	(0+(?___ftdiv)),w
  2500  0200  00CD               	movwf	0+(?___ftmul)+03h
  2501  0201  083B               	movf	(1+(?___ftdiv)),w
  2502  0202  00CE               	movwf	1+(?___ftmul)+03h
  2503  0203  083C               	movf	(2+(?___ftdiv)),w
  2504  0204  00CF               	movwf	2+(?___ftmul)+03h
  2505  0205  120A  158A  2371   	fcall	___ftmul
              120A  118A         
  2506  020A  1283               	bcf	status, 5	;RP0=0, select bank0
  2507  020B  1303               	bcf	status, 6	;RP1=0, select bank0
  2508  020C  084A               	movf	(0+(?___ftmul)),w
  2509  020D  1683               	bsf	status, 5	;RP0=1, select bank1
  2510  020E  1303               	bcf	status, 6	;RP1=0, select bank1
  2511  020F  00D6               	movwf	(_avg)^080h
  2512  0210  1283               	bcf	status, 5	;RP0=0, select bank0
  2513  0211  1303               	bcf	status, 6	;RP1=0, select bank0
  2514  0212  084B               	movf	(1+(?___ftmul)),w
  2515  0213  1683               	bsf	status, 5	;RP0=1, select bank1
  2516  0214  1303               	bcf	status, 6	;RP1=0, select bank1
  2517  0215  00D7               	movwf	(_avg+1)^080h
  2518  0216  1283               	bcf	status, 5	;RP0=0, select bank0
  2519  0217  1303               	bcf	status, 6	;RP1=0, select bank0
  2520  0218  084C               	movf	(2+(?___ftmul)),w
  2521  0219  1683               	bsf	status, 5	;RP0=1, select bank1
  2522  021A  1303               	bcf	status, 6	;RP1=0, select bank1
  2523  021B  00D8               	movwf	(_avg+2)^080h
  2524                           	line	67
  2525                           	
  2526  021C                     l7373:	
  2527                           ;Code.c: 67: ftoa(avg, str, 2);
  2528  021C  0856               	movf	(_avg)^080h,w
  2529  021D  00BD               	movwf	(?_ftoa)^080h
  2530  021E  0857               	movf	(_avg+1)^080h,w
  2531  021F  00BE               	movwf	(?_ftoa+1)^080h
  2532  0220  0858               	movf	(_avg+2)^080h,w
  2533  0221  00BF               	movwf	(?_ftoa+2)^080h
  2534  0222  3090               	movlw	(_str)&0ffh
  2535  0223  00CF               	movwf	(??_main+0)^080h+0
  2536  0224  084F               	movf	(??_main+0)^080h+0,w
  2537  0225  00C0               	movwf	(0+?_ftoa+03h)^080h
  2538  0226  3002               	movlw	low(02h)
  2539  0227  00C1               	movwf	0+(?_ftoa)^080h+04h
  2540  0228  3000               	movlw	high(02h)
  2541  0229  00C2               	movwf	(0+(?_ftoa)^080h+04h)+1
  2542  022A  120A  158A  257A   	fcall	_ftoa
              120A  118A         
  2543                           	line	69
  2544                           	
  2545  022F                     l7375:	
  2546                           ;Code.c: 69: GIE=1;
  2547  022F  178B               	bsf	(95/8),(95)&7
  2548                           	line	70
  2549                           	
  2550  0230                     l7377:	
  2551                           ;Code.c: 70: T0IE = 1;
  2552  0230  168B               	bsf	(93/8),(93)&7
  2553                           	line	72
  2554                           ;Code.c: 72: if(avg<40){
  2555  0231  1683               	bsf	status, 5	;RP0=1, select bank1
  2556  0232  1303               	bcf	status, 6	;RP1=0, select bank1
  2557  0233  0856               	movf	(_avg)^080h,w
  2558  0234  1283               	bcf	status, 5	;RP0=0, select bank0
  2559  0235  1303               	bcf	status, 6	;RP1=0, select bank0
  2560  0236  00A0               	movwf	(?___ftge)
  2561  0237  1683               	bsf	status, 5	;RP0=1, select bank1
  2562  0238  1303               	bcf	status, 6	;RP1=0, select bank1
  2563  0239  0857               	movf	(_avg+1)^080h,w
  2564  023A  1283               	bcf	status, 5	;RP0=0, select bank0
  2565  023B  1303               	bcf	status, 6	;RP1=0, select bank0
  2566  023C  00A1               	movwf	(?___ftge+1)
  2567  023D  1683               	bsf	status, 5	;RP0=1, select bank1
  2568  023E  1303               	bcf	status, 6	;RP1=0, select bank1
  2569  023F  0858               	movf	(_avg+2)^080h,w
  2570  0240  1283               	bcf	status, 5	;RP0=0, select bank0
  2571  0241  1303               	bcf	status, 6	;RP1=0, select bank0
  2572  0242  00A2               	movwf	(?___ftge+2)
  2573  0243  3000               	movlw	0x0
  2574  0244  00A3               	movwf	0+(?___ftge)+03h
  2575  0245  3020               	movlw	0x20
  2576  0246  00A4               	movwf	1+(?___ftge)+03h
  2577  0247  3042               	movlw	0x42
  2578  0248  00A5               	movwf	2+(?___ftge)+03h
  2579  0249  160A  118A  2696   	fcall	___ftge
              120A  118A         
  2580  024E  1803               	btfsc	status,0
  2581  024F  2A51               	goto	u5421
  2582  0250  2A52               	goto	u5420
  2583  0251                     u5421:
  2584  0251  2A80               	goto	l7387
  2585  0252                     u5420:
  2586                           	line	73
  2587                           	
  2588  0252                     l7379:	
  2589                           ;Code.c: 73: lcd_goto(0);
  2590  0252  3000               	movlw	(0)
  2591  0253  160A  118A  22FF   	fcall	_lcd_goto
              120A  118A         
  2592                           	line	74
  2593                           ;Code.c: 74: lcd_clear();
  2594  0258  160A  118A  2319   	fcall	_lcd_clear
              120A  118A         
  2595                           	line	75
  2596                           	
  2597  025D                     l7381:	
  2598                           ;Code.c: 75: lcd_puts("Average Temp");
  2599  025D  303A               	movlw	low((STR_2-__stringbase))
  2600  025E  1283               	bcf	status, 5	;RP0=0, select bank0
  2601  025F  1303               	bcf	status, 6	;RP1=0, select bank0
  2602  0260  00A0               	movwf	(?_lcd_puts)
  2603  0261  3080               	movlw	80h
  2604  0262  00A1               	movwf	(?_lcd_puts+1)
  2605  0263  160A  118A  23FF   	fcall	_lcd_puts
              120A  118A         
  2606                           	line	76
  2607                           	
  2608  0268                     l7383:	
  2609                           ;Code.c: 76: lcd_goto(64);
  2610  0268  3040               	movlw	(040h)
  2611  0269  160A  118A  22FF   	fcall	_lcd_goto
              120A  118A         
  2612                           	line	77
  2613                           ;Code.c: 77: lcd_puts(str);
  2614  026E  3090               	movlw	(_str&0ffh)
  2615  026F  1283               	bcf	status, 5	;RP0=0, select bank0
  2616  0270  1303               	bcf	status, 6	;RP1=0, select bank0
  2617  0271  00A0               	movwf	(?_lcd_puts)
  2618  0272  3001               	movlw	(0x3/2)
  2619  0273  00A1               	movwf	(?_lcd_puts+1)
  2620  0274  160A  118A  23FF   	fcall	_lcd_puts
              120A  118A         
  2621                           	line	78
  2622                           	
  2623  0279                     l7385:	
  2624                           ;Code.c: 78: DelayMs(300);
  2625  0279  302C               	movlw	(02Ch)
  2626  027A  160A  118A  2398   	fcall	_DelayMs
              120A  118A         
  2627                           	line	79
  2628                           ;Code.c: 79: }
  2629  027F  2823               	goto	l7351
  2630                           	line	80
  2631                           	
  2632  0280                     l721:	
  2633                           	
  2634  0280                     l7387:	
  2635                           ;Code.c: 80: else if(avg>40 && avg<51){
  2636  0280  3000               	movlw	0x0
  2637  0281  1283               	bcf	status, 5	;RP0=0, select bank0
  2638  0282  1303               	bcf	status, 6	;RP1=0, select bank0
  2639  0283  00A0               	movwf	(?___ftge)
  2640  0284  3020               	movlw	0x20
  2641  0285  00A1               	movwf	(?___ftge+1)
  2642  0286  3042               	movlw	0x42
  2643  0287  00A2               	movwf	(?___ftge+2)
  2644  0288  1683               	bsf	status, 5	;RP0=1, select bank1
  2645  0289  1303               	bcf	status, 6	;RP1=0, select bank1
  2646  028A  0856               	movf	(_avg)^080h,w
  2647  028B  1283               	bcf	status, 5	;RP0=0, select bank0
  2648  028C  1303               	bcf	status, 6	;RP1=0, select bank0
  2649  028D  00A3               	movwf	0+(?___ftge)+03h
  2650  028E  1683               	bsf	status, 5	;RP0=1, select bank1
  2651  028F  1303               	bcf	status, 6	;RP1=0, select bank1
  2652  0290  0857               	movf	(_avg+1)^080h,w
  2653  0291  1283               	bcf	status, 5	;RP0=0, select bank0
  2654  0292  1303               	bcf	status, 6	;RP1=0, select bank0
  2655  0293  00A4               	movwf	1+(?___ftge)+03h
  2656  0294  1683               	bsf	status, 5	;RP0=1, select bank1
  2657  0295  1303               	bcf	status, 6	;RP1=0, select bank1
  2658  0296  0858               	movf	(_avg+2)^080h,w
  2659  0297  1283               	bcf	status, 5	;RP0=0, select bank0
  2660  0298  1303               	bcf	status, 6	;RP1=0, select bank0
  2661  0299  00A5               	movwf	2+(?___ftge)+03h
  2662  029A  160A  118A  2696   	fcall	___ftge
              120A  118A         
  2663  029F  1803               	btfsc	status,0
  2664  02A0  2AA2               	goto	u5431
  2665  02A1  2AA3               	goto	u5430
  2666  02A2                     u5431:
  2667  02A2  2B10               	goto	l7409
  2668  02A3                     u5430:
  2669                           	
  2670  02A3                     l7389:	
  2671  02A3  1683               	bsf	status, 5	;RP0=1, select bank1
  2672  02A4  1303               	bcf	status, 6	;RP1=0, select bank1
  2673  02A5  0856               	movf	(_avg)^080h,w
  2674  02A6  1283               	bcf	status, 5	;RP0=0, select bank0
  2675  02A7  1303               	bcf	status, 6	;RP1=0, select bank0
  2676  02A8  00A0               	movwf	(?___ftge)
  2677  02A9  1683               	bsf	status, 5	;RP0=1, select bank1
  2678  02AA  1303               	bcf	status, 6	;RP1=0, select bank1
  2679  02AB  0857               	movf	(_avg+1)^080h,w
  2680  02AC  1283               	bcf	status, 5	;RP0=0, select bank0
  2681  02AD  1303               	bcf	status, 6	;RP1=0, select bank0
  2682  02AE  00A1               	movwf	(?___ftge+1)
  2683  02AF  1683               	bsf	status, 5	;RP0=1, select bank1
  2684  02B0  1303               	bcf	status, 6	;RP1=0, select bank1
  2685  02B1  0858               	movf	(_avg+2)^080h,w
  2686  02B2  1283               	bcf	status, 5	;RP0=0, select bank0
  2687  02B3  1303               	bcf	status, 6	;RP1=0, select bank0
  2688  02B4  00A2               	movwf	(?___ftge+2)
  2689  02B5  3000               	movlw	0x0
  2690  02B6  00A3               	movwf	0+(?___ftge)+03h
  2691  02B7  304C               	movlw	0x4c
  2692  02B8  00A4               	movwf	1+(?___ftge)+03h
  2693  02B9  3042               	movlw	0x42
  2694  02BA  00A5               	movwf	2+(?___ftge)+03h
  2695  02BB  160A  118A  2696   	fcall	___ftge
              120A  118A         
  2696  02C0  1803               	btfsc	status,0
  2697  02C1  2AC3               	goto	u5441
  2698  02C2  2AC4               	goto	u5440
  2699  02C3                     u5441:
  2700  02C3  2B10               	goto	l7409
  2701  02C4                     u5440:
  2702                           	line	82
  2703                           	
  2704  02C4                     l7391:	
  2705                           ;Code.c: 82: lcd_goto(0);
  2706  02C4  3000               	movlw	(0)
  2707  02C5  160A  118A  22FF   	fcall	_lcd_goto
              120A  118A         
  2708                           	line	83
  2709                           	
  2710  02CA                     l7393:	
  2711                           ;Code.c: 83: lcd_puts("Warning");
  2712  02CA  3069               	movlw	low((STR_3-__stringbase))
  2713  02CB  1283               	bcf	status, 5	;RP0=0, select bank0
  2714  02CC  1303               	bcf	status, 6	;RP1=0, select bank0
  2715  02CD  00A0               	movwf	(?_lcd_puts)
  2716  02CE  3080               	movlw	80h
  2717  02CF  00A1               	movwf	(?_lcd_puts+1)
  2718  02D0  160A  118A  23FF   	fcall	_lcd_puts
              120A  118A         
  2719                           	line	85
  2720                           	
  2721  02D5                     l7395:	
  2722                           ;Code.c: 85: if (Counter==10){
  2723  02D5  300A               	movlw	0Ah
  2724  02D6  1683               	bsf	status, 5	;RP0=1, select bank1
  2725  02D7  1303               	bcf	status, 6	;RP1=0, select bank1
  2726  02D8  0668               	xorwf	(_Counter)^080h,w
  2727  02D9  0469               	iorwf	(_Counter+1)^080h,w
  2728  02DA  1D03               	skipz
  2729  02DB  2ADD               	goto	u5451
  2730  02DC  2ADE               	goto	u5450
  2731  02DD                     u5451:
  2732  02DD  2AF0               	goto	l7401
  2733  02DE                     u5450:
  2734                           	line	86
  2735                           	
  2736  02DE                     l7397:	
  2737                           ;Code.c: 86: lcd_goto(64);
  2738  02DE  3040               	movlw	(040h)
  2739  02DF  160A  118A  22FF   	fcall	_lcd_goto
              120A  118A         
  2740                           	line	87
  2741                           	
  2742  02E4                     l7399:	
  2743                           ;Code.c: 87: lcd_puts(str);
  2744  02E4  3090               	movlw	(_str&0ffh)
  2745  02E5  1283               	bcf	status, 5	;RP0=0, select bank0
  2746  02E6  1303               	bcf	status, 6	;RP1=0, select bank0
  2747  02E7  00A0               	movwf	(?_lcd_puts)
  2748  02E8  3001               	movlw	(0x3/2)
  2749  02E9  00A1               	movwf	(?_lcd_puts+1)
  2750  02EA  160A  118A  23FF   	fcall	_lcd_puts
              120A  118A         
  2751  02EF  2AF0               	goto	l7401
  2752                           	line	88
  2753                           	
  2754  02F0                     l724:	
  2755                           	line	89
  2756                           	
  2757  02F0                     l7401:	
  2758                           ;Code.c: 88: }
  2759                           ;Code.c: 89: if (Counter==20){
  2760  02F0  3014               	movlw	014h
  2761  02F1  1683               	bsf	status, 5	;RP0=1, select bank1
  2762  02F2  1303               	bcf	status, 6	;RP1=0, select bank1
  2763  02F3  0668               	xorwf	(_Counter)^080h,w
  2764  02F4  0469               	iorwf	(_Counter+1)^080h,w
  2765  02F5  1D03               	skipz
  2766  02F6  2AF8               	goto	u5461
  2767  02F7  2AF9               	goto	u5460
  2768  02F8                     u5461:
  2769  02F8  2823               	goto	l7351
  2770  02F9                     u5460:
  2771                           	line	90
  2772                           	
  2773  02F9                     l7403:	
  2774                           ;Code.c: 90: lcd_goto(64);
  2775  02F9  3040               	movlw	(040h)
  2776  02FA  160A  118A  22FF   	fcall	_lcd_goto
              120A  118A         
  2777                           	line	91
  2778                           	
  2779  02FF                     l7405:	
  2780                           ;Code.c: 91: lcd_puts("         ");
  2781  02FF  305F               	movlw	low((STR_4-__stringbase))
  2782  0300  1283               	bcf	status, 5	;RP0=0, select bank0
  2783  0301  1303               	bcf	status, 6	;RP1=0, select bank0
  2784  0302  00A0               	movwf	(?_lcd_puts)
  2785  0303  3080               	movlw	80h
  2786  0304  00A1               	movwf	(?_lcd_puts+1)
  2787  0305  160A  118A  23FF   	fcall	_lcd_puts
              120A  118A         
  2788                           	line	92
  2789                           	
  2790  030A                     l7407:	
  2791                           ;Code.c: 92: Counter=0;
  2792  030A  1683               	bsf	status, 5	;RP0=1, select bank1
  2793  030B  1303               	bcf	status, 6	;RP1=0, select bank1
  2794  030C  01E8               	clrf	(_Counter)^080h
  2795  030D  01E9               	clrf	(_Counter+1)^080h
  2796  030E  2823               	goto	l7351
  2797                           	line	93
  2798                           	
  2799  030F                     l725:	
  2800                           	line	99
  2801                           ;Code.c: 93: }
  2802                           ;Code.c: 99: }
  2803  030F  2823               	goto	l7351
  2804                           	line	101
  2805                           	
  2806  0310                     l723:	
  2807                           	
  2808  0310                     l7409:	
  2809                           ;Code.c: 101: else if(avg>50 && avg<61){
  2810  0310  3000               	movlw	0x0
  2811  0311  1283               	bcf	status, 5	;RP0=0, select bank0
  2812  0312  1303               	bcf	status, 6	;RP1=0, select bank0
  2813  0313  00A0               	movwf	(?___ftge)
  2814  0314  3048               	movlw	0x48
  2815  0315  00A1               	movwf	(?___ftge+1)
  2816  0316  3042               	movlw	0x42
  2817  0317  00A2               	movwf	(?___ftge+2)
  2818  0318  1683               	bsf	status, 5	;RP0=1, select bank1
  2819  0319  1303               	bcf	status, 6	;RP1=0, select bank1
  2820  031A  0856               	movf	(_avg)^080h,w
  2821  031B  1283               	bcf	status, 5	;RP0=0, select bank0
  2822  031C  1303               	bcf	status, 6	;RP1=0, select bank0
  2823  031D  00A3               	movwf	0+(?___ftge)+03h
  2824  031E  1683               	bsf	status, 5	;RP0=1, select bank1
  2825  031F  1303               	bcf	status, 6	;RP1=0, select bank1
  2826  0320  0857               	movf	(_avg+1)^080h,w
  2827  0321  1283               	bcf	status, 5	;RP0=0, select bank0
  2828  0322  1303               	bcf	status, 6	;RP1=0, select bank0
  2829  0323  00A4               	movwf	1+(?___ftge)+03h
  2830  0324  1683               	bsf	status, 5	;RP0=1, select bank1
  2831  0325  1303               	bcf	status, 6	;RP1=0, select bank1
  2832  0326  0858               	movf	(_avg+2)^080h,w
  2833  0327  1283               	bcf	status, 5	;RP0=0, select bank0
  2834  0328  1303               	bcf	status, 6	;RP1=0, select bank0
  2835  0329  00A5               	movwf	2+(?___ftge)+03h
  2836  032A  160A  118A  2696   	fcall	___ftge
              120A  118A         
  2837  032F  1803               	btfsc	status,0
  2838  0330  2B32               	goto	u5471
  2839  0331  2B33               	goto	u5470
  2840  0332                     u5471:
  2841  0332  2B7C               	goto	l7419
  2842  0333                     u5470:
  2843                           	
  2844  0333                     l7411:	
  2845  0333  1683               	bsf	status, 5	;RP0=1, select bank1
  2846  0334  1303               	bcf	status, 6	;RP1=0, select bank1
  2847  0335  0856               	movf	(_avg)^080h,w
  2848  0336  1283               	bcf	status, 5	;RP0=0, select bank0
  2849  0337  1303               	bcf	status, 6	;RP1=0, select bank0
  2850  0338  00A0               	movwf	(?___ftge)
  2851  0339  1683               	bsf	status, 5	;RP0=1, select bank1
  2852  033A  1303               	bcf	status, 6	;RP1=0, select bank1
  2853  033B  0857               	movf	(_avg+1)^080h,w
  2854  033C  1283               	bcf	status, 5	;RP0=0, select bank0
  2855  033D  1303               	bcf	status, 6	;RP1=0, select bank0
  2856  033E  00A1               	movwf	(?___ftge+1)
  2857  033F  1683               	bsf	status, 5	;RP0=1, select bank1
  2858  0340  1303               	bcf	status, 6	;RP1=0, select bank1
  2859  0341  0858               	movf	(_avg+2)^080h,w
  2860  0342  1283               	bcf	status, 5	;RP0=0, select bank0
  2861  0343  1303               	bcf	status, 6	;RP1=0, select bank0
  2862  0344  00A2               	movwf	(?___ftge+2)
  2863  0345  3000               	movlw	0x0
  2864  0346  00A3               	movwf	0+(?___ftge)+03h
  2865  0347  3074               	movlw	0x74
  2866  0348  00A4               	movwf	1+(?___ftge)+03h
  2867  0349  3042               	movlw	0x42
  2868  034A  00A5               	movwf	2+(?___ftge)+03h
  2869  034B  160A  118A  2696   	fcall	___ftge
              120A  118A         
  2870  0350  1803               	btfsc	status,0
  2871  0351  2B53               	goto	u5481
  2872  0352  2B54               	goto	u5480
  2873  0353                     u5481:
  2874  0353  2B7C               	goto	l7419
  2875  0354                     u5480:
  2876                           	line	102
  2877                           	
  2878  0354                     l7413:	
  2879                           ;Code.c: 102: lcd_goto(0);
  2880  0354  3000               	movlw	(0)
  2881  0355  160A  118A  22FF   	fcall	_lcd_goto
              120A  118A         
  2882                           	line	103
  2883                           ;Code.c: 103: lcd_clear();
  2884  035A  160A  118A  2319   	fcall	_lcd_clear
              120A  118A         
  2885                           	line	104
  2886                           	
  2887  035F                     l7415:	
  2888                           ;Code.c: 104: lcd_puts("Danger");
  2889  035F  3058               	movlw	low((STR_5-__stringbase))
  2890  0360  1283               	bcf	status, 5	;RP0=0, select bank0
  2891  0361  1303               	bcf	status, 6	;RP1=0, select bank0
  2892  0362  00A0               	movwf	(?_lcd_puts)
  2893  0363  3080               	movlw	80h
  2894  0364  00A1               	movwf	(?_lcd_puts+1)
  2895  0365  160A  118A  23FF   	fcall	_lcd_puts
              120A  118A         
  2896                           	line	105
  2897                           	
  2898  036A                     l7417:	
  2899                           ;Code.c: 105: lcd_goto(64);
  2900  036A  3040               	movlw	(040h)
  2901  036B  160A  118A  22FF   	fcall	_lcd_goto
              120A  118A         
  2902                           	line	106
  2903                           ;Code.c: 106: lcd_puts(str);
  2904  0370  3090               	movlw	(_str&0ffh)
  2905  0371  1283               	bcf	status, 5	;RP0=0, select bank0
  2906  0372  1303               	bcf	status, 6	;RP1=0, select bank0
  2907  0373  00A0               	movwf	(?_lcd_puts)
  2908  0374  3001               	movlw	(0x3/2)
  2909  0375  00A1               	movwf	(?_lcd_puts+1)
  2910  0376  160A  118A  23FF   	fcall	_lcd_puts
              120A  118A         
  2911                           	line	108
  2912                           ;Code.c: 108: }
  2913  037B  2823               	goto	l7351
  2914                           	line	110
  2915                           	
  2916  037C                     l727:	
  2917                           	
  2918  037C                     l7419:	
  2919                           ;Code.c: 110: else if(avg>70){
  2920  037C  3000               	movlw	0x0
  2921  037D  1283               	bcf	status, 5	;RP0=0, select bank0
  2922  037E  1303               	bcf	status, 6	;RP1=0, select bank0
  2923  037F  00A0               	movwf	(?___ftge)
  2924  0380  308C               	movlw	0x8c
  2925  0381  00A1               	movwf	(?___ftge+1)
  2926  0382  3042               	movlw	0x42
  2927  0383  00A2               	movwf	(?___ftge+2)
  2928  0384  1683               	bsf	status, 5	;RP0=1, select bank1
  2929  0385  1303               	bcf	status, 6	;RP1=0, select bank1
  2930  0386  0856               	movf	(_avg)^080h,w
  2931  0387  1283               	bcf	status, 5	;RP0=0, select bank0
  2932  0388  1303               	bcf	status, 6	;RP1=0, select bank0
  2933  0389  00A3               	movwf	0+(?___ftge)+03h
  2934  038A  1683               	bsf	status, 5	;RP0=1, select bank1
  2935  038B  1303               	bcf	status, 6	;RP1=0, select bank1
  2936  038C  0857               	movf	(_avg+1)^080h,w
  2937  038D  1283               	bcf	status, 5	;RP0=0, select bank0
  2938  038E  1303               	bcf	status, 6	;RP1=0, select bank0
  2939  038F  00A4               	movwf	1+(?___ftge)+03h
  2940  0390  1683               	bsf	status, 5	;RP0=1, select bank1
  2941  0391  1303               	bcf	status, 6	;RP1=0, select bank1
  2942  0392  0858               	movf	(_avg+2)^080h,w
  2943  0393  1283               	bcf	status, 5	;RP0=0, select bank0
  2944  0394  1303               	bcf	status, 6	;RP1=0, select bank0
  2945  0395  00A5               	movwf	2+(?___ftge)+03h
  2946  0396  160A  118A  2696   	fcall	___ftge
              120A  118A         
  2947  039B  1803               	btfsc	status,0
  2948  039C  2B9E               	goto	u5491
  2949  039D  2B9F               	goto	u5490
  2950  039E                     u5491:
  2951  039E  2823               	goto	l7351
  2952  039F                     u5490:
  2953                           	line	111
  2954                           	
  2955  039F                     l7421:	
  2956                           ;Code.c: 111: lcd_goto(0);
  2957  039F  3000               	movlw	(0)
  2958  03A0  160A  118A  22FF   	fcall	_lcd_goto
              120A  118A         
  2959                           	line	112
  2960                           ;Code.c: 112: lcd_clear();
  2961  03A5  160A  118A  2319   	fcall	_lcd_clear
              120A  118A         
  2962                           	line	113
  2963                           	
  2964  03AA                     l7423:	
  2965                           ;Code.c: 113: lcd_puts("High Danger");
  2966  03AA  3053               	movlw	low((STR_6-__stringbase))
  2967  03AB  1283               	bcf	status, 5	;RP0=0, select bank0
  2968  03AC  1303               	bcf	status, 6	;RP1=0, select bank0
  2969  03AD  00A0               	movwf	(?_lcd_puts)
  2970  03AE  3080               	movlw	80h
  2971  03AF  00A1               	movwf	(?_lcd_puts+1)
  2972  03B0  160A  118A  23FF   	fcall	_lcd_puts
              120A  118A         
  2973                           	line	114
  2974                           	
  2975  03B5                     l7425:	
  2976                           ;Code.c: 114: lcd_goto(64);
  2977  03B5  3040               	movlw	(040h)
  2978  03B6  160A  118A  22FF   	fcall	_lcd_goto
              120A  118A         
  2979                           	line	115
  2980                           ;Code.c: 115: lcd_puts(str);
  2981  03BB  3090               	movlw	(_str&0ffh)
  2982  03BC  1283               	bcf	status, 5	;RP0=0, select bank0
  2983  03BD  1303               	bcf	status, 6	;RP1=0, select bank0
  2984  03BE  00A0               	movwf	(?_lcd_puts)
  2985  03BF  3001               	movlw	(0x3/2)
  2986  03C0  00A1               	movwf	(?_lcd_puts+1)
  2987  03C1  160A  118A  23FF   	fcall	_lcd_puts
              120A  118A         
  2988  03C6  2823               	goto	l7351
  2989                           	line	117
  2990                           	
  2991  03C7                     l729:	
  2992  03C7  2823               	goto	l7351
  2993                           	line	122
  2994                           	
  2995  03C8                     l728:	
  2996  03C8  2823               	goto	l7351
  2997                           	
  2998  03C9                     l726:	
  2999  03C9  2823               	goto	l7351
  3000                           	
  3001  03CA                     l722:	
  3002  03CA  2823               	goto	l7351
  3003                           	
  3004  03CB                     l730:	
  3005                           	line	48
  3006  03CB  2823               	goto	l7351
  3007                           	
  3008  03CC                     l731:	
  3009                           	line	123
  3010                           	
  3011  03CC                     l732:	
  3012                           	global	start
  3013  03CC  120A  118A  2812   	ljmp	start
  3014                           	opt stack 0
  3015                           GLOBAL	__end_of_main
  3016  03CF                     	__end_of_main:
  3017 ;; =============== function _main ends ============
  3018                           
  3019                           	signat	_main,88
  3020                           	global	_ftoa
  3021                           psect	text1243,local,class=CODE,delta=2
  3022                           global __ptext1243
  3023  0D7A                     __ptext1243:
  3024                           
  3025 ;; *************** function _ftoa *****************
  3026 ;; Defined at:
  3027 ;;		line 44 in file "C:\Users\USER\OneDrive\Desktop\Studying\Midterm\string.c"
  3028 ;; Parameters:    Size  Location     Type
  3029 ;;  n               3   29[BANK1 ] float 
  3030 ;;  res             1   32[BANK1 ] PTR unsigned char 
  3031 ;;		 -> str(10), 
  3032 ;;  afterpoint      2   33[BANK1 ] int 
  3033 ;; Auto vars:     Size  Location     Type
  3034 ;;  fpart           3   44[BANK1 ] float 
  3035 ;;  i               2   42[BANK1 ] int 
  3036 ;;  ipart           2   40[BANK1 ] int 
  3037 ;; Return value:  Size  Location     Type
  3038 ;;		None               void
  3039 ;; Registers used:
  3040 ;;		wreg, fsr0l, fsr0h, status,2, status,0, btemp+1, pclath, cstack
  3041 ;; Tracked objects:
  3042 ;;		On entry : 0/0
  3043 ;;		On exit  : 0/0
  3044 ;;		Unchanged: 0/0
  3045 ;; Data sizes:     COMMON   BANK0   BANK1   BANK3   BANK2
  3046 ;;      Params:         0       0       6       0       0
  3047 ;;      Locals:         0       0      10       0       0
  3048 ;;      Temps:          0       0       2       0       0
  3049 ;;      Totals:         0       0      18       0       0
  3050 ;;Total ram usage:       18 bytes
  3051 ;; Hardware stack levels used:    1
  3052 ;; Hardware stack levels required when called:    6
  3053 ;; This function calls:
  3054 ;;		___fttol
  3055 ;;		___awtoft
  3056 ;;		___ftneg
  3057 ;;		___ftadd
  3058 ;;		_intToStr
  3059 ;;		_pow
  3060 ;;		___ftmul
  3061 ;; This function is called by:
  3062 ;;		_main
  3063 ;; This function uses a non-reentrant model
  3064 ;;
  3065                           psect	text1243
  3066                           	file	"C:\Users\USER\OneDrive\Desktop\Studying\Midterm\string.c"
  3067                           	line	44
  3068                           	global	__size_of_ftoa
  3069  0140                     	__size_of_ftoa	equ	__end_of_ftoa-_ftoa
  3070                           	
  3071  0D7A                     _ftoa:	
  3072                           	opt	stack 1
  3073                           ; Regs used in _ftoa: [wreg-fsr0h+status,2+status,0+btemp+1+pclath+cstack]
  3074                           	line	46
  3075                           	
  3076  0D7A                     l7331:	
  3077                           ;string.c: 46: int ipart = (int)n;
  3078  0D7A  1683               	bsf	status, 5	;RP0=1, select bank1
  3079  0D7B  1303               	bcf	status, 6	;RP1=0, select bank1
  3080  0D7C  083D               	movf	(ftoa@n)^080h,w
  3081  0D7D  00F4               	movwf	(?___fttol)
  3082  0D7E  083E               	movf	(ftoa@n+1)^080h,w
  3083  0D7F  00F5               	movwf	(?___fttol+1)
  3084  0D80  083F               	movf	(ftoa@n+2)^080h,w
  3085  0D81  00F6               	movwf	(?___fttol+2)
  3086  0D82  120A  118A  2759   	fcall	___fttol
              120A  158A         
  3087  0D87  0875               	movf	1+(((0+(?___fttol)))),w
  3088  0D88  1683               	bsf	status, 5	;RP0=1, select bank1
  3089  0D89  1303               	bcf	status, 6	;RP1=0, select bank1
  3090  0D8A  01C9               	clrf	(ftoa@ipart+1)^080h
  3091  0D8B  07C9               	addwf	(ftoa@ipart+1)^080h
  3092  0D8C  0874               	movf	0+(((0+(?___fttol)))),w
  3093  0D8D  01C8               	clrf	(ftoa@ipart)^080h
  3094  0D8E  07C8               	addwf	(ftoa@ipart)^080h
  3095                           
  3096                           	line	49
  3097                           ;string.c: 49: float fpart = n - (float)ipart;
  3098  0D8F  083D               	movf	(ftoa@n)^080h,w
  3099  0D90  1283               	bcf	status, 5	;RP0=0, select bank0
  3100  0D91  1303               	bcf	status, 6	;RP1=0, select bank0
  3101  0D92  00AD               	movwf	(?___ftadd)
  3102  0D93  1683               	bsf	status, 5	;RP0=1, select bank1
  3103  0D94  1303               	bcf	status, 6	;RP1=0, select bank1
  3104  0D95  083E               	movf	(ftoa@n+1)^080h,w
  3105  0D96  1283               	bcf	status, 5	;RP0=0, select bank0
  3106  0D97  1303               	bcf	status, 6	;RP1=0, select bank0
  3107  0D98  00AE               	movwf	(?___ftadd+1)
  3108  0D99  1683               	bsf	status, 5	;RP0=1, select bank1
  3109  0D9A  1303               	bcf	status, 6	;RP1=0, select bank1
  3110  0D9B  083F               	movf	(ftoa@n+2)^080h,w
  3111  0D9C  1283               	bcf	status, 5	;RP0=0, select bank0
  3112  0D9D  1303               	bcf	status, 6	;RP1=0, select bank0
  3113  0D9E  00AF               	movwf	(?___ftadd+2)
  3114  0D9F  1683               	bsf	status, 5	;RP0=1, select bank1
  3115  0DA0  1303               	bcf	status, 6	;RP1=0, select bank1
  3116  0DA1  0849               	movf	(ftoa@ipart+1)^080h,w
  3117  0DA2  1283               	bcf	status, 5	;RP0=0, select bank0
  3118  0DA3  1303               	bcf	status, 6	;RP1=0, select bank0
  3119  0DA4  01A9               	clrf	(?___awtoft+1)
  3120  0DA5  07A9               	addwf	(?___awtoft+1)
  3121  0DA6  1683               	bsf	status, 5	;RP0=1, select bank1
  3122  0DA7  1303               	bcf	status, 6	;RP1=0, select bank1
  3123  0DA8  0848               	movf	(ftoa@ipart)^080h,w
  3124  0DA9  1283               	bcf	status, 5	;RP0=0, select bank0
  3125  0DAA  1303               	bcf	status, 6	;RP1=0, select bank0
  3126  0DAB  01A8               	clrf	(?___awtoft)
  3127  0DAC  07A8               	addwf	(?___awtoft)
  3128                           
  3129  0DAD  160A  118A  242A   	fcall	___awtoft
              120A  158A         
  3130  0DB2  1283               	bcf	status, 5	;RP0=0, select bank0
  3131  0DB3  1303               	bcf	status, 6	;RP1=0, select bank0
  3132  0DB4  0828               	movf	(0+(?___awtoft)),w
  3133  0DB5  00A5               	movwf	(?___ftneg)
  3134  0DB6  0829               	movf	(1+(?___awtoft)),w
  3135  0DB7  00A6               	movwf	(?___ftneg+1)
  3136  0DB8  082A               	movf	(2+(?___awtoft)),w
  3137  0DB9  00A7               	movwf	(?___ftneg+2)
  3138  0DBA  160A  118A  230B   	fcall	___ftneg
              120A  158A         
  3139  0DBF  1283               	bcf	status, 5	;RP0=0, select bank0
  3140  0DC0  1303               	bcf	status, 6	;RP1=0, select bank0
  3141  0DC1  0825               	movf	(0+(?___ftneg)),w
  3142  0DC2  00B0               	movwf	0+(?___ftadd)+03h
  3143  0DC3  0826               	movf	(1+(?___ftneg)),w
  3144  0DC4  00B1               	movwf	1+(?___ftadd)+03h
  3145  0DC5  0827               	movf	(2+(?___ftneg)),w
  3146  0DC6  00B2               	movwf	2+(?___ftadd)+03h
  3147  0DC7  120A  158A  26BA   	fcall	___ftadd
              120A  158A         
  3148  0DCC  1283               	bcf	status, 5	;RP0=0, select bank0
  3149  0DCD  1303               	bcf	status, 6	;RP1=0, select bank0
  3150  0DCE  082D               	movf	(0+(?___ftadd)),w
  3151  0DCF  1683               	bsf	status, 5	;RP0=1, select bank1
  3152  0DD0  1303               	bcf	status, 6	;RP1=0, select bank1
  3153  0DD1  00CC               	movwf	(ftoa@fpart)^080h
  3154  0DD2  1283               	bcf	status, 5	;RP0=0, select bank0
  3155  0DD3  1303               	bcf	status, 6	;RP1=0, select bank0
  3156  0DD4  082E               	movf	(1+(?___ftadd)),w
  3157  0DD5  1683               	bsf	status, 5	;RP0=1, select bank1
  3158  0DD6  1303               	bcf	status, 6	;RP1=0, select bank1
  3159  0DD7  00CD               	movwf	(ftoa@fpart+1)^080h
  3160  0DD8  1283               	bcf	status, 5	;RP0=0, select bank0
  3161  0DD9  1303               	bcf	status, 6	;RP1=0, select bank0
  3162  0DDA  082F               	movf	(2+(?___ftadd)),w
  3163  0DDB  1683               	bsf	status, 5	;RP0=1, select bank1
  3164  0DDC  1303               	bcf	status, 6	;RP1=0, select bank1
  3165  0DDD  00CE               	movwf	(ftoa@fpart+2)^080h
  3166                           	line	52
  3167                           	
  3168  0DDE                     l7333:	
  3169                           ;string.c: 52: int i = intToStr(ipart, res, 0);
  3170  0DDE  0849               	movf	(ftoa@ipart+1)^080h,w
  3171  0DDF  1283               	bcf	status, 5	;RP0=0, select bank0
  3172  0DE0  1303               	bcf	status, 6	;RP1=0, select bank0
  3173  0DE1  01AB               	clrf	(?_intToStr+1)
  3174  0DE2  07AB               	addwf	(?_intToStr+1)
  3175  0DE3  1683               	bsf	status, 5	;RP0=1, select bank1
  3176  0DE4  1303               	bcf	status, 6	;RP1=0, select bank1
  3177  0DE5  0848               	movf	(ftoa@ipart)^080h,w
  3178  0DE6  1283               	bcf	status, 5	;RP0=0, select bank0
  3179  0DE7  1303               	bcf	status, 6	;RP1=0, select bank0
  3180  0DE8  01AA               	clrf	(?_intToStr)
  3181  0DE9  07AA               	addwf	(?_intToStr)
  3182                           
  3183  0DEA  1683               	bsf	status, 5	;RP0=1, select bank1
  3184  0DEB  1303               	bcf	status, 6	;RP1=0, select bank1
  3185  0DEC  0840               	movf	(ftoa@res)^080h,w
  3186  0DED  00C3               	movwf	(??_ftoa+0)^080h+0
  3187  0DEE  0843               	movf	(??_ftoa+0)^080h+0,w
  3188  0DEF  1283               	bcf	status, 5	;RP0=0, select bank0
  3189  0DF0  1303               	bcf	status, 6	;RP1=0, select bank0
  3190  0DF1  00AC               	movwf	(0+?_intToStr+02h)
  3191  0DF2  3000               	movlw	low(0)
  3192  0DF3  00AD               	movwf	0+(?_intToStr)+03h
  3193  0DF4  3000               	movlw	high(0)
  3194  0DF5  00AE               	movwf	(0+(?_intToStr)+03h)+1
  3195  0DF6  120A  158A  20BD   	fcall	_intToStr
              120A  158A         
  3196  0DFB  1283               	bcf	status, 5	;RP0=0, select bank0
  3197  0DFC  1303               	bcf	status, 6	;RP1=0, select bank0
  3198  0DFD  082B               	movf	(1+(?_intToStr)),w
  3199  0DFE  1683               	bsf	status, 5	;RP0=1, select bank1
  3200  0DFF  1303               	bcf	status, 6	;RP1=0, select bank1
  3201  0E00  01CB               	clrf	(ftoa@i+1)^080h
  3202  0E01  07CB               	addwf	(ftoa@i+1)^080h
  3203  0E02  1283               	bcf	status, 5	;RP0=0, select bank0
  3204  0E03  1303               	bcf	status, 6	;RP1=0, select bank0
  3205  0E04  082A               	movf	(0+(?_intToStr)),w
  3206  0E05  1683               	bsf	status, 5	;RP0=1, select bank1
  3207  0E06  1303               	bcf	status, 6	;RP1=0, select bank1
  3208  0E07  01CA               	clrf	(ftoa@i)^080h
  3209  0E08  07CA               	addwf	(ftoa@i)^080h
  3210                           
  3211                           	line	55
  3212                           	
  3213  0E09                     l7335:	
  3214                           ;string.c: 55: if (afterpoint != 0)
  3215  0E09  0842               	movf	(ftoa@afterpoint+1)^080h,w
  3216  0E0A  0441               	iorwf	(ftoa@afterpoint)^080h,w
  3217  0E0B  1903               	skipnz
  3218  0E0C  2E0E               	goto	u5411
  3219  0E0D  2E0F               	goto	u5410
  3220  0E0E                     u5411:
  3221  0E0E  2EB9               	goto	l2175
  3222  0E0F                     u5410:
  3223                           	line	57
  3224                           	
  3225  0E0F                     l7337:	
  3226                           ;string.c: 56: {
  3227                           ;string.c: 57: res[i] = '.';
  3228  0E0F  302E               	movlw	(02Eh)
  3229  0E10  00C3               	movwf	(??_ftoa+0)^080h+0
  3230  0E11  084A               	movf	(ftoa@i)^080h,w
  3231  0E12  0740               	addwf	(ftoa@res)^080h,w
  3232  0E13  00C4               	movwf	(??_ftoa+1)^080h+0
  3233  0E14  0844               	movf	0+(??_ftoa+1)^080h+0,w
  3234  0E15  0084               	movwf	fsr0
  3235  0E16  0843               	movf	(??_ftoa+0)^080h+0,w
  3236  0E17  1783               	bsf	status, 7	;select IRP bank2
  3237  0E18  0080               	movwf	indf
  3238                           	line	62
  3239                           	
  3240  0E19                     l7339:	
  3241                           ;string.c: 62: fpart = fpart * pow(10, afterpoint);
  3242  0E19  0842               	movf	(ftoa@afterpoint+1)^080h,w
  3243  0E1A  1283               	bcf	status, 5	;RP0=0, select bank0
  3244  0E1B  1303               	bcf	status, 6	;RP1=0, select bank0
  3245  0E1C  01A9               	clrf	(?___awtoft+1)
  3246  0E1D  07A9               	addwf	(?___awtoft+1)
  3247  0E1E  1683               	bsf	status, 5	;RP0=1, select bank1
  3248  0E1F  1303               	bcf	status, 6	;RP1=0, select bank1
  3249  0E20  0841               	movf	(ftoa@afterpoint)^080h,w
  3250  0E21  1283               	bcf	status, 5	;RP0=0, select bank0
  3251  0E22  1303               	bcf	status, 6	;RP1=0, select bank0
  3252  0E23  01A8               	clrf	(?___awtoft)
  3253  0E24  07A8               	addwf	(?___awtoft)
  3254                           
  3255  0E25  160A  118A  242A   	fcall	___awtoft
              120A  158A         
  3256  0E2A  1283               	bcf	status, 5	;RP0=0, select bank0
  3257  0E2B  1303               	bcf	status, 6	;RP1=0, select bank0
  3258  0E2C  0828               	movf	(0+(?___awtoft)),w
  3259  0E2D  1683               	bsf	status, 5	;RP0=1, select bank1
  3260  0E2E  1303               	bcf	status, 6	;RP1=0, select bank1
  3261  0E2F  00B1               	movwf	0+(?_pow)^080h+03h
  3262  0E30  1283               	bcf	status, 5	;RP0=0, select bank0
  3263  0E31  1303               	bcf	status, 6	;RP1=0, select bank0
  3264  0E32  0829               	movf	(1+(?___awtoft)),w
  3265  0E33  1683               	bsf	status, 5	;RP0=1, select bank1
  3266  0E34  1303               	bcf	status, 6	;RP1=0, select bank1
  3267  0E35  00B2               	movwf	1+(?_pow)^080h+03h
  3268  0E36  1283               	bcf	status, 5	;RP0=0, select bank0
  3269  0E37  1303               	bcf	status, 6	;RP1=0, select bank0
  3270  0E38  082A               	movf	(2+(?___awtoft)),w
  3271  0E39  1683               	bsf	status, 5	;RP0=1, select bank1
  3272  0E3A  1303               	bcf	status, 6	;RP1=0, select bank1
  3273  0E3B  00B3               	movwf	2+(?_pow)^080h+03h
  3274  0E3C  3000               	movlw	0x0
  3275  0E3D  00AE               	movwf	(?_pow)^080h
  3276  0E3E  3020               	movlw	0x20
  3277  0E3F  00AF               	movwf	(?_pow+1)^080h
  3278  0E40  3041               	movlw	0x41
  3279  0E41  00B0               	movwf	(?_pow+2)^080h
  3280  0E42  120A  118A  25DE   	fcall	_pow
              120A  158A         
  3281  0E47  1683               	bsf	status, 5	;RP0=1, select bank1
  3282  0E48  1303               	bcf	status, 6	;RP1=0, select bank1
  3283  0E49  082E               	movf	(0+(?_pow))^080h,w
  3284  0E4A  00C5               	movwf	(_ftoa$3829)^080h
  3285  0E4B  082F               	movf	(1+(?_pow))^080h,w
  3286  0E4C  00C6               	movwf	(_ftoa$3829+1)^080h
  3287  0E4D  0830               	movf	(2+(?_pow))^080h,w
  3288  0E4E  00C7               	movwf	(_ftoa$3829+2)^080h
  3289                           	
  3290  0E4F                     l7341:	
  3291                           ;string.c: 62: fpart = fpart * pow(10, afterpoint);
  3292  0E4F  084C               	movf	(ftoa@fpart)^080h,w
  3293  0E50  1283               	bcf	status, 5	;RP0=0, select bank0
  3294  0E51  1303               	bcf	status, 6	;RP1=0, select bank0
  3295  0E52  00CA               	movwf	(?___ftmul)
  3296  0E53  1683               	bsf	status, 5	;RP0=1, select bank1
  3297  0E54  1303               	bcf	status, 6	;RP1=0, select bank1
  3298  0E55  084D               	movf	(ftoa@fpart+1)^080h,w
  3299  0E56  1283               	bcf	status, 5	;RP0=0, select bank0
  3300  0E57  1303               	bcf	status, 6	;RP1=0, select bank0
  3301  0E58  00CB               	movwf	(?___ftmul+1)
  3302  0E59  1683               	bsf	status, 5	;RP0=1, select bank1
  3303  0E5A  1303               	bcf	status, 6	;RP1=0, select bank1
  3304  0E5B  084E               	movf	(ftoa@fpart+2)^080h,w
  3305  0E5C  1283               	bcf	status, 5	;RP0=0, select bank0
  3306  0E5D  1303               	bcf	status, 6	;RP1=0, select bank0
  3307  0E5E  00CC               	movwf	(?___ftmul+2)
  3308  0E5F  1683               	bsf	status, 5	;RP0=1, select bank1
  3309  0E60  1303               	bcf	status, 6	;RP1=0, select bank1
  3310  0E61  0845               	movf	(_ftoa$3829)^080h,w
  3311  0E62  1283               	bcf	status, 5	;RP0=0, select bank0
  3312  0E63  1303               	bcf	status, 6	;RP1=0, select bank0
  3313  0E64  00CD               	movwf	0+(?___ftmul)+03h
  3314  0E65  1683               	bsf	status, 5	;RP0=1, select bank1
  3315  0E66  1303               	bcf	status, 6	;RP1=0, select bank1
  3316  0E67  0846               	movf	(_ftoa$3829+1)^080h,w
  3317  0E68  1283               	bcf	status, 5	;RP0=0, select bank0
  3318  0E69  1303               	bcf	status, 6	;RP1=0, select bank0
  3319  0E6A  00CE               	movwf	1+(?___ftmul)+03h
  3320  0E6B  1683               	bsf	status, 5	;RP0=1, select bank1
  3321  0E6C  1303               	bcf	status, 6	;RP1=0, select bank1
  3322  0E6D  0847               	movf	(_ftoa$3829+2)^080h,w
  3323  0E6E  1283               	bcf	status, 5	;RP0=0, select bank0
  3324  0E6F  1303               	bcf	status, 6	;RP1=0, select bank0
  3325  0E70  00CF               	movwf	2+(?___ftmul)+03h
  3326  0E71  120A  158A  2371   	fcall	___ftmul
              120A  158A         
  3327  0E76  1283               	bcf	status, 5	;RP0=0, select bank0
  3328  0E77  1303               	bcf	status, 6	;RP1=0, select bank0
  3329  0E78  084A               	movf	(0+(?___ftmul)),w
  3330  0E79  1683               	bsf	status, 5	;RP0=1, select bank1
  3331  0E7A  1303               	bcf	status, 6	;RP1=0, select bank1
  3332  0E7B  00CC               	movwf	(ftoa@fpart)^080h
  3333  0E7C  1283               	bcf	status, 5	;RP0=0, select bank0
  3334  0E7D  1303               	bcf	status, 6	;RP1=0, select bank0
  3335  0E7E  084B               	movf	(1+(?___ftmul)),w
  3336  0E7F  1683               	bsf	status, 5	;RP0=1, select bank1
  3337  0E80  1303               	bcf	status, 6	;RP1=0, select bank1
  3338  0E81  00CD               	movwf	(ftoa@fpart+1)^080h
  3339  0E82  1283               	bcf	status, 5	;RP0=0, select bank0
  3340  0E83  1303               	bcf	status, 6	;RP1=0, select bank0
  3341  0E84  084C               	movf	(2+(?___ftmul)),w
  3342  0E85  1683               	bsf	status, 5	;RP0=1, select bank1
  3343  0E86  1303               	bcf	status, 6	;RP1=0, select bank1
  3344  0E87  00CE               	movwf	(ftoa@fpart+2)^080h
  3345                           	line	64
  3346                           	
  3347  0E88                     l7343:	
  3348                           ;string.c: 64: intToStr((int)fpart, res + i + 1, afterpoint);
  3349  0E88  084C               	movf	(ftoa@fpart)^080h,w
  3350  0E89  00F4               	movwf	(?___fttol)
  3351  0E8A  084D               	movf	(ftoa@fpart+1)^080h,w
  3352  0E8B  00F5               	movwf	(?___fttol+1)
  3353  0E8C  084E               	movf	(ftoa@fpart+2)^080h,w
  3354  0E8D  00F6               	movwf	(?___fttol+2)
  3355  0E8E  120A  118A  2759   	fcall	___fttol
              120A  158A         
  3356  0E93  0875               	movf	1+(((0+(?___fttol)))),w
  3357  0E94  1283               	bcf	status, 5	;RP0=0, select bank0
  3358  0E95  1303               	bcf	status, 6	;RP1=0, select bank0
  3359  0E96  01AB               	clrf	(?_intToStr+1)
  3360  0E97  07AB               	addwf	(?_intToStr+1)
  3361  0E98  0874               	movf	0+(((0+(?___fttol)))),w
  3362  0E99  01AA               	clrf	(?_intToStr)
  3363  0E9A  07AA               	addwf	(?_intToStr)
  3364                           
  3365  0E9B  1683               	bsf	status, 5	;RP0=1, select bank1
  3366  0E9C  1303               	bcf	status, 6	;RP1=0, select bank1
  3367  0E9D  084A               	movf	(ftoa@i)^080h,w
  3368  0E9E  0740               	addwf	(ftoa@res)^080h,w
  3369  0E9F  3E01               	addlw	01h
  3370  0EA0  00C3               	movwf	(??_ftoa+0)^080h+0
  3371  0EA1  0843               	movf	(??_ftoa+0)^080h+0,w
  3372  0EA2  1283               	bcf	status, 5	;RP0=0, select bank0
  3373  0EA3  1303               	bcf	status, 6	;RP1=0, select bank0
  3374  0EA4  00AC               	movwf	(0+?_intToStr+02h)
  3375  0EA5  1683               	bsf	status, 5	;RP0=1, select bank1
  3376  0EA6  1303               	bcf	status, 6	;RP1=0, select bank1
  3377  0EA7  0842               	movf	(ftoa@afterpoint+1)^080h,w
  3378  0EA8  1283               	bcf	status, 5	;RP0=0, select bank0
  3379  0EA9  1303               	bcf	status, 6	;RP1=0, select bank0
  3380  0EAA  01AE               	clrf	1+(?_intToStr)+03h
  3381  0EAB  07AE               	addwf	1+(?_intToStr)+03h
  3382  0EAC  1683               	bsf	status, 5	;RP0=1, select bank1
  3383  0EAD  1303               	bcf	status, 6	;RP1=0, select bank1
  3384  0EAE  0841               	movf	(ftoa@afterpoint)^080h,w
  3385  0EAF  1283               	bcf	status, 5	;RP0=0, select bank0
  3386  0EB0  1303               	bcf	status, 6	;RP1=0, select bank0
  3387  0EB1  01AD               	clrf	0+(?_intToStr)+03h
  3388  0EB2  07AD               	addwf	0+(?_intToStr)+03h
  3389                           
  3390  0EB3  120A  158A  20BD   	fcall	_intToStr
              120A  158A         
  3391  0EB8  2EB9               	goto	l2175
  3392                           	line	65
  3393                           	
  3394  0EB9                     l2174:	
  3395                           	line	66
  3396                           	
  3397  0EB9                     l2175:	
  3398  0EB9  0008               	return
  3399                           	opt stack 0
  3400                           GLOBAL	__end_of_ftoa
  3401  0EBA                     	__end_of_ftoa:
  3402 ;; =============== function _ftoa ends ============
  3403                           
  3404                           	signat	_ftoa,12408
  3405                           	global	_pow
  3406                           psect	text1244,local,class=CODE,delta=2
  3407                           global __ptext1244
  3408  05DE                     __ptext1244:
  3409                           
  3410 ;; *************** function _pow *****************
  3411 ;; Defined at:
  3412 ;;		line 6 in file "C:\Program Files (x86)\HI-TECH Software\PICC\9.83\sources\pow.c"
  3413 ;; Parameters:    Size  Location     Type
  3414 ;;  x               3   14[BANK1 ] int 
  3415 ;;  y               3   17[BANK1 ] int 
  3416 ;; Auto vars:     Size  Location     Type
  3417 ;;  yi              4   25[BANK1 ] unsigned long 
  3418 ;;  sign            1   24[BANK1 ] unsigned char 
  3419 ;; Return value:  Size  Location     Type
  3420 ;;                  3   14[BANK1 ] unsigned char 
  3421 ;; Registers used:
  3422 ;;		wreg, fsr0l, fsr0h, status,2, status,0, btemp+1, pclath, cstack
  3423 ;; Tracked objects:
  3424 ;;		On entry : 0/0
  3425 ;;		On exit  : 0/0
  3426 ;;		Unchanged: 0/0
  3427 ;; Data sizes:     COMMON   BANK0   BANK1   BANK3   BANK2
  3428 ;;      Params:         0       0       6       0       0
  3429 ;;      Locals:         0       0       8       0       0
  3430 ;;      Temps:          0       0       1       0       0
  3431 ;;      Totals:         0       0      15       0       0
  3432 ;;Total ram usage:       15 bytes
  3433 ;; Hardware stack levels used:    1
  3434 ;; Hardware stack levels required when called:    5
  3435 ;; This function calls:
  3436 ;;		___ftge
  3437 ;;		___fttol
  3438 ;;		___lltoft
  3439 ;;		___ftneg
  3440 ;;		_log
  3441 ;;		___ftmul
  3442 ;;		_exp
  3443 ;; This function is called by:
  3444 ;;		_ftoa
  3445 ;; This function uses a non-reentrant model
  3446 ;;
  3447                           psect	text1244
  3448                           	file	"C:\Program Files (x86)\HI-TECH Software\PICC\9.83\sources\pow.c"
  3449                           	line	6
  3450                           	global	__size_of_pow
  3451  017B                     	__size_of_pow	equ	__end_of_pow-_pow
  3452                           	
  3453  05DE                     _pow:	
  3454                           	opt	stack 1
  3455                           ; Regs used in _pow: [wreg-fsr0h+status,2+status,0+btemp+1+pclath+cstack]
  3456                           	line	7
  3457                           	
  3458  05DE                     l7293:	
  3459  05DE  1683               	bsf	status, 5	;RP0=1, select bank1
  3460  05DF  1303               	bcf	status, 6	;RP1=0, select bank1
  3461  05E0  01B8               	clrf	(pow@sign)^080h
  3462                           	line	10
  3463                           	
  3464  05E1                     l7295:	
  3465  05E1  0830               	movf	(pow@x+2)^080h,w
  3466  05E2  042F               	iorwf	(pow@x+1)^080h,w
  3467  05E3  042E               	iorwf	(pow@x)^080h,w
  3468  05E4  1D03               	skipz
  3469  05E5  2DE7               	goto	u5351
  3470  05E6  2DE8               	goto	u5350
  3471  05E7                     u5351:
  3472  05E7  2E19               	goto	l7303
  3473  05E8                     u5350:
  3474                           	line	11
  3475                           	
  3476  05E8                     l7297:	
  3477  05E8  3000               	movlw	0x0
  3478  05E9  1283               	bcf	status, 5	;RP0=0, select bank0
  3479  05EA  1303               	bcf	status, 6	;RP1=0, select bank0
  3480  05EB  00A0               	movwf	(?___ftge)
  3481  05EC  3000               	movlw	0x0
  3482  05ED  00A1               	movwf	(?___ftge+1)
  3483  05EE  3000               	movlw	0x0
  3484  05EF  00A2               	movwf	(?___ftge+2)
  3485  05F0  1683               	bsf	status, 5	;RP0=1, select bank1
  3486  05F1  1303               	bcf	status, 6	;RP1=0, select bank1
  3487  05F2  0831               	movf	(pow@y)^080h,w
  3488  05F3  1283               	bcf	status, 5	;RP0=0, select bank0
  3489  05F4  1303               	bcf	status, 6	;RP1=0, select bank0
  3490  05F5  00A3               	movwf	0+(?___ftge)+03h
  3491  05F6  1683               	bsf	status, 5	;RP0=1, select bank1
  3492  05F7  1303               	bcf	status, 6	;RP1=0, select bank1
  3493  05F8  0832               	movf	(pow@y+1)^080h,w
  3494  05F9  1283               	bcf	status, 5	;RP0=0, select bank0
  3495  05FA  1303               	bcf	status, 6	;RP1=0, select bank0
  3496  05FB  00A4               	movwf	1+(?___ftge)+03h
  3497  05FC  1683               	bsf	status, 5	;RP0=1, select bank1
  3498  05FD  1303               	bcf	status, 6	;RP1=0, select bank1
  3499  05FE  0833               	movf	(pow@y+2)^080h,w
  3500  05FF  1283               	bcf	status, 5	;RP0=0, select bank0
  3501  0600  1303               	bcf	status, 6	;RP1=0, select bank0
  3502  0601  00A5               	movwf	2+(?___ftge)+03h
  3503  0602  160A  118A  2696   	fcall	___ftge
              120A  118A         
  3504  0607  1C03               	btfss	status,0
  3505  0608  2E0A               	goto	u5361
  3506  0609  2E0B               	goto	u5360
  3507  060A                     u5361:
  3508  060A  2E0F               	goto	l2859
  3509  060B                     u5360:
  3510                           	line	12
  3511                           	
  3512  060B                     l7299:	
  3513  060B  3021               	movlw	low(021h)
  3514  060C  00F8               	movwf	(_errno)
  3515  060D  3000               	movlw	high(021h)
  3516  060E  00F9               	movwf	((_errno))+1
  3517                           	line	13
  3518                           	
  3519  060F                     l2859:	
  3520                           	line	14
  3521  060F  3000               	movlw	0x0
  3522  0610  1683               	bsf	status, 5	;RP0=1, select bank1
  3523  0611  1303               	bcf	status, 6	;RP1=0, select bank1
  3524  0612  00AE               	movwf	(?_pow)^080h
  3525  0613  3000               	movlw	0x0
  3526  0614  00AF               	movwf	(?_pow+1)^080h
  3527  0615  3000               	movlw	0x0
  3528  0616  00B0               	movwf	(?_pow+2)^080h
  3529  0617  2F58               	goto	l2860
  3530                           	
  3531  0618                     l7301:	
  3532  0618  2F58               	goto	l2860
  3533                           	line	15
  3534                           	
  3535  0619                     l2858:	
  3536                           	line	16
  3537                           	
  3538  0619                     l7303:	
  3539  0619  0833               	movf	(pow@y+2)^080h,w
  3540  061A  0432               	iorwf	(pow@y+1)^080h,w
  3541  061B  0431               	iorwf	(pow@y)^080h,w
  3542  061C  1D03               	skipz
  3543  061D  2E1F               	goto	u5371
  3544  061E  2E20               	goto	u5370
  3545  061F                     u5371:
  3546  061F  2E28               	goto	l7309
  3547  0620                     u5370:
  3548                           	line	17
  3549                           	
  3550  0620                     l7305:	
  3551  0620  3000               	movlw	0x0
  3552  0621  00AE               	movwf	(?_pow)^080h
  3553  0622  3080               	movlw	0x80
  3554  0623  00AF               	movwf	(?_pow+1)^080h
  3555  0624  303F               	movlw	0x3f
  3556  0625  00B0               	movwf	(?_pow+2)^080h
  3557  0626  2F58               	goto	l2860
  3558                           	
  3559  0627                     l7307:	
  3560  0627  2F58               	goto	l2860
  3561                           	
  3562  0628                     l2861:	
  3563                           	line	18
  3564                           	
  3565  0628                     l7309:	
  3566  0628  082E               	movf	(pow@x)^080h,w
  3567  0629  1283               	bcf	status, 5	;RP0=0, select bank0
  3568  062A  1303               	bcf	status, 6	;RP1=0, select bank0
  3569  062B  00A0               	movwf	(?___ftge)
  3570  062C  1683               	bsf	status, 5	;RP0=1, select bank1
  3571  062D  1303               	bcf	status, 6	;RP1=0, select bank1
  3572  062E  082F               	movf	(pow@x+1)^080h,w
  3573  062F  1283               	bcf	status, 5	;RP0=0, select bank0
  3574  0630  1303               	bcf	status, 6	;RP1=0, select bank0
  3575  0631  00A1               	movwf	(?___ftge+1)
  3576  0632  1683               	bsf	status, 5	;RP0=1, select bank1
  3577  0633  1303               	bcf	status, 6	;RP1=0, select bank1
  3578  0634  0830               	movf	(pow@x+2)^080h,w
  3579  0635  1283               	bcf	status, 5	;RP0=0, select bank0
  3580  0636  1303               	bcf	status, 6	;RP1=0, select bank0
  3581  0637  00A2               	movwf	(?___ftge+2)
  3582  0638  3000               	movlw	0x0
  3583  0639  00A3               	movwf	0+(?___ftge)+03h
  3584  063A  3000               	movlw	0x0
  3585  063B  00A4               	movwf	1+(?___ftge)+03h
  3586  063C  3000               	movlw	0x0
  3587  063D  00A5               	movwf	2+(?___ftge)+03h
  3588  063E  160A  118A  2696   	fcall	___ftge
              120A  118A         
  3589  0643  1803               	btfsc	status,0
  3590  0644  2E46               	goto	u5381
  3591  0645  2E47               	goto	u5380
  3592  0646                     u5381:
  3593  0646  2ED0               	goto	l7321
  3594  0647                     u5380:
  3595                           	line	19
  3596                           	
  3597  0647                     l7311:	
  3598  0647  1683               	bsf	status, 5	;RP0=1, select bank1
  3599  0648  1303               	bcf	status, 6	;RP1=0, select bank1
  3600  0649  0831               	movf	(pow@y)^080h,w
  3601  064A  00F4               	movwf	(?___fttol)
  3602  064B  0832               	movf	(pow@y+1)^080h,w
  3603  064C  00F5               	movwf	(?___fttol+1)
  3604  064D  0833               	movf	(pow@y+2)^080h,w
  3605  064E  00F6               	movwf	(?___fttol+2)
  3606  064F  120A  118A  2759   	fcall	___fttol
              120A  118A         
  3607  0654  0877               	movf	(3+(?___fttol)),w
  3608  0655  1683               	bsf	status, 5	;RP0=1, select bank1
  3609  0656  1303               	bcf	status, 6	;RP1=0, select bank1
  3610  0657  00BC               	movwf	(pow@yi+3)^080h
  3611  0658  0876               	movf	(2+(?___fttol)),w
  3612  0659  00BB               	movwf	(pow@yi+2)^080h
  3613  065A  0875               	movf	(1+(?___fttol)),w
  3614  065B  00BA               	movwf	(pow@yi+1)^080h
  3615  065C  0874               	movf	(0+(?___fttol)),w
  3616  065D  00B9               	movwf	(pow@yi)^080h
  3617                           
  3618                           	line	20
  3619  065E  083C               	movf	(pow@yi+3)^080h,w
  3620  065F  1283               	bcf	status, 5	;RP0=0, select bank0
  3621  0660  1303               	bcf	status, 6	;RP1=0, select bank0
  3622  0661  00A8               	movwf	(?___lltoft+3)
  3623  0662  1683               	bsf	status, 5	;RP0=1, select bank1
  3624  0663  1303               	bcf	status, 6	;RP1=0, select bank1
  3625  0664  083B               	movf	(pow@yi+2)^080h,w
  3626  0665  1283               	bcf	status, 5	;RP0=0, select bank0
  3627  0666  1303               	bcf	status, 6	;RP1=0, select bank0
  3628  0667  00A7               	movwf	(?___lltoft+2)
  3629  0668  1683               	bsf	status, 5	;RP0=1, select bank1
  3630  0669  1303               	bcf	status, 6	;RP1=0, select bank1
  3631  066A  083A               	movf	(pow@yi+1)^080h,w
  3632  066B  1283               	bcf	status, 5	;RP0=0, select bank0
  3633  066C  1303               	bcf	status, 6	;RP1=0, select bank0
  3634  066D  00A6               	movwf	(?___lltoft+1)
  3635  066E  1683               	bsf	status, 5	;RP0=1, select bank1
  3636  066F  1303               	bcf	status, 6	;RP1=0, select bank1
  3637  0670  0839               	movf	(pow@yi)^080h,w
  3638  0671  1283               	bcf	status, 5	;RP0=0, select bank0
  3639  0672  1303               	bcf	status, 6	;RP1=0, select bank0
  3640  0673  00A5               	movwf	(?___lltoft)
  3641                           
  3642  0674  160A  118A  2487   	fcall	___lltoft
              120A  118A         
  3643  0679  1683               	bsf	status, 5	;RP0=1, select bank1
  3644  067A  1303               	bcf	status, 6	;RP1=0, select bank1
  3645  067B  0833               	movf	(pow@y+2)^080h,w
  3646  067C  1283               	bcf	status, 5	;RP0=0, select bank0
  3647  067D  1303               	bcf	status, 6	;RP1=0, select bank0
  3648  067E  0627               	xorwf	(2+(?___lltoft)),w
  3649  067F  1D03               	skipz
  3650  0680  2E8F               	goto	u5395
  3651  0681  1683               	bsf	status, 5	;RP0=1, select bank1
  3652  0682  1303               	bcf	status, 6	;RP1=0, select bank1
  3653  0683  0832               	movf	(pow@y+1)^080h,w
  3654  0684  1283               	bcf	status, 5	;RP0=0, select bank0
  3655  0685  1303               	bcf	status, 6	;RP1=0, select bank0
  3656  0686  0626               	xorwf	(1+(?___lltoft)),w
  3657  0687  1D03               	skipz
  3658  0688  2E8F               	goto	u5395
  3659  0689  1683               	bsf	status, 5	;RP0=1, select bank1
  3660  068A  1303               	bcf	status, 6	;RP1=0, select bank1
  3661  068B  0831               	movf	(pow@y)^080h,w
  3662  068C  1283               	bcf	status, 5	;RP0=0, select bank0
  3663  068D  1303               	bcf	status, 6	;RP1=0, select bank0
  3664  068E  0625               	xorwf	(0+(?___lltoft)),w
  3665  068F                     u5395:
  3666  068F  1903               	skipnz
  3667  0690  2E92               	goto	u5391
  3668  0691  2E93               	goto	u5390
  3669  0692                     u5391:
  3670  0692  2EA1               	goto	l7317
  3671  0693                     u5390:
  3672                           	line	21
  3673                           	
  3674  0693                     l7313:	
  3675  0693  3021               	movlw	low(021h)
  3676  0694  00F8               	movwf	(_errno)
  3677  0695  3000               	movlw	high(021h)
  3678  0696  00F9               	movwf	((_errno))+1
  3679                           	line	22
  3680  0697  3000               	movlw	0x0
  3681  0698  1683               	bsf	status, 5	;RP0=1, select bank1
  3682  0699  1303               	bcf	status, 6	;RP1=0, select bank1
  3683  069A  00AE               	movwf	(?_pow)^080h
  3684  069B  3000               	movlw	0x0
  3685  069C  00AF               	movwf	(?_pow+1)^080h
  3686  069D  3000               	movlw	0x0
  3687  069E  00B0               	movwf	(?_pow+2)^080h
  3688  069F  2F58               	goto	l2860
  3689                           	
  3690  06A0                     l7315:	
  3691  06A0  2F58               	goto	l2860
  3692                           	line	23
  3693                           	
  3694  06A1                     l2863:	
  3695                           	line	24
  3696                           	
  3697  06A1                     l7317:	
  3698  06A1  1683               	bsf	status, 5	;RP0=1, select bank1
  3699  06A2  1303               	bcf	status, 6	;RP1=0, select bank1
  3700  06A3  0839               	movf	(pow@yi)^080h,w
  3701  06A4  3901               	andlw	01h
  3702  06A5  00B4               	movwf	(??_pow+0)^080h+0
  3703  06A6  0834               	movf	(??_pow+0)^080h+0,w
  3704  06A7  00B8               	movwf	(pow@sign)^080h
  3705                           	line	25
  3706                           	
  3707  06A8                     l7319:	
  3708  06A8  082E               	movf	(pow@x)^080h,w
  3709  06A9  1283               	bcf	status, 5	;RP0=0, select bank0
  3710  06AA  1303               	bcf	status, 6	;RP1=0, select bank0
  3711  06AB  00A5               	movwf	(?___ftneg)
  3712  06AC  1683               	bsf	status, 5	;RP0=1, select bank1
  3713  06AD  1303               	bcf	status, 6	;RP1=0, select bank1
  3714  06AE  082F               	movf	(pow@x+1)^080h,w
  3715  06AF  1283               	bcf	status, 5	;RP0=0, select bank0
  3716  06B0  1303               	bcf	status, 6	;RP1=0, select bank0
  3717  06B1  00A6               	movwf	(?___ftneg+1)
  3718  06B2  1683               	bsf	status, 5	;RP0=1, select bank1
  3719  06B3  1303               	bcf	status, 6	;RP1=0, select bank1
  3720  06B4  0830               	movf	(pow@x+2)^080h,w
  3721  06B5  1283               	bcf	status, 5	;RP0=0, select bank0
  3722  06B6  1303               	bcf	status, 6	;RP1=0, select bank0
  3723  06B7  00A7               	movwf	(?___ftneg+2)
  3724  06B8  160A  118A  230B   	fcall	___ftneg
              120A  118A         
  3725  06BD  1283               	bcf	status, 5	;RP0=0, select bank0
  3726  06BE  1303               	bcf	status, 6	;RP1=0, select bank0
  3727  06BF  0825               	movf	(0+(?___ftneg)),w
  3728  06C0  1683               	bsf	status, 5	;RP0=1, select bank1
  3729  06C1  1303               	bcf	status, 6	;RP1=0, select bank1
  3730  06C2  00AE               	movwf	(pow@x)^080h
  3731  06C3  1283               	bcf	status, 5	;RP0=0, select bank0
  3732  06C4  1303               	bcf	status, 6	;RP1=0, select bank0
  3733  06C5  0826               	movf	(1+(?___ftneg)),w
  3734  06C6  1683               	bsf	status, 5	;RP0=1, select bank1
  3735  06C7  1303               	bcf	status, 6	;RP1=0, select bank1
  3736  06C8  00AF               	movwf	(pow@x+1)^080h
  3737  06C9  1283               	bcf	status, 5	;RP0=0, select bank0
  3738  06CA  1303               	bcf	status, 6	;RP1=0, select bank0
  3739  06CB  0827               	movf	(2+(?___ftneg)),w
  3740  06CC  1683               	bsf	status, 5	;RP0=1, select bank1
  3741  06CD  1303               	bcf	status, 6	;RP1=0, select bank1
  3742  06CE  00B0               	movwf	(pow@x+2)^080h
  3743  06CF  2ED0               	goto	l7321
  3744                           	line	26
  3745                           	
  3746  06D0                     l2862:	
  3747                           	line	27
  3748                           	
  3749  06D0                     l7321:	
  3750  06D0  1683               	bsf	status, 5	;RP0=1, select bank1
  3751  06D1  1303               	bcf	status, 6	;RP1=0, select bank1
  3752  06D2  082E               	movf	(pow@x)^080h,w
  3753  06D3  00A0               	movwf	(?_log)^080h
  3754  06D4  082F               	movf	(pow@x+1)^080h,w
  3755  06D5  00A1               	movwf	(?_log+1)^080h
  3756  06D6  0830               	movf	(pow@x+2)^080h,w
  3757  06D7  00A2               	movwf	(?_log+2)^080h
  3758  06D8  120A  158A  245F   	fcall	_log
              120A  118A         
  3759  06DD  1683               	bsf	status, 5	;RP0=1, select bank1
  3760  06DE  1303               	bcf	status, 6	;RP1=0, select bank1
  3761  06DF  0820               	movf	(0+(?_log))^080h,w
  3762  06E0  00B5               	movwf	(_pow$3830)^080h
  3763  06E1  0821               	movf	(1+(?_log))^080h,w
  3764  06E2  00B6               	movwf	(_pow$3830+1)^080h
  3765  06E3  0822               	movf	(2+(?_log))^080h,w
  3766  06E4  00B7               	movwf	(_pow$3830+2)^080h
  3767                           	
  3768  06E5                     l7323:	
  3769  06E5  0831               	movf	(pow@y)^080h,w
  3770  06E6  1283               	bcf	status, 5	;RP0=0, select bank0
  3771  06E7  1303               	bcf	status, 6	;RP1=0, select bank0
  3772  06E8  00CA               	movwf	(?___ftmul)
  3773  06E9  1683               	bsf	status, 5	;RP0=1, select bank1
  3774  06EA  1303               	bcf	status, 6	;RP1=0, select bank1
  3775  06EB  0832               	movf	(pow@y+1)^080h,w
  3776  06EC  1283               	bcf	status, 5	;RP0=0, select bank0
  3777  06ED  1303               	bcf	status, 6	;RP1=0, select bank0
  3778  06EE  00CB               	movwf	(?___ftmul+1)
  3779  06EF  1683               	bsf	status, 5	;RP0=1, select bank1
  3780  06F0  1303               	bcf	status, 6	;RP1=0, select bank1
  3781  06F1  0833               	movf	(pow@y+2)^080h,w
  3782  06F2  1283               	bcf	status, 5	;RP0=0, select bank0
  3783  06F3  1303               	bcf	status, 6	;RP1=0, select bank0
  3784  06F4  00CC               	movwf	(?___ftmul+2)
  3785  06F5  1683               	bsf	status, 5	;RP0=1, select bank1
  3786  06F6  1303               	bcf	status, 6	;RP1=0, select bank1
  3787  06F7  0835               	movf	(_pow$3830)^080h,w
  3788  06F8  1283               	bcf	status, 5	;RP0=0, select bank0
  3789  06F9  1303               	bcf	status, 6	;RP1=0, select bank0
  3790  06FA  00CD               	movwf	0+(?___ftmul)+03h
  3791  06FB  1683               	bsf	status, 5	;RP0=1, select bank1
  3792  06FC  1303               	bcf	status, 6	;RP1=0, select bank1
  3793  06FD  0836               	movf	(_pow$3830+1)^080h,w
  3794  06FE  1283               	bcf	status, 5	;RP0=0, select bank0
  3795  06FF  1303               	bcf	status, 6	;RP1=0, select bank0
  3796  0700  00CE               	movwf	1+(?___ftmul)+03h
  3797  0701  1683               	bsf	status, 5	;RP0=1, select bank1
  3798  0702  1303               	bcf	status, 6	;RP1=0, select bank1
  3799  0703  0837               	movf	(_pow$3830+2)^080h,w
  3800  0704  1283               	bcf	status, 5	;RP0=0, select bank0
  3801  0705  1303               	bcf	status, 6	;RP1=0, select bank0
  3802  0706  00CF               	movwf	2+(?___ftmul)+03h
  3803  0707  120A  158A  2371   	fcall	___ftmul
              120A  118A         
  3804  070C  1283               	bcf	status, 5	;RP0=0, select bank0
  3805  070D  1303               	bcf	status, 6	;RP1=0, select bank0
  3806  070E  084A               	movf	(0+(?___ftmul)),w
  3807  070F  1683               	bsf	status, 5	;RP0=1, select bank1
  3808  0710  1303               	bcf	status, 6	;RP1=0, select bank1
  3809  0711  00A5               	movwf	(?_exp)^080h
  3810  0712  1283               	bcf	status, 5	;RP0=0, select bank0
  3811  0713  1303               	bcf	status, 6	;RP1=0, select bank0
  3812  0714  084B               	movf	(1+(?___ftmul)),w
  3813  0715  1683               	bsf	status, 5	;RP0=1, select bank1
  3814  0716  1303               	bcf	status, 6	;RP1=0, select bank1
  3815  0717  00A6               	movwf	(?_exp+1)^080h
  3816  0718  1283               	bcf	status, 5	;RP0=0, select bank0
  3817  0719  1303               	bcf	status, 6	;RP1=0, select bank0
  3818  071A  084C               	movf	(2+(?___ftmul)),w
  3819  071B  1683               	bsf	status, 5	;RP0=1, select bank1
  3820  071C  1303               	bcf	status, 6	;RP1=0, select bank1
  3821  071D  00A7               	movwf	(?_exp+2)^080h
  3822  071E  120A  118A  23CF   	fcall	_exp
              120A  118A         
  3823  0723  1683               	bsf	status, 5	;RP0=1, select bank1
  3824  0724  1303               	bcf	status, 6	;RP1=0, select bank1
  3825  0725  0825               	movf	(0+(?_exp))^080h,w
  3826  0726  00AE               	movwf	(pow@x)^080h
  3827  0727  0826               	movf	(1+(?_exp))^080h,w
  3828  0728  00AF               	movwf	(pow@x+1)^080h
  3829  0729  0827               	movf	(2+(?_exp))^080h,w
  3830  072A  00B0               	movwf	(pow@x+2)^080h
  3831                           	line	28
  3832                           	
  3833  072B                     l7325:	
  3834  072B  0838               	movf	(pow@sign)^080h,w
  3835  072C  1D03               	skipz
  3836  072D  2F2F               	goto	u5400
  3837  072E  2F58               	goto	l2864
  3838  072F                     u5400:
  3839                           	line	29
  3840                           	
  3841  072F                     l7327:	
  3842  072F  082E               	movf	(pow@x)^080h,w
  3843  0730  1283               	bcf	status, 5	;RP0=0, select bank0
  3844  0731  1303               	bcf	status, 6	;RP1=0, select bank0
  3845  0732  00A5               	movwf	(?___ftneg)
  3846  0733  1683               	bsf	status, 5	;RP0=1, select bank1
  3847  0734  1303               	bcf	status, 6	;RP1=0, select bank1
  3848  0735  082F               	movf	(pow@x+1)^080h,w
  3849  0736  1283               	bcf	status, 5	;RP0=0, select bank0
  3850  0737  1303               	bcf	status, 6	;RP1=0, select bank0
  3851  0738  00A6               	movwf	(?___ftneg+1)
  3852  0739  1683               	bsf	status, 5	;RP0=1, select bank1
  3853  073A  1303               	bcf	status, 6	;RP1=0, select bank1
  3854  073B  0830               	movf	(pow@x+2)^080h,w
  3855  073C  1283               	bcf	status, 5	;RP0=0, select bank0
  3856  073D  1303               	bcf	status, 6	;RP1=0, select bank0
  3857  073E  00A7               	movwf	(?___ftneg+2)
  3858  073F  160A  118A  230B   	fcall	___ftneg
              120A  118A         
  3859  0744  1283               	bcf	status, 5	;RP0=0, select bank0
  3860  0745  1303               	bcf	status, 6	;RP1=0, select bank0
  3861  0746  0825               	movf	(0+(?___ftneg)),w
  3862  0747  1683               	bsf	status, 5	;RP0=1, select bank1
  3863  0748  1303               	bcf	status, 6	;RP1=0, select bank1
  3864  0749  00AE               	movwf	(?_pow)^080h
  3865  074A  1283               	bcf	status, 5	;RP0=0, select bank0
  3866  074B  1303               	bcf	status, 6	;RP1=0, select bank0
  3867  074C  0826               	movf	(1+(?___ftneg)),w
  3868  074D  1683               	bsf	status, 5	;RP0=1, select bank1
  3869  074E  1303               	bcf	status, 6	;RP1=0, select bank1
  3870  074F  00AF               	movwf	(?_pow+1)^080h
  3871  0750  1283               	bcf	status, 5	;RP0=0, select bank0
  3872  0751  1303               	bcf	status, 6	;RP1=0, select bank0
  3873  0752  0827               	movf	(2+(?___ftneg)),w
  3874  0753  1683               	bsf	status, 5	;RP0=1, select bank1
  3875  0754  1303               	bcf	status, 6	;RP1=0, select bank1
  3876  0755  00B0               	movwf	(?_pow+2)^080h
  3877  0756  2F58               	goto	l2860
  3878                           	
  3879  0757                     l7329:	
  3880  0757  2F58               	goto	l2860
  3881                           	
  3882  0758                     l2864:	
  3883                           	line	30
  3884                           	line	31
  3885                           	
  3886  0758                     l2860:	
  3887  0758  0008               	return
  3888                           	opt stack 0
  3889                           GLOBAL	__end_of_pow
  3890  0759                     	__end_of_pow:
  3891 ;; =============== function _pow ends ============
  3892                           
  3893                           	signat	_pow,8315
  3894                           	global	_exp
  3895                           psect	text1245,local,class=CODE,delta=2
  3896                           global __ptext1245
  3897  03CF                     __ptext1245:
  3898                           
  3899 ;; *************** function _exp *****************
  3900 ;; Defined at:
  3901 ;;		line 13 in file "C:\Program Files (x86)\HI-TECH Software\PICC\9.83\sources\exp.c"
  3902 ;; Parameters:    Size  Location     Type
  3903 ;;  x               3    5[BANK1 ] unsigned char 
  3904 ;; Auto vars:     Size  Location     Type
  3905 ;;  exp             2   11[BANK1 ] int 
  3906 ;;  sign            1   13[BANK1 ] unsigned char 
  3907 ;; Return value:  Size  Location     Type
  3908 ;;                  3    5[BANK1 ] unsigned char 
  3909 ;; Registers used:
  3910 ;;		wreg, fsr0l, fsr0h, status,2, status,0, btemp+1, pclath, cstack
  3911 ;; Tracked objects:
  3912 ;;		On entry : 0/0
  3913 ;;		On exit  : 0/0
  3914 ;;		Unchanged: 0/0
  3915 ;; Data sizes:     COMMON   BANK0   BANK1   BANK3   BANK2
  3916 ;;      Params:         0       0       3       0       0
  3917 ;;      Locals:         0       0       6       0       0
  3918 ;;      Temps:          0       1       0       0       0
  3919 ;;      Totals:         0       1       9       0       0
  3920 ;;Total ram usage:       10 bytes
  3921 ;; Hardware stack levels used:    1
  3922 ;; Hardware stack levels required when called:    4
  3923 ;; This function calls:
  3924 ;;		___ftge
  3925 ;;		___ftneg
  3926 ;;		___ftmul
  3927 ;;		_floor
  3928 ;;		___fttol
  3929 ;;		___awtoft
  3930 ;;		___ftsub
  3931 ;;		_eval_poly
  3932 ;;		_ldexp
  3933 ;;		___ftdiv
  3934 ;; This function is called by:
  3935 ;;		_pow
  3936 ;; This function uses a non-reentrant model
  3937 ;;
  3938                           psect	text1245
  3939                           	file	"C:\Program Files (x86)\HI-TECH Software\PICC\9.83\sources\exp.c"
  3940                           	line	13
  3941                           	global	__size_of_exp
  3942  020F                     	__size_of_exp	equ	__end_of_exp-_exp
  3943                           	
  3944  03CF                     _exp:	
  3945                           	opt	stack 1
  3946                           ; Regs used in _exp: [wreg-fsr0h+status,2+status,0+btemp+1+pclath+cstack]
  3947                           	line	31
  3948                           	
  3949  03CF                     l7241:	
  3950  03CF  1683               	bsf	status, 5	;RP0=1, select bank1
  3951  03D0  1303               	bcf	status, 6	;RP1=0, select bank1
  3952  03D1  0827               	movf	(exp@x+2)^080h,w
  3953  03D2  0426               	iorwf	(exp@x+1)^080h,w
  3954  03D3  0425               	iorwf	(exp@x)^080h,w
  3955  03D4  1D03               	skipz
  3956  03D5  2BD7               	goto	u5291
  3957  03D6  2BD8               	goto	u5290
  3958  03D7                     u5291:
  3959  03D7  2BE0               	goto	l7247
  3960  03D8                     u5290:
  3961                           	line	32
  3962                           	
  3963  03D8                     l7243:	
  3964  03D8  3000               	movlw	0x0
  3965  03D9  00A5               	movwf	(?_exp)^080h
  3966  03DA  3080               	movlw	0x80
  3967  03DB  00A6               	movwf	(?_exp+1)^080h
  3968  03DC  303F               	movlw	0x3f
  3969  03DD  00A7               	movwf	(?_exp+2)^080h
  3970  03DE  2DDD               	goto	l3218
  3971                           	
  3972  03DF                     l7245:	
  3973  03DF  2DDD               	goto	l3218
  3974                           	
  3975  03E0                     l3217:	
  3976                           	line	34
  3977                           	
  3978  03E0                     l7247:	
  3979  03E0  3072               	movlw	0x72
  3980  03E1  1283               	bcf	status, 5	;RP0=0, select bank0
  3981  03E2  1303               	bcf	status, 6	;RP1=0, select bank0
  3982  03E3  00A0               	movwf	(?___ftge)
  3983  03E4  3031               	movlw	0x31
  3984  03E5  00A1               	movwf	(?___ftge+1)
  3985  03E6  3044               	movlw	0x44
  3986  03E7  00A2               	movwf	(?___ftge+2)
  3987  03E8  1683               	bsf	status, 5	;RP0=1, select bank1
  3988  03E9  1303               	bcf	status, 6	;RP1=0, select bank1
  3989  03EA  0825               	movf	(exp@x)^080h,w
  3990  03EB  1283               	bcf	status, 5	;RP0=0, select bank0
  3991  03EC  1303               	bcf	status, 6	;RP1=0, select bank0
  3992  03ED  00A3               	movwf	0+(?___ftge)+03h
  3993  03EE  1683               	bsf	status, 5	;RP0=1, select bank1
  3994  03EF  1303               	bcf	status, 6	;RP1=0, select bank1
  3995  03F0  0826               	movf	(exp@x+1)^080h,w
  3996  03F1  1283               	bcf	status, 5	;RP0=0, select bank0
  3997  03F2  1303               	bcf	status, 6	;RP1=0, select bank0
  3998  03F3  00A4               	movwf	1+(?___ftge)+03h
  3999  03F4  1683               	bsf	status, 5	;RP0=1, select bank1
  4000  03F5  1303               	bcf	status, 6	;RP1=0, select bank1
  4001  03F6  0827               	movf	(exp@x+2)^080h,w
  4002  03F7  1283               	bcf	status, 5	;RP0=0, select bank0
  4003  03F8  1303               	bcf	status, 6	;RP1=0, select bank0
  4004  03F9  00A5               	movwf	2+(?___ftge)+03h
  4005  03FA  160A  118A  2696   	fcall	___ftge
              120A  118A         
  4006  03FF  1803               	btfsc	status,0
  4007  0400  2C02               	goto	u5301
  4008  0401  2C03               	goto	u5300
  4009  0402                     u5301:
  4010  0402  2C1C               	goto	l7257
  4011  0403                     u5300:
  4012                           	line	35
  4013                           	
  4014  0403                     l7249:	
  4015  0403  3022               	movlw	low(022h)
  4016  0404  00F8               	movwf	(_errno)
  4017  0405  3000               	movlw	high(022h)
  4018  0406  00F9               	movwf	((_errno))+1
  4019                           	line	36
  4020  0407  2C11               	goto	l7253
  4021                           	
  4022  0408                     l7251:	
  4023  0408  3000               	movlw	0x0
  4024  0409  1683               	bsf	status, 5	;RP0=1, select bank1
  4025  040A  1303               	bcf	status, 6	;RP1=0, select bank1
  4026  040B  00A5               	movwf	(?_exp)^080h
  4027  040C  3080               	movlw	0x80
  4028  040D  00A6               	movwf	(?_exp+1)^080h
  4029  040E  307F               	movlw	0x7f
  4030  040F  00A7               	movwf	(?_exp+2)^080h
  4031  0410  2DDD               	goto	l3218
  4032                           	
  4033  0411                     l3221:	
  4034                           	
  4035  0411                     l7253:	
  4036  0411  30FF               	movlw	0xff
  4037  0412  1683               	bsf	status, 5	;RP0=1, select bank1
  4038  0413  1303               	bcf	status, 6	;RP1=0, select bank1
  4039  0414  00A5               	movwf	(?_exp)^080h
  4040  0415  307F               	movlw	0x7f
  4041  0416  00A6               	movwf	(?_exp+1)^080h
  4042  0417  307F               	movlw	0x7f
  4043  0418  00A7               	movwf	(?_exp+2)^080h
  4044  0419  2DDD               	goto	l3218
  4045                           	
  4046  041A                     l3223:	
  4047  041A  2DDD               	goto	l3218
  4048                           	
  4049  041B                     l7255:	
  4050  041B  2DDD               	goto	l3218
  4051                           	line	37
  4052                           	
  4053  041C                     l3219:	
  4054                           	line	38
  4055                           	
  4056  041C                     l7257:	
  4057  041C  1683               	bsf	status, 5	;RP0=1, select bank1
  4058  041D  1303               	bcf	status, 6	;RP1=0, select bank1
  4059  041E  0825               	movf	(exp@x)^080h,w
  4060  041F  1283               	bcf	status, 5	;RP0=0, select bank0
  4061  0420  1303               	bcf	status, 6	;RP1=0, select bank0
  4062  0421  00A0               	movwf	(?___ftge)
  4063  0422  1683               	bsf	status, 5	;RP0=1, select bank1
  4064  0423  1303               	bcf	status, 6	;RP1=0, select bank1
  4065  0424  0826               	movf	(exp@x+1)^080h,w
  4066  0425  1283               	bcf	status, 5	;RP0=0, select bank0
  4067  0426  1303               	bcf	status, 6	;RP1=0, select bank0
  4068  0427  00A1               	movwf	(?___ftge+1)
  4069  0428  1683               	bsf	status, 5	;RP0=1, select bank1
  4070  0429  1303               	bcf	status, 6	;RP1=0, select bank1
  4071  042A  0827               	movf	(exp@x+2)^080h,w
  4072  042B  1283               	bcf	status, 5	;RP0=0, select bank0
  4073  042C  1303               	bcf	status, 6	;RP1=0, select bank0
  4074  042D  00A2               	movwf	(?___ftge+2)
  4075  042E  3049               	movlw	0x49
  4076  042F  00A3               	movwf	0+(?___ftge)+03h
  4077  0430  303A               	movlw	0x3a
  4078  0431  00A4               	movwf	1+(?___ftge)+03h
  4079  0432  30C4               	movlw	0xc4
  4080  0433  00A5               	movwf	2+(?___ftge)+03h
  4081  0434  160A  118A  2696   	fcall	___ftge
              120A  118A         
  4082  0439  1803               	btfsc	status,0
  4083  043A  2C3C               	goto	u5311
  4084  043B  2C3D               	goto	u5310
  4085  043C                     u5311:
  4086  043C  2C4B               	goto	l7263
  4087  043D                     u5310:
  4088                           	line	39
  4089                           	
  4090  043D                     l7259:	
  4091  043D  3022               	movlw	low(022h)
  4092  043E  00F8               	movwf	(_errno)
  4093  043F  3000               	movlw	high(022h)
  4094  0440  00F9               	movwf	((_errno))+1
  4095                           	line	40
  4096  0441  3000               	movlw	0x0
  4097  0442  1683               	bsf	status, 5	;RP0=1, select bank1
  4098  0443  1303               	bcf	status, 6	;RP1=0, select bank1
  4099  0444  00A5               	movwf	(?_exp)^080h
  4100  0445  3000               	movlw	0x0
  4101  0446  00A6               	movwf	(?_exp+1)^080h
  4102  0447  3000               	movlw	0x0
  4103  0448  00A7               	movwf	(?_exp+2)^080h
  4104  0449  2DDD               	goto	l3218
  4105                           	
  4106  044A                     l7261:	
  4107  044A  2DDD               	goto	l3218
  4108                           	line	41
  4109                           	
  4110  044B                     l3224:	
  4111                           	line	43
  4112                           	
  4113  044B                     l7263:	
  4114  044B  1683               	bsf	status, 5	;RP0=1, select bank1
  4115  044C  1303               	bcf	status, 6	;RP1=0, select bank1
  4116  044D  0825               	movf	(exp@x)^080h,w
  4117  044E  1283               	bcf	status, 5	;RP0=0, select bank0
  4118  044F  1303               	bcf	status, 6	;RP1=0, select bank0
  4119  0450  00A0               	movwf	(?___ftge)
  4120  0451  1683               	bsf	status, 5	;RP0=1, select bank1
  4121  0452  1303               	bcf	status, 6	;RP1=0, select bank1
  4122  0453  0826               	movf	(exp@x+1)^080h,w
  4123  0454  1283               	bcf	status, 5	;RP0=0, select bank0
  4124  0455  1303               	bcf	status, 6	;RP1=0, select bank0
  4125  0456  00A1               	movwf	(?___ftge+1)
  4126  0457  1683               	bsf	status, 5	;RP0=1, select bank1
  4127  0458  1303               	bcf	status, 6	;RP1=0, select bank1
  4128  0459  0827               	movf	(exp@x+2)^080h,w
  4129  045A  1283               	bcf	status, 5	;RP0=0, select bank0
  4130  045B  1303               	bcf	status, 6	;RP1=0, select bank0
  4131  045C  00A2               	movwf	(?___ftge+2)
  4132  045D  3000               	movlw	0x0
  4133  045E  00A3               	movwf	0+(?___ftge)+03h
  4134  045F  3000               	movlw	0x0
  4135  0460  00A4               	movwf	1+(?___ftge)+03h
  4136  0461  3000               	movlw	0x0
  4137  0462  00A5               	movwf	2+(?___ftge)+03h
  4138  0463  160A  118A  2696   	fcall	___ftge
              120A  118A         
  4139  0468  3000               	movlw	0
  4140  0469  1C03               	btfss	status,0
  4141  046A  3001               	movlw	1
  4142  046B  1283               	bcf	status, 5	;RP0=0, select bank0
  4143  046C  1303               	bcf	status, 6	;RP1=0, select bank0
  4144  046D  00EF               	movwf	(??_exp+0)+0
  4145  046E  086F               	movf	(??_exp+0)+0,w
  4146  046F  1683               	bsf	status, 5	;RP0=1, select bank1
  4147  0470  1303               	bcf	status, 6	;RP1=0, select bank1
  4148  0471  00AD               	movwf	(exp@sign)^080h
  4149                           	line	44
  4150                           	
  4151  0472                     l7265:	
  4152  0472  082D               	movf	(exp@sign)^080h,w
  4153  0473  1D03               	skipz
  4154  0474  2C76               	goto	u5320
  4155  0475  2C9E               	goto	l7269
  4156  0476                     u5320:
  4157                           	line	45
  4158                           	
  4159  0476                     l7267:	
  4160  0476  0825               	movf	(exp@x)^080h,w
  4161  0477  1283               	bcf	status, 5	;RP0=0, select bank0
  4162  0478  1303               	bcf	status, 6	;RP1=0, select bank0
  4163  0479  00A5               	movwf	(?___ftneg)
  4164  047A  1683               	bsf	status, 5	;RP0=1, select bank1
  4165  047B  1303               	bcf	status, 6	;RP1=0, select bank1
  4166  047C  0826               	movf	(exp@x+1)^080h,w
  4167  047D  1283               	bcf	status, 5	;RP0=0, select bank0
  4168  047E  1303               	bcf	status, 6	;RP1=0, select bank0
  4169  047F  00A6               	movwf	(?___ftneg+1)
  4170  0480  1683               	bsf	status, 5	;RP0=1, select bank1
  4171  0481  1303               	bcf	status, 6	;RP1=0, select bank1
  4172  0482  0827               	movf	(exp@x+2)^080h,w
  4173  0483  1283               	bcf	status, 5	;RP0=0, select bank0
  4174  0484  1303               	bcf	status, 6	;RP1=0, select bank0
  4175  0485  00A7               	movwf	(?___ftneg+2)
  4176  0486  160A  118A  230B   	fcall	___ftneg
              120A  118A         
  4177  048B  1283               	bcf	status, 5	;RP0=0, select bank0
  4178  048C  1303               	bcf	status, 6	;RP1=0, select bank0
  4179  048D  0825               	movf	(0+(?___ftneg)),w
  4180  048E  1683               	bsf	status, 5	;RP0=1, select bank1
  4181  048F  1303               	bcf	status, 6	;RP1=0, select bank1
  4182  0490  00A5               	movwf	(exp@x)^080h
  4183  0491  1283               	bcf	status, 5	;RP0=0, select bank0
  4184  0492  1303               	bcf	status, 6	;RP1=0, select bank0
  4185  0493  0826               	movf	(1+(?___ftneg)),w
  4186  0494  1683               	bsf	status, 5	;RP0=1, select bank1
  4187  0495  1303               	bcf	status, 6	;RP1=0, select bank1
  4188  0496  00A6               	movwf	(exp@x+1)^080h
  4189  0497  1283               	bcf	status, 5	;RP0=0, select bank0
  4190  0498  1303               	bcf	status, 6	;RP1=0, select bank0
  4191  0499  0827               	movf	(2+(?___ftneg)),w
  4192  049A  1683               	bsf	status, 5	;RP0=1, select bank1
  4193  049B  1303               	bcf	status, 6	;RP1=0, select bank1
  4194  049C  00A7               	movwf	(exp@x+2)^080h
  4195  049D  2C9E               	goto	l7269
  4196                           	
  4197  049E                     l3225:	
  4198                           	line	46
  4199                           	
  4200  049E                     l7269:	
  4201  049E  30AA               	movlw	0xaa
  4202  049F  1283               	bcf	status, 5	;RP0=0, select bank0
  4203  04A0  1303               	bcf	status, 6	;RP1=0, select bank0
  4204  04A1  00CA               	movwf	(?___ftmul)
  4205  04A2  30B8               	movlw	0xb8
  4206  04A3  00CB               	movwf	(?___ftmul+1)
  4207  04A4  303F               	movlw	0x3f
  4208  04A5  00CC               	movwf	(?___ftmul+2)
  4209  04A6  1683               	bsf	status, 5	;RP0=1, select bank1
  4210  04A7  1303               	bcf	status, 6	;RP1=0, select bank1
  4211  04A8  0825               	movf	(exp@x)^080h,w
  4212  04A9  1283               	bcf	status, 5	;RP0=0, select bank0
  4213  04AA  1303               	bcf	status, 6	;RP1=0, select bank0
  4214  04AB  00CD               	movwf	0+(?___ftmul)+03h
  4215  04AC  1683               	bsf	status, 5	;RP0=1, select bank1
  4216  04AD  1303               	bcf	status, 6	;RP1=0, select bank1
  4217  04AE  0826               	movf	(exp@x+1)^080h,w
  4218  04AF  1283               	bcf	status, 5	;RP0=0, select bank0
  4219  04B0  1303               	bcf	status, 6	;RP1=0, select bank0
  4220  04B1  00CE               	movwf	1+(?___ftmul)+03h
  4221  04B2  1683               	bsf	status, 5	;RP0=1, select bank1
  4222  04B3  1303               	bcf	status, 6	;RP1=0, select bank1
  4223  04B4  0827               	movf	(exp@x+2)^080h,w
  4224  04B5  1283               	bcf	status, 5	;RP0=0, select bank0
  4225  04B6  1303               	bcf	status, 6	;RP1=0, select bank0
  4226  04B7  00CF               	movwf	2+(?___ftmul)+03h
  4227  04B8  120A  158A  2371   	fcall	___ftmul
              120A  118A         
  4228  04BD  1283               	bcf	status, 5	;RP0=0, select bank0
  4229  04BE  1303               	bcf	status, 6	;RP1=0, select bank0
  4230  04BF  084A               	movf	(0+(?___ftmul)),w
  4231  04C0  1683               	bsf	status, 5	;RP0=1, select bank1
  4232  04C1  1303               	bcf	status, 6	;RP1=0, select bank1
  4233  04C2  00A5               	movwf	(exp@x)^080h
  4234  04C3  1283               	bcf	status, 5	;RP0=0, select bank0
  4235  04C4  1303               	bcf	status, 6	;RP1=0, select bank0
  4236  04C5  084B               	movf	(1+(?___ftmul)),w
  4237  04C6  1683               	bsf	status, 5	;RP0=1, select bank1
  4238  04C7  1303               	bcf	status, 6	;RP1=0, select bank1
  4239  04C8  00A6               	movwf	(exp@x+1)^080h
  4240  04C9  1283               	bcf	status, 5	;RP0=0, select bank0
  4241  04CA  1303               	bcf	status, 6	;RP1=0, select bank0
  4242  04CB  084C               	movf	(2+(?___ftmul)),w
  4243  04CC  1683               	bsf	status, 5	;RP0=1, select bank1
  4244  04CD  1303               	bcf	status, 6	;RP1=0, select bank1
  4245  04CE  00A7               	movwf	(exp@x+2)^080h
  4246                           	line	47
  4247                           	
  4248  04CF                     l7271:	
  4249  04CF  0825               	movf	(exp@x)^080h,w
  4250  04D0  1283               	bcf	status, 5	;RP0=0, select bank0
  4251  04D1  1303               	bcf	status, 6	;RP1=0, select bank0
  4252  04D2  00BA               	movwf	(?_floor)
  4253  04D3  1683               	bsf	status, 5	;RP0=1, select bank1
  4254  04D4  1303               	bcf	status, 6	;RP1=0, select bank1
  4255  04D5  0826               	movf	(exp@x+1)^080h,w
  4256  04D6  1283               	bcf	status, 5	;RP0=0, select bank0
  4257  04D7  1303               	bcf	status, 6	;RP1=0, select bank0
  4258  04D8  00BB               	movwf	(?_floor+1)
  4259  04D9  1683               	bsf	status, 5	;RP0=1, select bank1
  4260  04DA  1303               	bcf	status, 6	;RP1=0, select bank1
  4261  04DB  0827               	movf	(exp@x+2)^080h,w
  4262  04DC  1283               	bcf	status, 5	;RP0=0, select bank0
  4263  04DD  1303               	bcf	status, 6	;RP1=0, select bank0
  4264  04DE  00BC               	movwf	(?_floor+2)
  4265  04DF  120A  158A  213D   	fcall	_floor
              120A  118A         
  4266  04E4  1283               	bcf	status, 5	;RP0=0, select bank0
  4267  04E5  1303               	bcf	status, 6	;RP1=0, select bank0
  4268  04E6  083A               	movf	(0+(?_floor)),w
  4269  04E7  00F4               	movwf	(?___fttol)
  4270  04E8  083B               	movf	(1+(?_floor)),w
  4271  04E9  00F5               	movwf	(?___fttol+1)
  4272  04EA  083C               	movf	(2+(?_floor)),w
  4273  04EB  00F6               	movwf	(?___fttol+2)
  4274  04EC  120A  118A  2759   	fcall	___fttol
              120A  118A         
  4275  04F1  0875               	movf	1+(((0+(?___fttol)))),w
  4276  04F2  1683               	bsf	status, 5	;RP0=1, select bank1
  4277  04F3  1303               	bcf	status, 6	;RP1=0, select bank1
  4278  04F4  01AC               	clrf	(exp@exp+1)^080h
  4279  04F5  07AC               	addwf	(exp@exp+1)^080h
  4280  04F6  0874               	movf	0+(((0+(?___fttol)))),w
  4281  04F7  01AB               	clrf	(exp@exp)^080h
  4282  04F8  07AB               	addwf	(exp@exp)^080h
  4283                           
  4284                           	line	48
  4285                           	
  4286  04F9                     l7273:	
  4287  04F9  082C               	movf	(exp@exp+1)^080h,w
  4288  04FA  1283               	bcf	status, 5	;RP0=0, select bank0
  4289  04FB  1303               	bcf	status, 6	;RP1=0, select bank0
  4290  04FC  01A9               	clrf	(?___awtoft+1)
  4291  04FD  07A9               	addwf	(?___awtoft+1)
  4292  04FE  1683               	bsf	status, 5	;RP0=1, select bank1
  4293  04FF  1303               	bcf	status, 6	;RP1=0, select bank1
  4294  0500  082B               	movf	(exp@exp)^080h,w
  4295  0501  1283               	bcf	status, 5	;RP0=0, select bank0
  4296  0502  1303               	bcf	status, 6	;RP1=0, select bank0
  4297  0503  01A8               	clrf	(?___awtoft)
  4298  0504  07A8               	addwf	(?___awtoft)
  4299                           
  4300  0505  160A  118A  242A   	fcall	___awtoft
              120A  118A         
  4301  050A  1283               	bcf	status, 5	;RP0=0, select bank0
  4302  050B  1303               	bcf	status, 6	;RP1=0, select bank0
  4303  050C  0828               	movf	(0+(?___awtoft)),w
  4304  050D  00BA               	movwf	(?___ftsub)
  4305  050E  0829               	movf	(1+(?___awtoft)),w
  4306  050F  00BB               	movwf	(?___ftsub+1)
  4307  0510  082A               	movf	(2+(?___awtoft)),w
  4308  0511  00BC               	movwf	(?___ftsub+2)
  4309  0512  1683               	bsf	status, 5	;RP0=1, select bank1
  4310  0513  1303               	bcf	status, 6	;RP1=0, select bank1
  4311  0514  0825               	movf	(exp@x)^080h,w
  4312  0515  1283               	bcf	status, 5	;RP0=0, select bank0
  4313  0516  1303               	bcf	status, 6	;RP1=0, select bank0
  4314  0517  00BD               	movwf	0+(?___ftsub)+03h
  4315  0518  1683               	bsf	status, 5	;RP0=1, select bank1
  4316  0519  1303               	bcf	status, 6	;RP1=0, select bank1
  4317  051A  0826               	movf	(exp@x+1)^080h,w
  4318  051B  1283               	bcf	status, 5	;RP0=0, select bank0
  4319  051C  1303               	bcf	status, 6	;RP1=0, select bank0
  4320  051D  00BE               	movwf	1+(?___ftsub)+03h
  4321  051E  1683               	bsf	status, 5	;RP0=1, select bank1
  4322  051F  1303               	bcf	status, 6	;RP1=0, select bank1
  4323  0520  0827               	movf	(exp@x+2)^080h,w
  4324  0521  1283               	bcf	status, 5	;RP0=0, select bank0
  4325  0522  1303               	bcf	status, 6	;RP1=0, select bank0
  4326  0523  00BF               	movwf	2+(?___ftsub)+03h
  4327  0524  160A  118A  2359   	fcall	___ftsub
              120A  118A         
  4328  0529  1283               	bcf	status, 5	;RP0=0, select bank0
  4329  052A  1303               	bcf	status, 6	;RP1=0, select bank0
  4330  052B  083A               	movf	(0+(?___ftsub)),w
  4331  052C  1683               	bsf	status, 5	;RP0=1, select bank1
  4332  052D  1303               	bcf	status, 6	;RP1=0, select bank1
  4333  052E  00A5               	movwf	(exp@x)^080h
  4334  052F  1283               	bcf	status, 5	;RP0=0, select bank0
  4335  0530  1303               	bcf	status, 6	;RP1=0, select bank0
  4336  0531  083B               	movf	(1+(?___ftsub)),w
  4337  0532  1683               	bsf	status, 5	;RP0=1, select bank1
  4338  0533  1303               	bcf	status, 6	;RP1=0, select bank1
  4339  0534  00A6               	movwf	(exp@x+1)^080h
  4340  0535  1283               	bcf	status, 5	;RP0=0, select bank0
  4341  0536  1303               	bcf	status, 6	;RP1=0, select bank0
  4342  0537  083C               	movf	(2+(?___ftsub)),w
  4343  0538  1683               	bsf	status, 5	;RP0=1, select bank1
  4344  0539  1303               	bcf	status, 6	;RP1=0, select bank1
  4345  053A  00A7               	movwf	(exp@x+2)^080h
  4346                           	line	49
  4347                           	
  4348  053B                     l7275:	
  4349  053B  0825               	movf	(exp@x)^080h,w
  4350  053C  1283               	bcf	status, 5	;RP0=0, select bank0
  4351  053D  1303               	bcf	status, 6	;RP1=0, select bank0
  4352  053E  00E4               	movwf	(?_eval_poly)
  4353  053F  1683               	bsf	status, 5	;RP0=1, select bank1
  4354  0540  1303               	bcf	status, 6	;RP1=0, select bank1
  4355  0541  0826               	movf	(exp@x+1)^080h,w
  4356  0542  1283               	bcf	status, 5	;RP0=0, select bank0
  4357  0543  1303               	bcf	status, 6	;RP1=0, select bank0
  4358  0544  00E5               	movwf	(?_eval_poly+1)
  4359  0545  1683               	bsf	status, 5	;RP0=1, select bank1
  4360  0546  1303               	bcf	status, 6	;RP1=0, select bank1
  4361  0547  0827               	movf	(exp@x+2)^080h,w
  4362  0548  1283               	bcf	status, 5	;RP0=0, select bank0
  4363  0549  1303               	bcf	status, 6	;RP1=0, select bank0
  4364  054A  00E6               	movwf	(?_eval_poly+2)
  4365  054B  3001               	movlw	((exp@coeff-__stringbase))&0ffh
  4366  054C  00EF               	movwf	(??_exp+0)+0
  4367  054D  086F               	movf	(??_exp+0)+0,w
  4368  054E  00E7               	movwf	(0+?_eval_poly+03h)
  4369  054F  3009               	movlw	low(09h)
  4370  0550  00E8               	movwf	0+(?_eval_poly)+04h
  4371  0551  3000               	movlw	high(09h)
  4372  0552  00E9               	movwf	(0+(?_eval_poly)+04h)+1
  4373  0553  160A  118A  2781   	fcall	_eval_poly
              120A  118A         
  4374  0558  1283               	bcf	status, 5	;RP0=0, select bank0
  4375  0559  1303               	bcf	status, 6	;RP1=0, select bank0
  4376  055A  0864               	movf	(0+(?_eval_poly)),w
  4377  055B  00DA               	movwf	(?_ldexp)
  4378  055C  0865               	movf	(1+(?_eval_poly)),w
  4379  055D  00DB               	movwf	(?_ldexp+1)
  4380  055E  0866               	movf	(2+(?_eval_poly)),w
  4381  055F  00DC               	movwf	(?_ldexp+2)
  4382  0560  1683               	bsf	status, 5	;RP0=1, select bank1
  4383  0561  1303               	bcf	status, 6	;RP1=0, select bank1
  4384  0562  082C               	movf	(exp@exp+1)^080h,w
  4385  0563  1283               	bcf	status, 5	;RP0=0, select bank0
  4386  0564  1303               	bcf	status, 6	;RP1=0, select bank0
  4387  0565  01DE               	clrf	1+(?_ldexp)+03h
  4388  0566  07DE               	addwf	1+(?_ldexp)+03h
  4389  0567  1683               	bsf	status, 5	;RP0=1, select bank1
  4390  0568  1303               	bcf	status, 6	;RP1=0, select bank1
  4391  0569  082B               	movf	(exp@exp)^080h,w
  4392  056A  1283               	bcf	status, 5	;RP0=0, select bank0
  4393  056B  1303               	bcf	status, 6	;RP1=0, select bank0
  4394  056C  01DD               	clrf	0+(?_ldexp)+03h
  4395  056D  07DD               	addwf	0+(?_ldexp)+03h
  4396                           
  4397  056E  120A  158A  21E5   	fcall	_ldexp
              120A  118A         
  4398  0573  1283               	bcf	status, 5	;RP0=0, select bank0
  4399  0574  1303               	bcf	status, 6	;RP1=0, select bank0
  4400  0575  085A               	movf	(0+(?_ldexp)),w
  4401  0576  1683               	bsf	status, 5	;RP0=1, select bank1
  4402  0577  1303               	bcf	status, 6	;RP1=0, select bank1
  4403  0578  00A5               	movwf	(exp@x)^080h
  4404  0579  1283               	bcf	status, 5	;RP0=0, select bank0
  4405  057A  1303               	bcf	status, 6	;RP1=0, select bank0
  4406  057B  085B               	movf	(1+(?_ldexp)),w
  4407  057C  1683               	bsf	status, 5	;RP0=1, select bank1
  4408  057D  1303               	bcf	status, 6	;RP1=0, select bank1
  4409  057E  00A6               	movwf	(exp@x+1)^080h
  4410  057F  1283               	bcf	status, 5	;RP0=0, select bank0
  4411  0580  1303               	bcf	status, 6	;RP1=0, select bank0
  4412  0581  085C               	movf	(2+(?_ldexp)),w
  4413  0582  1683               	bsf	status, 5	;RP0=1, select bank1
  4414  0583  1303               	bcf	status, 6	;RP1=0, select bank1
  4415  0584  00A7               	movwf	(exp@x+2)^080h
  4416                           	line	50
  4417                           	
  4418  0585                     l7277:	
  4419  0585  082D               	movf	(exp@sign)^080h,w
  4420  0586  1D03               	skipz
  4421  0587  2D89               	goto	u5330
  4422  0588  2DDD               	goto	l3226
  4423  0589                     u5330:
  4424  0589  2D92               	goto	l7283
  4425                           	line	52
  4426                           	
  4427  058A                     l7279:	
  4428  058A  2D92               	goto	l7283
  4429                           	
  4430  058B                     l7281:	
  4431  058B  3000               	movlw	0x0
  4432  058C  00A8               	movwf	(_exp$3541)^080h
  4433  058D  3080               	movlw	0x80
  4434  058E  00A9               	movwf	(_exp$3541+1)^080h
  4435  058F  307F               	movlw	0x7f
  4436  0590  00AA               	movwf	(_exp$3541+2)^080h
  4437  0591  2D98               	goto	l3231
  4438                           	
  4439  0592                     l3229:	
  4440                           	
  4441  0592                     l7283:	
  4442  0592  30FF               	movlw	0xff
  4443  0593  00A8               	movwf	(_exp$3541)^080h
  4444  0594  307F               	movlw	0x7f
  4445  0595  00A9               	movwf	(_exp$3541+1)^080h
  4446  0596  307F               	movlw	0x7f
  4447  0597  00AA               	movwf	(_exp$3541+2)^080h
  4448                           	
  4449  0598                     l3231:	
  4450  0598  0827               	movf	(exp@x+2)^080h,w
  4451  0599  062A               	xorwf	(_exp$3541+2)^080h,w
  4452  059A  1D03               	skipz
  4453  059B  2DA2               	goto	u5345
  4454  059C  0826               	movf	(exp@x+1)^080h,w
  4455  059D  0629               	xorwf	(_exp$3541+1)^080h,w
  4456  059E  1D03               	skipz
  4457  059F  2DA2               	goto	u5345
  4458  05A0  0825               	movf	(exp@x)^080h,w
  4459  05A1  0628               	xorwf	(_exp$3541)^080h,w
  4460  05A2                     u5345:
  4461  05A2  1D03               	skipz
  4462  05A3  2DA5               	goto	u5341
  4463  05A4  2DA6               	goto	u5340
  4464  05A5                     u5341:
  4465  05A5  2DAE               	goto	l7289
  4466  05A6                     u5340:
  4467                           	line	53
  4468                           	
  4469  05A6                     l7285:	
  4470  05A6  3000               	movlw	0x0
  4471  05A7  00A5               	movwf	(?_exp)^080h
  4472  05A8  3000               	movlw	0x0
  4473  05A9  00A6               	movwf	(?_exp+1)^080h
  4474  05AA  3000               	movlw	0x0
  4475  05AB  00A7               	movwf	(?_exp+2)^080h
  4476  05AC  2DDD               	goto	l3218
  4477                           	
  4478  05AD                     l7287:	
  4479  05AD  2DDD               	goto	l3218
  4480                           	
  4481  05AE                     l3227:	
  4482                           	line	54
  4483                           	
  4484  05AE                     l7289:	
  4485  05AE  0825               	movf	(exp@x)^080h,w
  4486  05AF  1283               	bcf	status, 5	;RP0=0, select bank0
  4487  05B0  1303               	bcf	status, 6	;RP1=0, select bank0
  4488  05B1  00BA               	movwf	(?___ftdiv)
  4489  05B2  1683               	bsf	status, 5	;RP0=1, select bank1
  4490  05B3  1303               	bcf	status, 6	;RP1=0, select bank1
  4491  05B4  0826               	movf	(exp@x+1)^080h,w
  4492  05B5  1283               	bcf	status, 5	;RP0=0, select bank0
  4493  05B6  1303               	bcf	status, 6	;RP1=0, select bank0
  4494  05B7  00BB               	movwf	(?___ftdiv+1)
  4495  05B8  1683               	bsf	status, 5	;RP0=1, select bank1
  4496  05B9  1303               	bcf	status, 6	;RP1=0, select bank1
  4497  05BA  0827               	movf	(exp@x+2)^080h,w
  4498  05BB  1283               	bcf	status, 5	;RP0=0, select bank0
  4499  05BC  1303               	bcf	status, 6	;RP1=0, select bank0
  4500  05BD  00BC               	movwf	(?___ftdiv+2)
  4501  05BE  3000               	movlw	0x0
  4502  05BF  00BD               	movwf	0+(?___ftdiv)+03h
  4503  05C0  3080               	movlw	0x80
  4504  05C1  00BE               	movwf	1+(?___ftdiv)+03h
  4505  05C2  303F               	movlw	0x3f
  4506  05C3  00BF               	movwf	2+(?___ftdiv)+03h
  4507  05C4  120A  158A  22A9   	fcall	___ftdiv
              120A  118A         
  4508  05C9  1283               	bcf	status, 5	;RP0=0, select bank0
  4509  05CA  1303               	bcf	status, 6	;RP1=0, select bank0
  4510  05CB  083A               	movf	(0+(?___ftdiv)),w
  4511  05CC  1683               	bsf	status, 5	;RP0=1, select bank1
  4512  05CD  1303               	bcf	status, 6	;RP1=0, select bank1
  4513  05CE  00A5               	movwf	(?_exp)^080h
  4514  05CF  1283               	bcf	status, 5	;RP0=0, select bank0
  4515  05D0  1303               	bcf	status, 6	;RP1=0, select bank0
  4516  05D1  083B               	movf	(1+(?___ftdiv)),w
  4517  05D2  1683               	bsf	status, 5	;RP0=1, select bank1
  4518  05D3  1303               	bcf	status, 6	;RP1=0, select bank1
  4519  05D4  00A6               	movwf	(?_exp+1)^080h
  4520  05D5  1283               	bcf	status, 5	;RP0=0, select bank0
  4521  05D6  1303               	bcf	status, 6	;RP1=0, select bank0
  4522  05D7  083C               	movf	(2+(?___ftdiv)),w
  4523  05D8  1683               	bsf	status, 5	;RP0=1, select bank1
  4524  05D9  1303               	bcf	status, 6	;RP1=0, select bank1
  4525  05DA  00A7               	movwf	(?_exp+2)^080h
  4526  05DB  2DDD               	goto	l3218
  4527                           	
  4528  05DC                     l7291:	
  4529  05DC  2DDD               	goto	l3218
  4530                           	line	55
  4531                           	
  4532  05DD                     l3226:	
  4533                           	line	56
  4534                           	line	57
  4535                           	
  4536  05DD                     l3218:	
  4537  05DD  0008               	return
  4538                           	opt stack 0
  4539                           GLOBAL	__end_of_exp
  4540  05DE                     	__end_of_exp:
  4541 ;; =============== function _exp ends ============
  4542                           
  4543                           	signat	_exp,4219
  4544                           	global	_log
  4545                           psect	text1246,local,class=CODE,delta=2
  4546                           global __ptext1246
  4547  0C5F                     __ptext1246:
  4548                           
  4549 ;; *************** function _log *****************
  4550 ;; Defined at:
  4551 ;;		line 6 in file "C:\Program Files (x86)\HI-TECH Software\PICC\9.83\sources\log.c"
  4552 ;; Parameters:    Size  Location     Type
  4553 ;;  x               3    0[BANK1 ] unsigned char 
  4554 ;; Auto vars:     Size  Location     Type
  4555 ;;  exp             2    3[BANK1 ] int 
  4556 ;; Return value:  Size  Location     Type
  4557 ;;                  3    0[BANK1 ] int 
  4558 ;; Registers used:
  4559 ;;		wreg, fsr0l, fsr0h, status,2, status,0, btemp+1, pclath, cstack
  4560 ;; Tracked objects:
  4561 ;;		On entry : 0/0
  4562 ;;		On exit  : 0/0
  4563 ;;		Unchanged: 0/0
  4564 ;; Data sizes:     COMMON   BANK0   BANK1   BANK3   BANK2
  4565 ;;      Params:         0       0       3       0       0
  4566 ;;      Locals:         0       0       2       0       0
  4567 ;;      Temps:          0       1       0       0       0
  4568 ;;      Totals:         0       1       5       0       0
  4569 ;;Total ram usage:        6 bytes
  4570 ;; Hardware stack levels used:    1
  4571 ;; Hardware stack levels required when called:    4
  4572 ;; This function calls:
  4573 ;;		___ftge
  4574 ;;		_frexp
  4575 ;;		___ftmul
  4576 ;;		___ftadd
  4577 ;;		_eval_poly
  4578 ;;		___awtoft
  4579 ;; This function is called by:
  4580 ;;		_pow
  4581 ;;		_log10
  4582 ;; This function uses a non-reentrant model
  4583 ;;
  4584                           psect	text1246
  4585                           	file	"C:\Program Files (x86)\HI-TECH Software\PICC\9.83\sources\log.c"
  4586                           	line	6
  4587                           	global	__size_of_log
  4588  011B                     	__size_of_log	equ	__end_of_log-_log
  4589                           	
  4590  0C5F                     _log:	
  4591                           	opt	stack 1
  4592                           ; Regs used in _log: [wreg-fsr0h+status,2+status,0+btemp+1+pclath+cstack]
  4593                           	line	24
  4594                           	
  4595  0C5F                     l7219:	
  4596  0C5F  1683               	bsf	status, 5	;RP0=1, select bank1
  4597  0C60  1303               	bcf	status, 6	;RP1=0, select bank1
  4598  0C61  0820               	movf	(log@x)^080h,w
  4599  0C62  1283               	bcf	status, 5	;RP0=0, select bank0
  4600  0C63  1303               	bcf	status, 6	;RP1=0, select bank0
  4601  0C64  00A0               	movwf	(?___ftge)
  4602  0C65  1683               	bsf	status, 5	;RP0=1, select bank1
  4603  0C66  1303               	bcf	status, 6	;RP1=0, select bank1
  4604  0C67  0821               	movf	(log@x+1)^080h,w
  4605  0C68  1283               	bcf	status, 5	;RP0=0, select bank0
  4606  0C69  1303               	bcf	status, 6	;RP1=0, select bank0
  4607  0C6A  00A1               	movwf	(?___ftge+1)
  4608  0C6B  1683               	bsf	status, 5	;RP0=1, select bank1
  4609  0C6C  1303               	bcf	status, 6	;RP1=0, select bank1
  4610  0C6D  0822               	movf	(log@x+2)^080h,w
  4611  0C6E  1283               	bcf	status, 5	;RP0=0, select bank0
  4612  0C6F  1303               	bcf	status, 6	;RP1=0, select bank0
  4613  0C70  00A2               	movwf	(?___ftge+2)
  4614  0C71  3000               	movlw	0x0
  4615  0C72  00A3               	movwf	0+(?___ftge)+03h
  4616  0C73  3000               	movlw	0x0
  4617  0C74  00A4               	movwf	1+(?___ftge)+03h
  4618  0C75  3000               	movlw	0x0
  4619  0C76  00A5               	movwf	2+(?___ftge)+03h
  4620  0C77  160A  118A  2696   	fcall	___ftge
              120A  158A         
  4621  0C7C  1803               	btfsc	status,0
  4622  0C7D  2C7F               	goto	u5271
  4623  0C7E  2C80               	goto	u5270
  4624  0C7F                     u5271:
  4625  0C7F  2C8E               	goto	l7225
  4626  0C80                     u5270:
  4627                           	line	25
  4628                           	
  4629  0C80                     l7221:	
  4630  0C80  3021               	movlw	low(021h)
  4631  0C81  00F8               	movwf	(_errno)
  4632  0C82  3000               	movlw	high(021h)
  4633  0C83  00F9               	movwf	((_errno))+1
  4634                           	line	26
  4635  0C84  3000               	movlw	0x0
  4636  0C85  1683               	bsf	status, 5	;RP0=1, select bank1
  4637  0C86  1303               	bcf	status, 6	;RP1=0, select bank1
  4638  0C87  00A0               	movwf	(?_log)^080h
  4639  0C88  3000               	movlw	0x0
  4640  0C89  00A1               	movwf	(?_log+1)^080h
  4641  0C8A  3000               	movlw	0x0
  4642  0C8B  00A2               	movwf	(?_log+2)^080h
  4643  0C8C  2D79               	goto	l3252
  4644                           	
  4645  0C8D                     l7223:	
  4646  0C8D  2D79               	goto	l3252
  4647                           	line	27
  4648                           	
  4649  0C8E                     l3251:	
  4650                           	line	28
  4651                           	
  4652  0C8E                     l7225:	
  4653  0C8E  1683               	bsf	status, 5	;RP0=1, select bank1
  4654  0C8F  1303               	bcf	status, 6	;RP1=0, select bank1
  4655  0C90  0822               	movf	(log@x+2)^080h,w
  4656  0C91  0421               	iorwf	(log@x+1)^080h,w
  4657  0C92  0420               	iorwf	(log@x)^080h,w
  4658  0C93  1D03               	skipz
  4659  0C94  2C96               	goto	u5281
  4660  0C95  2C97               	goto	u5280
  4661  0C96                     u5281:
  4662  0C96  2CA3               	goto	l7231
  4663  0C97                     u5280:
  4664                           	line	29
  4665                           	
  4666  0C97                     l7227:	
  4667  0C97  3022               	movlw	low(022h)
  4668  0C98  00F8               	movwf	(_errno)
  4669  0C99  3000               	movlw	high(022h)
  4670  0C9A  00F9               	movwf	((_errno))+1
  4671                           	line	30
  4672  0C9B  3000               	movlw	0x0
  4673  0C9C  00A0               	movwf	(?_log)^080h
  4674  0C9D  3000               	movlw	0x0
  4675  0C9E  00A1               	movwf	(?_log+1)^080h
  4676  0C9F  3000               	movlw	0x0
  4677  0CA0  00A2               	movwf	(?_log+2)^080h
  4678  0CA1  2D79               	goto	l3252
  4679                           	
  4680  0CA2                     l7229:	
  4681  0CA2  2D79               	goto	l3252
  4682                           	line	31
  4683                           	
  4684  0CA3                     l3253:	
  4685                           	line	32
  4686                           	
  4687  0CA3                     l7231:	
  4688  0CA3  3000               	movlw	0x0
  4689  0CA4  1283               	bcf	status, 5	;RP0=0, select bank0
  4690  0CA5  1303               	bcf	status, 6	;RP1=0, select bank0
  4691  0CA6  00AD               	movwf	(?___ftadd)
  4692  0CA7  3080               	movlw	0x80
  4693  0CA8  00AE               	movwf	(?___ftadd+1)
  4694  0CA9  30BF               	movlw	0xbf
  4695  0CAA  00AF               	movwf	(?___ftadd+2)
  4696  0CAB  3000               	movlw	0x0
  4697  0CAC  00CA               	movwf	(?___ftmul)
  4698  0CAD  3000               	movlw	0x0
  4699  0CAE  00CB               	movwf	(?___ftmul+1)
  4700  0CAF  3040               	movlw	0x40
  4701  0CB0  00CC               	movwf	(?___ftmul+2)
  4702  0CB1  30A3               	movlw	(log@exp)&0ffh
  4703  0CB2  00EE               	movwf	(??_log+0)+0
  4704  0CB3  086E               	movf	(??_log+0)+0,w
  4705  0CB4  00F7               	movwf	0+(?_frexp)+03h
  4706  0CB5  1683               	bsf	status, 5	;RP0=1, select bank1
  4707  0CB6  1303               	bcf	status, 6	;RP1=0, select bank1
  4708  0CB7  0820               	movf	(log@x)^080h,w
  4709  0CB8  00F4               	movwf	(?_frexp)
  4710  0CB9  0821               	movf	(log@x+1)^080h,w
  4711  0CBA  00F5               	movwf	(?_frexp+1)
  4712  0CBB  0822               	movf	(log@x+2)^080h,w
  4713  0CBC  00F6               	movwf	(?_frexp+2)
  4714  0CBD  160A  118A  2503   	fcall	_frexp
              120A  158A         
  4715  0CC2  0874               	movf	(0+(?_frexp)),w
  4716  0CC3  1283               	bcf	status, 5	;RP0=0, select bank0
  4717  0CC4  1303               	bcf	status, 6	;RP1=0, select bank0
  4718  0CC5  00CD               	movwf	0+(?___ftmul)+03h
  4719  0CC6  0875               	movf	(1+(?_frexp)),w
  4720  0CC7  00CE               	movwf	1+(?___ftmul)+03h
  4721  0CC8  0876               	movf	(2+(?_frexp)),w
  4722  0CC9  00CF               	movwf	2+(?___ftmul)+03h
  4723  0CCA  120A  158A  2371   	fcall	___ftmul
              120A  158A         
  4724  0CCF  1283               	bcf	status, 5	;RP0=0, select bank0
  4725  0CD0  1303               	bcf	status, 6	;RP1=0, select bank0
  4726  0CD1  084A               	movf	(0+(?___ftmul)),w
  4727  0CD2  00B0               	movwf	0+(?___ftadd)+03h
  4728  0CD3  084B               	movf	(1+(?___ftmul)),w
  4729  0CD4  00B1               	movwf	1+(?___ftadd)+03h
  4730  0CD5  084C               	movf	(2+(?___ftmul)),w
  4731  0CD6  00B2               	movwf	2+(?___ftadd)+03h
  4732  0CD7  120A  158A  26BA   	fcall	___ftadd
              120A  158A         
  4733  0CDC  1283               	bcf	status, 5	;RP0=0, select bank0
  4734  0CDD  1303               	bcf	status, 6	;RP1=0, select bank0
  4735  0CDE  082D               	movf	(0+(?___ftadd)),w
  4736  0CDF  1683               	bsf	status, 5	;RP0=1, select bank1
  4737  0CE0  1303               	bcf	status, 6	;RP1=0, select bank1
  4738  0CE1  00A0               	movwf	(log@x)^080h
  4739  0CE2  1283               	bcf	status, 5	;RP0=0, select bank0
  4740  0CE3  1303               	bcf	status, 6	;RP1=0, select bank0
  4741  0CE4  082E               	movf	(1+(?___ftadd)),w
  4742  0CE5  1683               	bsf	status, 5	;RP0=1, select bank1
  4743  0CE6  1303               	bcf	status, 6	;RP1=0, select bank1
  4744  0CE7  00A1               	movwf	(log@x+1)^080h
  4745  0CE8  1283               	bcf	status, 5	;RP0=0, select bank0
  4746  0CE9  1303               	bcf	status, 6	;RP1=0, select bank0
  4747  0CEA  082F               	movf	(2+(?___ftadd)),w
  4748  0CEB  1683               	bsf	status, 5	;RP0=1, select bank1
  4749  0CEC  1303               	bcf	status, 6	;RP1=0, select bank1
  4750  0CED  00A2               	movwf	(log@x+2)^080h
  4751                           	line	33
  4752                           	
  4753  0CEE                     l7233:	
  4754  0CEE  30FF               	movlw	low(-1)
  4755  0CEF  07A3               	addwf	(log@exp)^080h,f
  4756  0CF0  1803               	skipnc
  4757  0CF1  0AA4               	incf	(log@exp+1)^080h,f
  4758  0CF2  30FF               	movlw	high(-1)
  4759  0CF3  07A4               	addwf	(log@exp+1)^080h,f
  4760                           	line	34
  4761                           	
  4762  0CF4                     l7235:	
  4763  0CF4  0820               	movf	(log@x)^080h,w
  4764  0CF5  1283               	bcf	status, 5	;RP0=0, select bank0
  4765  0CF6  1303               	bcf	status, 6	;RP1=0, select bank0
  4766  0CF7  00E4               	movwf	(?_eval_poly)
  4767  0CF8  1683               	bsf	status, 5	;RP0=1, select bank1
  4768  0CF9  1303               	bcf	status, 6	;RP1=0, select bank1
  4769  0CFA  0821               	movf	(log@x+1)^080h,w
  4770  0CFB  1283               	bcf	status, 5	;RP0=0, select bank0
  4771  0CFC  1303               	bcf	status, 6	;RP1=0, select bank0
  4772  0CFD  00E5               	movwf	(?_eval_poly+1)
  4773  0CFE  1683               	bsf	status, 5	;RP0=1, select bank1
  4774  0CFF  1303               	bcf	status, 6	;RP1=0, select bank1
  4775  0D00  0822               	movf	(log@x+2)^080h,w
  4776  0D01  1283               	bcf	status, 5	;RP0=0, select bank0
  4777  0D02  1303               	bcf	status, 6	;RP1=0, select bank0
  4778  0D03  00E6               	movwf	(?_eval_poly+2)
  4779  0D04  301F               	movlw	((log@coeff-__stringbase))&0ffh
  4780  0D05  00EE               	movwf	(??_log+0)+0
  4781  0D06  086E               	movf	(??_log+0)+0,w
  4782  0D07  00E7               	movwf	(0+?_eval_poly+03h)
  4783  0D08  3008               	movlw	low(08h)
  4784  0D09  00E8               	movwf	0+(?_eval_poly)+04h
  4785  0D0A  3000               	movlw	high(08h)
  4786  0D0B  00E9               	movwf	(0+(?_eval_poly)+04h)+1
  4787  0D0C  160A  118A  2781   	fcall	_eval_poly
              120A  158A         
  4788  0D11  1283               	bcf	status, 5	;RP0=0, select bank0
  4789  0D12  1303               	bcf	status, 6	;RP1=0, select bank0
  4790  0D13  0864               	movf	(0+(?_eval_poly)),w
  4791  0D14  1683               	bsf	status, 5	;RP0=1, select bank1
  4792  0D15  1303               	bcf	status, 6	;RP1=0, select bank1
  4793  0D16  00A0               	movwf	(log@x)^080h
  4794  0D17  1283               	bcf	status, 5	;RP0=0, select bank0
  4795  0D18  1303               	bcf	status, 6	;RP1=0, select bank0
  4796  0D19  0865               	movf	(1+(?_eval_poly)),w
  4797  0D1A  1683               	bsf	status, 5	;RP0=1, select bank1
  4798  0D1B  1303               	bcf	status, 6	;RP1=0, select bank1
  4799  0D1C  00A1               	movwf	(log@x+1)^080h
  4800  0D1D  1283               	bcf	status, 5	;RP0=0, select bank0
  4801  0D1E  1303               	bcf	status, 6	;RP1=0, select bank0
  4802  0D1F  0866               	movf	(2+(?_eval_poly)),w
  4803  0D20  1683               	bsf	status, 5	;RP0=1, select bank1
  4804  0D21  1303               	bcf	status, 6	;RP1=0, select bank1
  4805  0D22  00A2               	movwf	(log@x+2)^080h
  4806                           	line	35
  4807                           	
  4808  0D23                     l7237:	
  4809  0D23  0820               	movf	(log@x)^080h,w
  4810  0D24  1283               	bcf	status, 5	;RP0=0, select bank0
  4811  0D25  1303               	bcf	status, 6	;RP1=0, select bank0
  4812  0D26  00AD               	movwf	(?___ftadd)
  4813  0D27  1683               	bsf	status, 5	;RP0=1, select bank1
  4814  0D28  1303               	bcf	status, 6	;RP1=0, select bank1
  4815  0D29  0821               	movf	(log@x+1)^080h,w
  4816  0D2A  1283               	bcf	status, 5	;RP0=0, select bank0
  4817  0D2B  1303               	bcf	status, 6	;RP1=0, select bank0
  4818  0D2C  00AE               	movwf	(?___ftadd+1)
  4819  0D2D  1683               	bsf	status, 5	;RP0=1, select bank1
  4820  0D2E  1303               	bcf	status, 6	;RP1=0, select bank1
  4821  0D2F  0822               	movf	(log@x+2)^080h,w
  4822  0D30  1283               	bcf	status, 5	;RP0=0, select bank0
  4823  0D31  1303               	bcf	status, 6	;RP1=0, select bank0
  4824  0D32  00AF               	movwf	(?___ftadd+2)
  4825  0D33  3072               	movlw	0x72
  4826  0D34  00CA               	movwf	(?___ftmul)
  4827  0D35  3031               	movlw	0x31
  4828  0D36  00CB               	movwf	(?___ftmul+1)
  4829  0D37  303F               	movlw	0x3f
  4830  0D38  00CC               	movwf	(?___ftmul+2)
  4831  0D39  1683               	bsf	status, 5	;RP0=1, select bank1
  4832  0D3A  1303               	bcf	status, 6	;RP1=0, select bank1
  4833  0D3B  0824               	movf	(log@exp+1)^080h,w
  4834  0D3C  1283               	bcf	status, 5	;RP0=0, select bank0
  4835  0D3D  1303               	bcf	status, 6	;RP1=0, select bank0
  4836  0D3E  01A9               	clrf	(?___awtoft+1)
  4837  0D3F  07A9               	addwf	(?___awtoft+1)
  4838  0D40  1683               	bsf	status, 5	;RP0=1, select bank1
  4839  0D41  1303               	bcf	status, 6	;RP1=0, select bank1
  4840  0D42  0823               	movf	(log@exp)^080h,w
  4841  0D43  1283               	bcf	status, 5	;RP0=0, select bank0
  4842  0D44  1303               	bcf	status, 6	;RP1=0, select bank0
  4843  0D45  01A8               	clrf	(?___awtoft)
  4844  0D46  07A8               	addwf	(?___awtoft)
  4845                           
  4846  0D47  160A  118A  242A   	fcall	___awtoft
              120A  158A         
  4847  0D4C  1283               	bcf	status, 5	;RP0=0, select bank0
  4848  0D4D  1303               	bcf	status, 6	;RP1=0, select bank0
  4849  0D4E  0828               	movf	(0+(?___awtoft)),w
  4850  0D4F  00CD               	movwf	0+(?___ftmul)+03h
  4851  0D50  0829               	movf	(1+(?___awtoft)),w
  4852  0D51  00CE               	movwf	1+(?___ftmul)+03h
  4853  0D52  082A               	movf	(2+(?___awtoft)),w
  4854  0D53  00CF               	movwf	2+(?___ftmul)+03h
  4855  0D54  120A  158A  2371   	fcall	___ftmul
              120A  158A         
  4856  0D59  1283               	bcf	status, 5	;RP0=0, select bank0
  4857  0D5A  1303               	bcf	status, 6	;RP1=0, select bank0
  4858  0D5B  084A               	movf	(0+(?___ftmul)),w
  4859  0D5C  00B0               	movwf	0+(?___ftadd)+03h
  4860  0D5D  084B               	movf	(1+(?___ftmul)),w
  4861  0D5E  00B1               	movwf	1+(?___ftadd)+03h
  4862  0D5F  084C               	movf	(2+(?___ftmul)),w
  4863  0D60  00B2               	movwf	2+(?___ftadd)+03h
  4864  0D61  120A  158A  26BA   	fcall	___ftadd
              120A  158A         
  4865  0D66  1283               	bcf	status, 5	;RP0=0, select bank0
  4866  0D67  1303               	bcf	status, 6	;RP1=0, select bank0
  4867  0D68  082D               	movf	(0+(?___ftadd)),w
  4868  0D69  1683               	bsf	status, 5	;RP0=1, select bank1
  4869  0D6A  1303               	bcf	status, 6	;RP1=0, select bank1
  4870  0D6B  00A0               	movwf	(?_log)^080h
  4871  0D6C  1283               	bcf	status, 5	;RP0=0, select bank0
  4872  0D6D  1303               	bcf	status, 6	;RP1=0, select bank0
  4873  0D6E  082E               	movf	(1+(?___ftadd)),w
  4874  0D6F  1683               	bsf	status, 5	;RP0=1, select bank1
  4875  0D70  1303               	bcf	status, 6	;RP1=0, select bank1
  4876  0D71  00A1               	movwf	(?_log+1)^080h
  4877  0D72  1283               	bcf	status, 5	;RP0=0, select bank0
  4878  0D73  1303               	bcf	status, 6	;RP1=0, select bank0
  4879  0D74  082F               	movf	(2+(?___ftadd)),w
  4880  0D75  1683               	bsf	status, 5	;RP0=1, select bank1
  4881  0D76  1303               	bcf	status, 6	;RP1=0, select bank1
  4882  0D77  00A2               	movwf	(?_log+2)^080h
  4883  0D78  2D79               	goto	l3252
  4884                           	
  4885  0D79                     l7239:	
  4886                           	line	36
  4887                           	
  4888  0D79                     l3252:	
  4889  0D79  0008               	return
  4890                           	opt stack 0
  4891                           GLOBAL	__end_of_log
  4892  0D7A                     	__end_of_log:
  4893 ;; =============== function _log ends ============
  4894                           
  4895                           	signat	_log,4219
  4896                           	global	_eval_poly
  4897                           psect	text1247,local,class=CODE,delta=2
  4898                           global __ptext1247
  4899  1781                     __ptext1247:
  4900                           
  4901 ;; *************** function _eval_poly *****************
  4902 ;; Defined at:
  4903 ;;		line 5 in file "C:\Program Files (x86)\HI-TECH Software\PICC\9.83\sources\evalpoly.c"
  4904 ;; Parameters:    Size  Location     Type
  4905 ;;  x               3   68[BANK0 ] int 
  4906 ;;  d               1   71[BANK0 ] PTR const 
  4907 ;;		 -> log@coeff(27), exp@coeff(30), 
  4908 ;;  n               2   72[BANK0 ] int 
  4909 ;; Auto vars:     Size  Location     Type
  4910 ;;  res             3   75[BANK0 ] int 
  4911 ;; Return value:  Size  Location     Type
  4912 ;;                  3   68[BANK0 ] int 
  4913 ;; Registers used:
  4914 ;;		wreg, fsr0l, fsr0h, status,2, status,0, pclath, cstack
  4915 ;; Tracked objects:
  4916 ;;		On entry : 0/0
  4917 ;;		On exit  : 0/0
  4918 ;;		Unchanged: 0/0
  4919 ;; Data sizes:     COMMON   BANK0   BANK1   BANK3   BANK2
  4920 ;;      Params:         0       6       0       0       0
  4921 ;;      Locals:         0       3       0       0       0
  4922 ;;      Temps:          0       1       0       0       0
  4923 ;;      Totals:         0      10       0       0       0
  4924 ;;Total ram usage:       10 bytes
  4925 ;; Hardware stack levels used:    1
  4926 ;; Hardware stack levels required when called:    3
  4927 ;; This function calls:
  4928 ;;		___bmul
  4929 ;;		___ftmul
  4930 ;;		___ftadd
  4931 ;; This function is called by:
  4932 ;;		_exp
  4933 ;;		_log
  4934 ;; This function uses a non-reentrant model
  4935 ;;
  4936                           psect	text1247
  4937                           	file	"C:\Program Files (x86)\HI-TECH Software\PICC\9.83\sources\evalpoly.c"
  4938                           	line	5
  4939                           	global	__size_of_eval_poly
  4940  007F                     	__size_of_eval_poly	equ	__end_of_eval_poly-_eval_poly
  4941                           	
  4942  1781                     _eval_poly:	
  4943                           	opt	stack 1
  4944                           ; Regs used in _eval_poly: [wreg-fsr0h+status,2+status,0+pclath+cstack]
  4945                           	line	8
  4946                           	
  4947  1781                     l7209:	
  4948  1781  3003               	movlw	(03h)
  4949  1782  1283               	bcf	status, 5	;RP0=0, select bank0
  4950  1783  1303               	bcf	status, 6	;RP1=0, select bank0
  4951  1784  00EA               	movwf	(??_eval_poly+0)+0
  4952  1785  086A               	movf	(??_eval_poly+0)+0,w
  4953  1786  00F4               	movwf	(?___bmul)
  4954  1787  0868               	movf	(eval_poly@n),w
  4955  1788  160A  118A  2329   	fcall	___bmul
              160A  118A         
  4956  178D  1283               	bcf	status, 5	;RP0=0, select bank0
  4957  178E  1303               	bcf	status, 6	;RP1=0, select bank0
  4958  178F  0767               	addwf	(eval_poly@d),w
  4959  1790  0084               	movwf	fsr0
  4960  1791  120A  158A  200A   	fcall	stringdir
              160A  118A         
  4961  1796  00EB               	movwf	(eval_poly@res)
  4962  1797  120A  158A  200A   	fcall	stringdir
              160A  118A         
  4963  179C  00EC               	movwf	(eval_poly@res+1)
  4964  179D  120A  158A  200A   	fcall	stringdir
              160A  118A         
  4965  17A2  00ED               	movwf	(eval_poly@res+2)
  4966                           	line	9
  4967  17A3  2FF1               	goto	l7213
  4968                           	
  4969  17A4                     l3301:	
  4970                           	line	10
  4971                           	
  4972  17A4                     l7211:	
  4973  17A4  3003               	movlw	(03h)
  4974  17A5  00EA               	movwf	(??_eval_poly+0)+0
  4975  17A6  086A               	movf	(??_eval_poly+0)+0,w
  4976  17A7  00F4               	movwf	(?___bmul)
  4977  17A8  30FF               	movlw	low(-1)
  4978  17A9  07E8               	addwf	(eval_poly@n),f
  4979  17AA  1803               	skipnc
  4980  17AB  0AE9               	incf	(eval_poly@n+1),f
  4981  17AC  30FF               	movlw	high(-1)
  4982  17AD  07E9               	addwf	(eval_poly@n+1),f
  4983  17AE  0868               	movf	((eval_poly@n)),w
  4984  17AF  160A  118A  2329   	fcall	___bmul
              160A  118A         
  4985  17B4  1283               	bcf	status, 5	;RP0=0, select bank0
  4986  17B5  1303               	bcf	status, 6	;RP1=0, select bank0
  4987  17B6  0767               	addwf	(eval_poly@d),w
  4988  17B7  0084               	movwf	fsr0
  4989  17B8  120A  158A  200A   	fcall	stringdir
              160A  118A         
  4990  17BD  00AD               	movwf	(?___ftadd)
  4991  17BE  120A  158A  200A   	fcall	stringdir
              160A  118A         
  4992  17C3  00AE               	movwf	(?___ftadd+1)
  4993  17C4  120A  158A  200A   	fcall	stringdir
              160A  118A         
  4994  17C9  00AF               	movwf	(?___ftadd+2)
  4995  17CA  086B               	movf	(eval_poly@res),w
  4996  17CB  00CA               	movwf	(?___ftmul)
  4997  17CC  086C               	movf	(eval_poly@res+1),w
  4998  17CD  00CB               	movwf	(?___ftmul+1)
  4999  17CE  086D               	movf	(eval_poly@res+2),w
  5000  17CF  00CC               	movwf	(?___ftmul+2)
  5001  17D0  0864               	movf	(eval_poly@x),w
  5002  17D1  00CD               	movwf	0+(?___ftmul)+03h
  5003  17D2  0865               	movf	(eval_poly@x+1),w
  5004  17D3  00CE               	movwf	1+(?___ftmul)+03h
  5005  17D4  0866               	movf	(eval_poly@x+2),w
  5006  17D5  00CF               	movwf	2+(?___ftmul)+03h
  5007  17D6  120A  158A  2371   	fcall	___ftmul
              160A  118A         
  5008  17DB  1283               	bcf	status, 5	;RP0=0, select bank0
  5009  17DC  1303               	bcf	status, 6	;RP1=0, select bank0
  5010  17DD  084A               	movf	(0+(?___ftmul)),w
  5011  17DE  00B0               	movwf	0+(?___ftadd)+03h
  5012  17DF  084B               	movf	(1+(?___ftmul)),w
  5013  17E0  00B1               	movwf	1+(?___ftadd)+03h
  5014  17E1  084C               	movf	(2+(?___ftmul)),w
  5015  17E2  00B2               	movwf	2+(?___ftadd)+03h
  5016  17E3  120A  158A  26BA   	fcall	___ftadd
              160A  118A         
  5017  17E8  1283               	bcf	status, 5	;RP0=0, select bank0
  5018  17E9  1303               	bcf	status, 6	;RP1=0, select bank0
  5019  17EA  082D               	movf	(0+(?___ftadd)),w
  5020  17EB  00EB               	movwf	(eval_poly@res)
  5021  17EC  082E               	movf	(1+(?___ftadd)),w
  5022  17ED  00EC               	movwf	(eval_poly@res+1)
  5023  17EE  082F               	movf	(2+(?___ftadd)),w
  5024  17EF  00ED               	movwf	(eval_poly@res+2)
  5025  17F0  2FF1               	goto	l7213
  5026                           	
  5027  17F1                     l3300:	
  5028                           	line	9
  5029                           	
  5030  17F1                     l7213:	
  5031  17F1  0869               	movf	((eval_poly@n+1)),w
  5032  17F2  0468               	iorwf	((eval_poly@n)),w
  5033  17F3  1D03               	skipz
  5034  17F4  2FF6               	goto	u5261
  5035  17F5  2FF7               	goto	u5260
  5036  17F6                     u5261:
  5037  17F6  2FA4               	goto	l7211
  5038  17F7                     u5260:
  5039  17F7  2FF8               	goto	l7215
  5040                           	
  5041  17F8                     l3302:	
  5042                           	line	11
  5043                           	
  5044  17F8                     l7215:	
  5045  17F8  086B               	movf	(eval_poly@res),w
  5046  17F9  00E4               	movwf	(?_eval_poly)
  5047  17FA  086C               	movf	(eval_poly@res+1),w
  5048  17FB  00E5               	movwf	(?_eval_poly+1)
  5049  17FC  086D               	movf	(eval_poly@res+2),w
  5050  17FD  00E6               	movwf	(?_eval_poly+2)
  5051  17FE  2FFF               	goto	l3303
  5052                           	
  5053  17FF                     l7217:	
  5054                           	line	12
  5055                           	
  5056  17FF                     l3303:	
  5057  17FF  0008               	return
  5058                           	opt stack 0
  5059                           GLOBAL	__end_of_eval_poly
  5060  1800                     	__end_of_eval_poly:
  5061 ;; =============== function _eval_poly ends ============
  5062                           
  5063                           	signat	_eval_poly,12411
  5064                           	global	_floor
  5065                           psect	text1248,local,class=CODE,delta=2
  5066                           global __ptext1248
  5067  093D                     __ptext1248:
  5068                           
  5069 ;; *************** function _floor *****************
  5070 ;; Defined at:
  5071 ;;		line 14 in file "C:\Program Files (x86)\HI-TECH Software\PICC\9.83\sources\floor.c"
  5072 ;; Parameters:    Size  Location     Type
  5073 ;;  x               3   26[BANK0 ] int 
  5074 ;; Auto vars:     Size  Location     Type
  5075 ;;  i               3   30[BANK0 ] int 
  5076 ;;  expon           2   33[BANK0 ] int 
  5077 ;; Return value:  Size  Location     Type
  5078 ;;                  3   26[BANK0 ] int 
  5079 ;; Registers used:
  5080 ;;		wreg, fsr0l, fsr0h, status,2, status,0, btemp+1, pclath, cstack
  5081 ;; Tracked objects:
  5082 ;;		On entry : 0/0
  5083 ;;		On exit  : 0/0
  5084 ;;		Unchanged: 0/0
  5085 ;; Data sizes:     COMMON   BANK0   BANK1   BANK3   BANK2
  5086 ;;      Params:         0       3       0       0       0
  5087 ;;      Locals:         0       5       0       0       0
  5088 ;;      Temps:          0       1       0       0       0
  5089 ;;      Totals:         0       9       0       0       0
  5090 ;;Total ram usage:        9 bytes
  5091 ;; Hardware stack levels used:    1
  5092 ;; Hardware stack levels required when called:    3
  5093 ;; This function calls:
  5094 ;;		_frexp
  5095 ;;		___ftge
  5096 ;;		___fttol
  5097 ;;		___altoft
  5098 ;;		___ftadd
  5099 ;; This function is called by:
  5100 ;;		_exp
  5101 ;; This function uses a non-reentrant model
  5102 ;;
  5103                           psect	text1248
  5104                           	file	"C:\Program Files (x86)\HI-TECH Software\PICC\9.83\sources\floor.c"
  5105                           	line	14
  5106                           	global	__size_of_floor
  5107  00A8                     	__size_of_floor	equ	__end_of_floor-_floor
  5108                           	
  5109  093D                     _floor:	
  5110                           	opt	stack 1
  5111                           ; Regs used in _floor: [wreg-fsr0h+status,2+status,0+btemp+1+pclath+cstack]
  5112                           	line	18
  5113                           	
  5114  093D                     l7181:	
  5115  093D  1283               	bcf	status, 5	;RP0=0, select bank0
  5116  093E  1303               	bcf	status, 6	;RP1=0, select bank0
  5117  093F  083A               	movf	(floor@x),w
  5118  0940  00F4               	movwf	(?_frexp)
  5119  0941  083B               	movf	(floor@x+1),w
  5120  0942  00F5               	movwf	(?_frexp+1)
  5121  0943  083C               	movf	(floor@x+2),w
  5122  0944  00F6               	movwf	(?_frexp+2)
  5123  0945  3041               	movlw	(floor@expon)&0ffh
  5124  0946  00BD               	movwf	(??_floor+0)+0
  5125  0947  083D               	movf	(??_floor+0)+0,w
  5126  0948  00F7               	movwf	0+(?_frexp)+03h
  5127  0949  160A  118A  2503   	fcall	_frexp
              120A  158A         
  5128                           	line	19
  5129                           	
  5130  094E                     l7183:	
  5131  094E  1283               	bcf	status, 5	;RP0=0, select bank0
  5132  094F  1303               	bcf	status, 6	;RP1=0, select bank0
  5133  0950  1FC2               	btfss	(floor@expon+1),7
  5134  0951  2953               	goto	u5221
  5135  0952  2954               	goto	u5220
  5136  0953                     u5221:
  5137  0953  297D               	goto	l7195
  5138  0954                     u5220:
  5139                           	line	20
  5140                           	
  5141  0954                     l7185:	
  5142  0954  083A               	movf	(floor@x),w
  5143  0955  00A0               	movwf	(?___ftge)
  5144  0956  083B               	movf	(floor@x+1),w
  5145  0957  00A1               	movwf	(?___ftge+1)
  5146  0958  083C               	movf	(floor@x+2),w
  5147  0959  00A2               	movwf	(?___ftge+2)
  5148  095A  3000               	movlw	0x0
  5149  095B  00A3               	movwf	0+(?___ftge)+03h
  5150  095C  3000               	movlw	0x0
  5151  095D  00A4               	movwf	1+(?___ftge)+03h
  5152  095E  3000               	movlw	0x0
  5153  095F  00A5               	movwf	2+(?___ftge)+03h
  5154  0960  160A  118A  2696   	fcall	___ftge
              120A  158A         
  5155  0965  1803               	btfsc	status,0
  5156  0966  2968               	goto	u5231
  5157  0967  2969               	goto	u5230
  5158  0968                     u5231:
  5159  0968  2973               	goto	l7191
  5160  0969                     u5230:
  5161                           	line	21
  5162                           	
  5163  0969                     l7187:	
  5164  0969  3000               	movlw	0x0
  5165  096A  1283               	bcf	status, 5	;RP0=0, select bank0
  5166  096B  1303               	bcf	status, 6	;RP1=0, select bank0
  5167  096C  00BA               	movwf	(?_floor)
  5168  096D  3080               	movlw	0x80
  5169  096E  00BB               	movwf	(?_floor+1)
  5170  096F  30BF               	movlw	0xbf
  5171  0970  00BC               	movwf	(?_floor+2)
  5172  0971  29E4               	goto	l3238
  5173                           	
  5174  0972                     l7189:	
  5175  0972  29E4               	goto	l3238
  5176                           	
  5177  0973                     l3237:	
  5178                           	line	22
  5179                           	
  5180  0973                     l7191:	
  5181  0973  3000               	movlw	0x0
  5182  0974  1283               	bcf	status, 5	;RP0=0, select bank0
  5183  0975  1303               	bcf	status, 6	;RP1=0, select bank0
  5184  0976  00BA               	movwf	(?_floor)
  5185  0977  3000               	movlw	0x0
  5186  0978  00BB               	movwf	(?_floor+1)
  5187  0979  3000               	movlw	0x0
  5188  097A  00BC               	movwf	(?_floor+2)
  5189  097B  29E4               	goto	l3238
  5190                           	
  5191  097C                     l7193:	
  5192  097C  29E4               	goto	l3238
  5193                           	line	23
  5194                           	
  5195  097D                     l3236:	
  5196                           	line	24
  5197                           	
  5198  097D                     l7195:	
  5199  097D  3000               	movlw	high(015h)
  5200  097E  0242               	subwf	(floor@expon+1),w
  5201  097F  3015               	movlw	low(015h)
  5202  0980  1903               	skipnz
  5203  0981  0241               	subwf	(floor@expon),w
  5204  0982  1C03               	skipc
  5205  0983  2985               	goto	u5241
  5206  0984  2986               	goto	u5240
  5207  0985                     u5241:
  5208  0985  2987               	goto	l7199
  5209  0986                     u5240:
  5210                           	line	25
  5211                           	
  5212  0986                     l7197:	
  5213  0986  29E4               	goto	l3238
  5214                           	
  5215  0987                     l3239:	
  5216                           	line	26
  5217                           	
  5218  0987                     l7199:	
  5219  0987  083A               	movf	(floor@x),w
  5220  0988  00F4               	movwf	(?___fttol)
  5221  0989  083B               	movf	(floor@x+1),w
  5222  098A  00F5               	movwf	(?___fttol+1)
  5223  098B  083C               	movf	(floor@x+2),w
  5224  098C  00F6               	movwf	(?___fttol+2)
  5225  098D  120A  118A  2759   	fcall	___fttol
              120A  158A         
  5226  0992  0877               	movf	(3+(?___fttol)),w
  5227  0993  1283               	bcf	status, 5	;RP0=0, select bank0
  5228  0994  1303               	bcf	status, 6	;RP1=0, select bank0
  5229  0995  00AD               	movwf	(?___altoft+3)
  5230  0996  0876               	movf	(2+(?___fttol)),w
  5231  0997  00AC               	movwf	(?___altoft+2)
  5232  0998  0875               	movf	(1+(?___fttol)),w
  5233  0999  00AB               	movwf	(?___altoft+1)
  5234  099A  0874               	movf	(0+(?___fttol)),w
  5235  099B  00AA               	movwf	(?___altoft)
  5236                           
  5237  099C  160A  118A  254F   	fcall	___altoft
              120A  158A         
  5238  09A1  1283               	bcf	status, 5	;RP0=0, select bank0
  5239  09A2  1303               	bcf	status, 6	;RP1=0, select bank0
  5240  09A3  082A               	movf	(0+(?___altoft)),w
  5241  09A4  00BE               	movwf	(floor@i)
  5242  09A5  082B               	movf	(1+(?___altoft)),w
  5243  09A6  00BF               	movwf	(floor@i+1)
  5244  09A7  082C               	movf	(2+(?___altoft)),w
  5245  09A8  00C0               	movwf	(floor@i+2)
  5246                           	line	27
  5247  09A9  083A               	movf	(floor@x),w
  5248  09AA  00A0               	movwf	(?___ftge)
  5249  09AB  083B               	movf	(floor@x+1),w
  5250  09AC  00A1               	movwf	(?___ftge+1)
  5251  09AD  083C               	movf	(floor@x+2),w
  5252  09AE  00A2               	movwf	(?___ftge+2)
  5253  09AF  083E               	movf	(floor@i),w
  5254  09B0  00A3               	movwf	0+(?___ftge)+03h
  5255  09B1  083F               	movf	(floor@i+1),w
  5256  09B2  00A4               	movwf	1+(?___ftge)+03h
  5257  09B3  0840               	movf	(floor@i+2),w
  5258  09B4  00A5               	movwf	2+(?___ftge)+03h
  5259  09B5  160A  118A  2696   	fcall	___ftge
              120A  158A         
  5260  09BA  1803               	btfsc	status,0
  5261  09BB  29BD               	goto	u5251
  5262  09BC  29BE               	goto	u5250
  5263  09BD                     u5251:
  5264  09BD  29DB               	goto	l7205
  5265  09BE                     u5250:
  5266                           	line	28
  5267                           	
  5268  09BE                     l7201:	
  5269  09BE  3000               	movlw	0x0
  5270  09BF  1283               	bcf	status, 5	;RP0=0, select bank0
  5271  09C0  1303               	bcf	status, 6	;RP1=0, select bank0
  5272  09C1  00AD               	movwf	(?___ftadd)
  5273  09C2  3080               	movlw	0x80
  5274  09C3  00AE               	movwf	(?___ftadd+1)
  5275  09C4  30BF               	movlw	0xbf
  5276  09C5  00AF               	movwf	(?___ftadd+2)
  5277  09C6  083E               	movf	(floor@i),w
  5278  09C7  00B0               	movwf	0+(?___ftadd)+03h
  5279  09C8  083F               	movf	(floor@i+1),w
  5280  09C9  00B1               	movwf	1+(?___ftadd)+03h
  5281  09CA  0840               	movf	(floor@i+2),w
  5282  09CB  00B2               	movwf	2+(?___ftadd)+03h
  5283  09CC  120A  158A  26BA   	fcall	___ftadd
              120A  158A         
  5284  09D1  1283               	bcf	status, 5	;RP0=0, select bank0
  5285  09D2  1303               	bcf	status, 6	;RP1=0, select bank0
  5286  09D3  082D               	movf	(0+(?___ftadd)),w
  5287  09D4  00BA               	movwf	(?_floor)
  5288  09D5  082E               	movf	(1+(?___ftadd)),w
  5289  09D6  00BB               	movwf	(?_floor+1)
  5290  09D7  082F               	movf	(2+(?___ftadd)),w
  5291  09D8  00BC               	movwf	(?_floor+2)
  5292  09D9  29E4               	goto	l3238
  5293                           	
  5294  09DA                     l7203:	
  5295  09DA  29E4               	goto	l3238
  5296                           	
  5297  09DB                     l3240:	
  5298                           	line	29
  5299                           	
  5300  09DB                     l7205:	
  5301  09DB  1283               	bcf	status, 5	;RP0=0, select bank0
  5302  09DC  1303               	bcf	status, 6	;RP1=0, select bank0
  5303  09DD  083E               	movf	(floor@i),w
  5304  09DE  00BA               	movwf	(?_floor)
  5305  09DF  083F               	movf	(floor@i+1),w
  5306  09E0  00BB               	movwf	(?_floor+1)
  5307  09E1  0840               	movf	(floor@i+2),w
  5308  09E2  00BC               	movwf	(?_floor+2)
  5309  09E3  29E4               	goto	l3238
  5310                           	
  5311  09E4                     l7207:	
  5312                           	line	30
  5313                           	
  5314  09E4                     l3238:	
  5315  09E4  0008               	return
  5316                           	opt stack 0
  5317                           GLOBAL	__end_of_floor
  5318  09E5                     	__end_of_floor:
  5319 ;; =============== function _floor ends ============
  5320                           
  5321                           	signat	_floor,4219
  5322                           	global	___ftsub
  5323                           psect	text1249,local,class=CODE,delta=2
  5324                           global __ptext1249
  5325  1359                     __ptext1249:
  5326                           
  5327 ;; *************** function ___ftsub *****************
  5328 ;; Defined at:
  5329 ;;		line 17 in file "C:\Program Files (x86)\HI-TECH Software\PICC\9.83\sources\ftsub.c"
  5330 ;; Parameters:    Size  Location     Type
  5331 ;;  f2              3   26[BANK0 ] float 
  5332 ;;  f1              3   29[BANK0 ] float 
  5333 ;; Auto vars:     Size  Location     Type
  5334 ;;		None
  5335 ;; Return value:  Size  Location     Type
  5336 ;;                  3   26[BANK0 ] float 
  5337 ;; Registers used:
  5338 ;;		wreg, status,2, status,0, pclath, cstack
  5339 ;; Tracked objects:
  5340 ;;		On entry : 0/0
  5341 ;;		On exit  : 0/0
  5342 ;;		Unchanged: 0/0
  5343 ;; Data sizes:     COMMON   BANK0   BANK1   BANK3   BANK2
  5344 ;;      Params:         0       6       0       0       0
  5345 ;;      Locals:         0       0       0       0       0
  5346 ;;      Temps:          0       0       0       0       0
  5347 ;;      Totals:         0       6       0       0       0
  5348 ;;Total ram usage:        6 bytes
  5349 ;; Hardware stack levels used:    1
  5350 ;; Hardware stack levels required when called:    3
  5351 ;; This function calls:
  5352 ;;		___ftadd
  5353 ;; This function is called by:
  5354 ;;		_exp
  5355 ;; This function uses a non-reentrant model
  5356 ;;
  5357                           psect	text1249
  5358                           	file	"C:\Program Files (x86)\HI-TECH Software\PICC\9.83\sources\ftsub.c"
  5359                           	line	17
  5360                           	global	__size_of___ftsub
  5361  001F                     	__size_of___ftsub	equ	__end_of___ftsub-___ftsub
  5362                           	
  5363  1359                     ___ftsub:	
  5364                           	opt	stack 1
  5365                           ; Regs used in ___ftsub: [wreg+status,2+status,0+pclath+cstack]
  5366                           	line	18
  5367                           	
  5368  1359                     l7175:	
  5369  1359  3080               	movlw	080h
  5370  135A  1283               	bcf	status, 5	;RP0=0, select bank0
  5371  135B  1303               	bcf	status, 6	;RP1=0, select bank0
  5372  135C  06BC               	xorwf	(___ftsub@f2+2),f
  5373                           	line	19
  5374                           	
  5375  135D                     l7177:	
  5376  135D  083D               	movf	(___ftsub@f1),w
  5377  135E  00AD               	movwf	(?___ftadd)
  5378  135F  083E               	movf	(___ftsub@f1+1),w
  5379  1360  00AE               	movwf	(?___ftadd+1)
  5380  1361  083F               	movf	(___ftsub@f1+2),w
  5381  1362  00AF               	movwf	(?___ftadd+2)
  5382  1363  083A               	movf	(___ftsub@f2),w
  5383  1364  00B0               	movwf	0+(?___ftadd)+03h
  5384  1365  083B               	movf	(___ftsub@f2+1),w
  5385  1366  00B1               	movwf	1+(?___ftadd)+03h
  5386  1367  083C               	movf	(___ftsub@f2+2),w
  5387  1368  00B2               	movwf	2+(?___ftadd)+03h
  5388  1369  120A  158A  26BA   	fcall	___ftadd
              160A  118A         
  5389  136E  1283               	bcf	status, 5	;RP0=0, select bank0
  5390  136F  1303               	bcf	status, 6	;RP1=0, select bank0
  5391  1370  082D               	movf	(0+(?___ftadd)),w
  5392  1371  00BA               	movwf	(?___ftsub)
  5393  1372  082E               	movf	(1+(?___ftadd)),w
  5394  1373  00BB               	movwf	(?___ftsub+1)
  5395  1374  082F               	movf	(2+(?___ftadd)),w
  5396  1375  00BC               	movwf	(?___ftsub+2)
  5397  1376  2B77               	goto	l2958
  5398                           	
  5399  1377                     l7179:	
  5400                           	line	20
  5401                           	
  5402  1377                     l2958:	
  5403  1377  0008               	return
  5404                           	opt stack 0
  5405                           GLOBAL	__end_of___ftsub
  5406  1378                     	__end_of___ftsub:
  5407 ;; =============== function ___ftsub ends ============
  5408                           
  5409                           	signat	___ftsub,8315
  5410                           	global	_read_a2d
  5411                           psect	text1250,local,class=CODE,delta=2
  5412                           global __ptext1250
  5413  0884                     __ptext1250:
  5414                           
  5415 ;; *************** function _read_a2d *****************
  5416 ;; Defined at:
  5417 ;;		line 135 in file "C:\Users\USER\OneDrive\Desktop\Studying\Midterm\Code.c"
  5418 ;; Parameters:    Size  Location     Type
  5419 ;;  channel         1    wreg     unsigned char 
  5420 ;; Auto vars:     Size  Location     Type
  5421 ;;  channel         1   17[BANK0 ] unsigned char 
  5422 ;; Return value:  Size  Location     Type
  5423 ;;                  3   12[BANK0 ] float 
  5424 ;; Registers used:
  5425 ;;		wreg, status,2, status,0, pclath, cstack
  5426 ;; Tracked objects:
  5427 ;;		On entry : 0/0
  5428 ;;		On exit  : 0/0
  5429 ;;		Unchanged: 0/0
  5430 ;; Data sizes:     COMMON   BANK0   BANK1   BANK3   BANK2
  5431 ;;      Params:         0       3       0       0       0
  5432 ;;      Locals:         0       1       0       0       0
  5433 ;;      Temps:          0       2       0       0       0
  5434 ;;      Totals:         0       6       0       0       0
  5435 ;;Total ram usage:        6 bytes
  5436 ;; Hardware stack levels used:    1
  5437 ;; Hardware stack levels required when called:    3
  5438 ;; This function calls:
  5439 ;;		_DelayMs
  5440 ;;		___lbtoft
  5441 ;; This function is called by:
  5442 ;;		_main
  5443 ;; This function uses a non-reentrant model
  5444 ;;
  5445                           psect	text1250
  5446                           	file	"C:\Users\USER\OneDrive\Desktop\Studying\Midterm\Code.c"
  5447                           	line	135
  5448                           	global	__size_of_read_a2d
  5449  0039                     	__size_of_read_a2d	equ	__end_of_read_a2d-_read_a2d
  5450                           	
  5451  0884                     _read_a2d:	
  5452                           	opt	stack 4
  5453                           ; Regs used in _read_a2d: [wreg+status,2+status,0+pclath+cstack]
  5454                           ;read_a2d@channel stored from wreg
  5455  0884  1283               	bcf	status, 5	;RP0=0, select bank0
  5456  0885  1303               	bcf	status, 6	;RP1=0, select bank0
  5457  0886  00B1               	movwf	(read_a2d@channel)
  5458                           	line	136
  5459                           	
  5460  0887                     l7163:	
  5461                           ;Code.c: 136: channel &=0x07;
  5462  0887  3007               	movlw	(07h)
  5463  0888  00AF               	movwf	(??_read_a2d+0)+0
  5464  0889  082F               	movf	(??_read_a2d+0)+0,w
  5465  088A  05B1               	andwf	(read_a2d@channel),f
  5466                           	line	137
  5467                           ;Code.c: 137: ADCON0 = 0x41;
  5468  088B  3041               	movlw	(041h)
  5469  088C  009F               	movwf	(31)	;volatile
  5470                           	line	138
  5471                           ;Code.c: 138: ADCON1 = 0x0E;
  5472  088D  300E               	movlw	(0Eh)
  5473  088E  1683               	bsf	status, 5	;RP0=1, select bank1
  5474  088F  1303               	bcf	status, 6	;RP1=0, select bank1
  5475  0890  009F               	movwf	(159)^080h	;volatile
  5476                           	line	139
  5477                           	
  5478  0891                     l7165:	
  5479                           ;Code.c: 139: DelayMs(10);
  5480  0891  300A               	movlw	(0Ah)
  5481  0892  160A  118A  2398   	fcall	_DelayMs
              120A  158A         
  5482                           	line	140
  5483                           	
  5484  0897                     l7167:	
  5485                           ;Code.c: 140: ADCON0 |=(channel<<3);
  5486  0897  1283               	bcf	status, 5	;RP0=0, select bank0
  5487  0898  1303               	bcf	status, 6	;RP1=0, select bank0
  5488  0899  0831               	movf	(read_a2d@channel),w
  5489  089A  00AF               	movwf	(??_read_a2d+0)+0
  5490  089B  3002               	movlw	(03h)-1
  5491  089C                     u5205:
  5492  089C  1003               	clrc
  5493  089D  0DAF               	rlf	(??_read_a2d+0)+0,f
  5494  089E  3EFF               	addlw	-1
  5495  089F  1D03               	skipz
  5496  08A0  289C               	goto	u5205
  5497  08A1  1003               	clrc
  5498  08A2  0D2F               	rlf	(??_read_a2d+0)+0,w
  5499  08A3  00B0               	movwf	(??_read_a2d+1)+0
  5500  08A4  0830               	movf	(??_read_a2d+1)+0,w
  5501  08A5  049F               	iorwf	(31),f	;volatile
  5502                           	line	141
  5503                           	
  5504  08A6                     l7169:	
  5505                           ;Code.c: 141: GO_nDONE = 1;
  5506  08A6  151F               	bsf	(250/8),(250)&7
  5507                           	line	142
  5508                           ;Code.c: 142: while(GO_nDONE)
  5509  08A7  28A8               	goto	l738
  5510                           	
  5511  08A8                     l739:	
  5512                           	line	143
  5513                           ;Code.c: 143: continue;
  5514                           	
  5515  08A8                     l738:	
  5516                           	line	142
  5517  08A8  191F               	btfsc	(250/8),(250)&7
  5518  08A9  28AB               	goto	u5211
  5519  08AA  28AC               	goto	u5210
  5520  08AB                     u5211:
  5521  08AB  28A8               	goto	l738
  5522  08AC                     u5210:
  5523  08AC  28AD               	goto	l7171
  5524                           	
  5525  08AD                     l740:	
  5526                           	line	144
  5527                           	
  5528  08AD                     l7171:	
  5529                           ;Code.c: 144: return( (float) ADRESH);
  5530  08AD  081E               	movf	(30),w	;volatile
  5531  08AE  160A  118A  23B9   	fcall	___lbtoft
              120A  158A         
  5532  08B3  1283               	bcf	status, 5	;RP0=0, select bank0
  5533  08B4  1303               	bcf	status, 6	;RP1=0, select bank0
  5534  08B5  0825               	movf	(0+(?___lbtoft)),w
  5535  08B6  00AC               	movwf	(?_read_a2d)
  5536  08B7  0826               	movf	(1+(?___lbtoft)),w
  5537  08B8  00AD               	movwf	(?_read_a2d+1)
  5538  08B9  0827               	movf	(2+(?___lbtoft)),w
  5539  08BA  00AE               	movwf	(?_read_a2d+2)
  5540  08BB  28BC               	goto	l741
  5541                           	
  5542  08BC                     l7173:	
  5543                           	line	145
  5544                           	
  5545  08BC                     l741:	
  5546  08BC  0008               	return
  5547                           	opt stack 0
  5548                           GLOBAL	__end_of_read_a2d
  5549  08BD                     	__end_of_read_a2d:
  5550 ;; =============== function _read_a2d ends ============
  5551                           
  5552                           	signat	_read_a2d,4219
  5553                           	global	_InitMain
  5554                           psect	text1251,local,class=CODE,delta=2
  5555                           global __ptext1251
  5556  1456                     __ptext1251:
  5557                           
  5558 ;; *************** function _InitMain *****************
  5559 ;; Defined at:
  5560 ;;		line 19 in file "C:\Users\USER\OneDrive\Desktop\Studying\Midterm\Code.c"
  5561 ;; Parameters:    Size  Location     Type
  5562 ;;		None
  5563 ;; Auto vars:     Size  Location     Type
  5564 ;;		None
  5565 ;; Return value:  Size  Location     Type
  5566 ;;		None               void
  5567 ;; Registers used:
  5568 ;;		wreg, fsr0l, fsr0h, status,2, status,0, btemp+1, pclath, cstack
  5569 ;; Tracked objects:
  5570 ;;		On entry : 0/0
  5571 ;;		On exit  : 0/0
  5572 ;;		Unchanged: 0/0
  5573 ;; Data sizes:     COMMON   BANK0   BANK1   BANK3   BANK2
  5574 ;;      Params:         0       0       0       0       0
  5575 ;;      Locals:         0       0       0       0       0
  5576 ;;      Temps:          0       0       0       0       0
  5577 ;;      Totals:         0       0       0       0       0
  5578 ;;Total ram usage:        0 bytes
  5579 ;; Hardware stack levels used:    1
  5580 ;; Hardware stack levels required when called:    3
  5581 ;; This function calls:
  5582 ;;		_init_a2d
  5583 ;;		_lcd_init
  5584 ;;		_lcd_clear
  5585 ;;		_lcd_puts
  5586 ;;		_DelayMs
  5587 ;; This function is called by:
  5588 ;;		_main
  5589 ;; This function uses a non-reentrant model
  5590 ;;
  5591                           psect	text1251
  5592                           	file	"C:\Users\USER\OneDrive\Desktop\Studying\Midterm\Code.c"
  5593                           	line	19
  5594                           	global	__size_of_InitMain
  5595  0031                     	__size_of_InitMain	equ	__end_of_InitMain-_InitMain
  5596                           	
  5597  1456                     _InitMain:	
  5598                           	opt	stack 4
  5599                           ; Regs used in _InitMain: [wreg-fsr0h+status,2+status,0+btemp+1+pclath+cstack]
  5600                           	line	20
  5601                           	
  5602  1456                     l7143:	
  5603                           ;Code.c: 20: nRBPU = 0;
  5604  1456  1683               	bsf	status, 5	;RP0=1, select bank1
  5605  1457  1303               	bcf	status, 6	;RP1=0, select bank1
  5606  1458  1381               	bcf	(1039/8)^080h,(1039)&7
  5607                           	line	21
  5608                           	
  5609  1459                     l7145:	
  5610                           ;Code.c: 21: TRISD = 0;
  5611  1459  0188               	clrf	(136)^080h	;volatile
  5612                           	line	22
  5613                           ;Code.c: 22: TRISC = 0;
  5614  145A  0187               	clrf	(135)^080h	;volatile
  5615                           	line	23
  5616                           ;Code.c: 23: TRISE = 0;
  5617  145B  0189               	clrf	(137)^080h	;volatile
  5618                           	line	24
  5619                           ;Code.c: 24: TRISB = 0;
  5620  145C  0186               	clrf	(134)^080h	;volatile
  5621                           	line	25
  5622                           	
  5623  145D                     l7147:	
  5624                           ;Code.c: 25: TRISA = 0xFF;
  5625  145D  30FF               	movlw	(0FFh)
  5626  145E  0085               	movwf	(133)^080h	;volatile
  5627                           	line	27
  5628                           	
  5629  145F                     l7149:	
  5630                           ;Code.c: 27: ADCON1 = 3;
  5631  145F  3003               	movlw	(03h)
  5632  1460  009F               	movwf	(159)^080h	;volatile
  5633                           	line	28
  5634                           	
  5635  1461                     l7151:	
  5636                           ;Code.c: 28: init_a2d();
  5637  1461  160A  118A  22F3   	fcall	_init_a2d
              160A  118A         
  5638                           	line	31
  5639                           	
  5640  1466                     l7153:	
  5641                           ;Code.c: 31: lcd_init();
  5642  1466  160A  118A  263D   	fcall	_lcd_init
              160A  118A         
  5643                           	line	32
  5644                           	
  5645  146B                     l7155:	
  5646                           ;Code.c: 32: lcd_clear();
  5647  146B  160A  118A  2319   	fcall	_lcd_clear
              160A  118A         
  5648                           	line	33
  5649                           	
  5650  1470                     l7157:	
  5651                           ;Code.c: 33: lcd_puts("Starting...");
  5652  1470  3047               	movlw	low((STR_1-__stringbase))
  5653  1471  1283               	bcf	status, 5	;RP0=0, select bank0
  5654  1472  1303               	bcf	status, 6	;RP1=0, select bank0
  5655  1473  00A0               	movwf	(?_lcd_puts)
  5656  1474  3080               	movlw	80h
  5657  1475  00A1               	movwf	(?_lcd_puts+1)
  5658  1476  160A  118A  23FF   	fcall	_lcd_puts
              160A  118A         
  5659                           	line	34
  5660                           	
  5661  147B                     l7159:	
  5662                           ;Code.c: 34: DelayMs(1000);
  5663  147B  30E8               	movlw	(0E8h)
  5664  147C  160A  118A  2398   	fcall	_DelayMs
              160A  118A         
  5665                           	line	35
  5666                           	
  5667  1481                     l7161:	
  5668                           ;Code.c: 35: lcd_clear();
  5669  1481  160A  118A  2319   	fcall	_lcd_clear
              160A  118A         
  5670                           	line	38
  5671                           	
  5672  1486                     l717:	
  5673  1486  0008               	return
  5674                           	opt stack 0
  5675                           GLOBAL	__end_of_InitMain
  5676  1487                     	__end_of_InitMain:
  5677 ;; =============== function _InitMain ends ============
  5678                           
  5679                           	signat	_InitMain,88
  5680                           	global	_ldexp
  5681                           psect	text1252,local,class=CODE,delta=2
  5682                           global __ptext1252
  5683  09E5                     __ptext1252:
  5684                           
  5685 ;; *************** function _ldexp *****************
  5686 ;; Defined at:
  5687 ;;		line 278 in file "C:\Program Files (x86)\HI-TECH Software\PICC\9.83\sources\frexp.c"
  5688 ;; Parameters:    Size  Location     Type
  5689 ;;  value           3   58[BANK0 ] float 
  5690 ;;  newexp          2   61[BANK0 ] int 
  5691 ;; Auto vars:     Size  Location     Type
  5692 ;;		None
  5693 ;; Return value:  Size  Location     Type
  5694 ;;                  3   58[BANK0 ] int 
  5695 ;; Registers used:
  5696 ;;		wreg, status,2, status,0, btemp+1, pclath, cstack
  5697 ;; Tracked objects:
  5698 ;;		On entry : 0/0
  5699 ;;		On exit  : 0/0
  5700 ;;		Unchanged: 0/0
  5701 ;; Data sizes:     COMMON   BANK0   BANK1   BANK3   BANK2
  5702 ;;      Params:         0       5       0       0       0
  5703 ;;      Locals:         0       3       0       0       0
  5704 ;;      Temps:          0       2       0       0       0
  5705 ;;      Totals:         0      10       0       0       0
  5706 ;;Total ram usage:       10 bytes
  5707 ;; Hardware stack levels used:    1
  5708 ;; Hardware stack levels required when called:    2
  5709 ;; This function calls:
  5710 ;;		___ftge
  5711 ;;		___ftneg
  5712 ;; This function is called by:
  5713 ;;		_exp
  5714 ;; This function uses a non-reentrant model
  5715 ;;
  5716                           psect	text1252
  5717                           	file	"C:\Program Files (x86)\HI-TECH Software\PICC\9.83\sources\frexp.c"
  5718                           	line	278
  5719                           	global	__size_of_ldexp
  5720  00C4                     	__size_of_ldexp	equ	__end_of_ldexp-_ldexp
  5721                           	
  5722  09E5                     _ldexp:	
  5723                           	opt	stack 2
  5724                           ; Regs used in _ldexp: [wreg+status,2+status,0+btemp+1+pclath+cstack]
  5725                           	line	279
  5726                           	
  5727  09E5                     l7093:	
  5728  09E5  1283               	bcf	status, 5	;RP0=0, select bank0
  5729  09E6  1303               	bcf	status, 6	;RP1=0, select bank0
  5730  09E7  085C               	movf	(ldexp@value+2),w
  5731  09E8  045B               	iorwf	(ldexp@value+1),w
  5732  09E9  045A               	iorwf	(ldexp@value),w
  5733  09EA  1D03               	skipz
  5734  09EB  29ED               	goto	u5141
  5735  09EC  29EE               	goto	u5140
  5736  09ED                     u5141:
  5737  09ED  29F6               	goto	l7099
  5738  09EE                     u5140:
  5739                           	line	280
  5740                           	
  5741  09EE                     l7095:	
  5742  09EE  3000               	movlw	0x0
  5743  09EF  00DA               	movwf	(?_ldexp)
  5744  09F0  3000               	movlw	0x0
  5745  09F1  00DB               	movwf	(?_ldexp+1)
  5746  09F2  3000               	movlw	0x0
  5747  09F3  00DC               	movwf	(?_ldexp+2)
  5748  09F4  2AA8               	goto	l3266
  5749                           	
  5750  09F5                     l7097:	
  5751  09F5  2AA8               	goto	l3266
  5752                           	
  5753  09F6                     l3265:	
  5754                           	line	282
  5755                           	
  5756  09F6                     l7099:	
  5757  09F6  085C               	movf	0+(ldexp@value)+02h,w
  5758  09F7  397F               	andlw	(1<<7)-1
  5759  09F8  00DF               	movwf	(??_ldexp+0)+0
  5760  09F9  01E0               	clrf	(??_ldexp+0)+0+1
  5761  09FA  3001               	movlw	01h
  5762  09FB  00FF               	movwf	btemp+1
  5763  09FC                     u5155:
  5764  09FC  1003               	clrc
  5765  09FD  0DDF               	rlf	(??_ldexp+0)+0,f
  5766  09FE  0DE0               	rlf	(??_ldexp+0)+1,f
  5767  09FF  0BFF               	decfsz	btemp+1,f
  5768  0A00  29FC               	goto	u5155
  5769  0A01  085F               	movf	0+(??_ldexp+0)+0,w
  5770  0A02  07DD               	addwf	(ldexp@newexp),f
  5771  0A03  1803               	skipnc
  5772  0A04  0ADE               	incf	(ldexp@newexp+1),f
  5773  0A05  0860               	movf	1+(??_ldexp+0)+0,w
  5774  0A06  07DE               	addwf	(ldexp@newexp+1),f
  5775                           	line	283
  5776                           	
  5777  0A07                     l7101:	
  5778  0A07  0D5B               	rlf	0+(ldexp@value)+01h,w
  5779  0A08  0D5B               	rlf	0+(ldexp@value)+01h,w
  5780  0A09  3901               	andlw	1
  5781  0A0A  00DF               	movwf	(??_ldexp+0)+0
  5782  0A0B  01E0               	clrf	(??_ldexp+0)+0+1
  5783  0A0C  085F               	movf	0+(??_ldexp+0)+0,w
  5784  0A0D  07DD               	addwf	(ldexp@newexp),f
  5785  0A0E  1803               	skipnc
  5786  0A0F  0ADE               	incf	(ldexp@newexp+1),f
  5787  0A10  0860               	movf	1+(??_ldexp+0)+0,w
  5788  0A11  07DE               	addwf	(ldexp@newexp+1),f
  5789                           	line	287
  5790                           	
  5791  0A12                     l7103:	
  5792  0A12  1FDE               	btfss	(ldexp@newexp+1),7
  5793  0A13  2A15               	goto	u5161
  5794  0A14  2A16               	goto	u5160
  5795  0A15                     u5161:
  5796  0A15  2A23               	goto	l7111
  5797  0A16                     u5160:
  5798                           	line	288
  5799                           	
  5800  0A16                     l7105:	
  5801  0A16  3022               	movlw	low(022h)
  5802  0A17  00F8               	movwf	(_errno)
  5803  0A18  3000               	movlw	high(022h)
  5804  0A19  00F9               	movwf	((_errno))+1
  5805                           	line	289
  5806  0A1A  3000               	movlw	0x0
  5807  0A1B  00DA               	movwf	(?_ldexp)
  5808  0A1C  3000               	movlw	0x0
  5809  0A1D  00DB               	movwf	(?_ldexp+1)
  5810  0A1E  3000               	movlw	0x0
  5811  0A1F  00DC               	movwf	(?_ldexp+2)
  5812  0A20  2AA8               	goto	l3266
  5813                           	
  5814  0A21                     l7107:	
  5815  0A21  2AA8               	goto	l3266
  5816                           	line	290
  5817                           	
  5818  0A22                     l7109:	
  5819  0A22  2AA7               	goto	l7139
  5820                           	line	291
  5821                           	
  5822  0A23                     l3267:	
  5823                           	
  5824  0A23                     l7111:	
  5825  0A23  085E               	movf	(ldexp@newexp+1),w
  5826  0A24  3A80               	xorlw	80h
  5827  0A25  00FF               	movwf	btemp+1
  5828  0A26  3081               	movlw	(high(0100h))^80h
  5829  0A27  027F               	subwf	btemp+1,w
  5830  0A28  1D03               	skipz
  5831  0A29  2A2C               	goto	u5175
  5832  0A2A  3000               	movlw	low(0100h)
  5833  0A2B  025D               	subwf	(ldexp@newexp),w
  5834  0A2C                     u5175:
  5835                           
  5836  0A2C  1C03               	skipc
  5837  0A2D  2A2F               	goto	u5171
  5838  0A2E  2A30               	goto	u5170
  5839  0A2F                     u5171:
  5840  0A2F  2A89               	goto	l7135
  5841  0A30                     u5170:
  5842                           	line	292
  5843                           	
  5844  0A30                     l7113:	
  5845  0A30  3022               	movlw	low(022h)
  5846  0A31  00F8               	movwf	(_errno)
  5847  0A32  3000               	movlw	high(022h)
  5848  0A33  00F9               	movwf	((_errno))+1
  5849                           	line	293
  5850                           	
  5851  0A34                     l7115:	
  5852  0A34  1283               	bcf	status, 5	;RP0=0, select bank0
  5853  0A35  1303               	bcf	status, 6	;RP1=0, select bank0
  5854  0A36  085A               	movf	(ldexp@value),w
  5855  0A37  00A0               	movwf	(?___ftge)
  5856  0A38  085B               	movf	(ldexp@value+1),w
  5857  0A39  00A1               	movwf	(?___ftge+1)
  5858  0A3A  085C               	movf	(ldexp@value+2),w
  5859  0A3B  00A2               	movwf	(?___ftge+2)
  5860  0A3C  3000               	movlw	0x0
  5861  0A3D  00A3               	movwf	0+(?___ftge)+03h
  5862  0A3E  3000               	movlw	0x0
  5863  0A3F  00A4               	movwf	1+(?___ftge)+03h
  5864  0A40  3000               	movlw	0x0
  5865  0A41  00A5               	movwf	2+(?___ftge)+03h
  5866  0A42  160A  118A  2696   	fcall	___ftge
              120A  158A         
  5867  0A47  1803               	btfsc	status,0
  5868  0A48  2A4A               	goto	u5181
  5869  0A49  2A4B               	goto	u5180
  5870  0A4A                     u5181:
  5871  0A4A  2A7D               	goto	l7131
  5872  0A4B                     u5180:
  5873  0A4B  2A56               	goto	l7121
  5874                           	line	294
  5875                           	
  5876  0A4C                     l7117:	
  5877  0A4C  2A56               	goto	l7121
  5878                           	
  5879  0A4D                     l7119:	
  5880  0A4D  3000               	movlw	0x0
  5881  0A4E  1283               	bcf	status, 5	;RP0=0, select bank0
  5882  0A4F  1303               	bcf	status, 6	;RP1=0, select bank0
  5883  0A50  00E1               	movwf	(_ldexp$3587)
  5884  0A51  3080               	movlw	0x80
  5885  0A52  00E2               	movwf	(_ldexp$3587+1)
  5886  0A53  307F               	movlw	0x7f
  5887  0A54  00E3               	movwf	(_ldexp$3587+2)
  5888  0A55  2A5F               	goto	l7123
  5889                           	
  5890  0A56                     l3272:	
  5891                           	
  5892  0A56                     l7121:	
  5893  0A56  30FF               	movlw	0xff
  5894  0A57  1283               	bcf	status, 5	;RP0=0, select bank0
  5895  0A58  1303               	bcf	status, 6	;RP1=0, select bank0
  5896  0A59  00E1               	movwf	(_ldexp$3587)
  5897  0A5A  307F               	movlw	0x7f
  5898  0A5B  00E2               	movwf	(_ldexp$3587+1)
  5899  0A5C  307F               	movlw	0x7f
  5900  0A5D  00E3               	movwf	(_ldexp$3587+2)
  5901  0A5E  2A5F               	goto	l7123
  5902                           	
  5903  0A5F                     l3274:	
  5904                           	
  5905  0A5F                     l7123:	
  5906  0A5F  0861               	movf	(_ldexp$3587),w
  5907  0A60  00A5               	movwf	(?___ftneg)
  5908  0A61  0862               	movf	(_ldexp$3587+1),w
  5909  0A62  00A6               	movwf	(?___ftneg+1)
  5910  0A63  0863               	movf	(_ldexp$3587+2),w
  5911  0A64  00A7               	movwf	(?___ftneg+2)
  5912  0A65  160A  118A  230B   	fcall	___ftneg
              120A  158A         
  5913  0A6A  1283               	bcf	status, 5	;RP0=0, select bank0
  5914  0A6B  1303               	bcf	status, 6	;RP1=0, select bank0
  5915  0A6C  0825               	movf	(0+(?___ftneg)),w
  5916  0A6D  00DA               	movwf	(?_ldexp)
  5917  0A6E  0826               	movf	(1+(?___ftneg)),w
  5918  0A6F  00DB               	movwf	(?_ldexp+1)
  5919  0A70  0827               	movf	(2+(?___ftneg)),w
  5920  0A71  00DC               	movwf	(?_ldexp+2)
  5921  0A72  2AA8               	goto	l3266
  5922                           	
  5923  0A73                     l7125:	
  5924  0A73  2AA8               	goto	l3266
  5925                           	
  5926  0A74                     l7127:	
  5927  0A74  2AA7               	goto	l7139
  5928                           	line	295
  5929                           	
  5930  0A75                     l3270:	
  5931                           	line	296
  5932  0A75  2A7D               	goto	l7131
  5933                           	
  5934  0A76                     l7129:	
  5935  0A76  3000               	movlw	0x0
  5936  0A77  00DA               	movwf	(?_ldexp)
  5937  0A78  3080               	movlw	0x80
  5938  0A79  00DB               	movwf	(?_ldexp+1)
  5939  0A7A  307F               	movlw	0x7f
  5940  0A7B  00DC               	movwf	(?_ldexp+2)
  5941  0A7C  2AA8               	goto	l3266
  5942                           	
  5943  0A7D                     l3277:	
  5944                           	
  5945  0A7D                     l7131:	
  5946  0A7D  30FF               	movlw	0xff
  5947  0A7E  1283               	bcf	status, 5	;RP0=0, select bank0
  5948  0A7F  1303               	bcf	status, 6	;RP1=0, select bank0
  5949  0A80  00DA               	movwf	(?_ldexp)
  5950  0A81  307F               	movlw	0x7f
  5951  0A82  00DB               	movwf	(?_ldexp+1)
  5952  0A83  307F               	movlw	0x7f
  5953  0A84  00DC               	movwf	(?_ldexp+2)
  5954  0A85  2AA8               	goto	l3266
  5955                           	
  5956  0A86                     l3279:	
  5957  0A86  2AA8               	goto	l3266
  5958                           	
  5959  0A87                     l7133:	
  5960  0A87  2AA8               	goto	l3266
  5961                           	
  5962  0A88                     l3275:	
  5963                           	line	297
  5964  0A88  2AA7               	goto	l7139
  5965                           	line	298
  5966                           	
  5967  0A89                     l3269:	
  5968                           	line	300
  5969                           	
  5970  0A89                     l7135:	
  5971  0A89  1283               	bcf	status, 5	;RP0=0, select bank0
  5972  0A8A  1303               	bcf	status, 6	;RP1=0, select bank0
  5973  0A8B  085E               	movf	(ldexp@newexp+1),w
  5974  0A8C  00E0               	movwf	(??_ldexp+0)+0+1
  5975  0A8D  085D               	movf	(ldexp@newexp),w
  5976  0A8E  00DF               	movwf	(??_ldexp+0)+0
  5977  0A8F  3001               	movlw	01h
  5978  0A90  00FF               	movwf	btemp+1
  5979  0A91                     u5195:
  5980  0A91  0D60               	rlf	(??_ldexp+0)+1,w
  5981  0A92  0CE0               	rrf	(??_ldexp+0)+1,f
  5982  0A93  0CDF               	rrf	(??_ldexp+0)+0,f
  5983  0A94  0BFF               	decfsz	btemp+1,f
  5984  0A95  2A91               	goto	u5195
  5985  0A96  085C               	movf	0+(ldexp@value)+02h,w
  5986  0A97  065F               	xorwf	0+(??_ldexp+0)+0,w
  5987  0A98  3980               	andlw	not ((1<<7)-1)
  5988  0A99  065F               	xorwf	0+(??_ldexp+0)+0,w
  5989  0A9A  00DC               	movwf	0+(ldexp@value)+02h
  5990                           	line	301
  5991                           	
  5992  0A9B                     l7137:	
  5993  0A9B  085D               	movf	(ldexp@newexp),w
  5994  0A9C  3901               	andlw	01h
  5995  0A9D  00DF               	movwf	(??_ldexp+0)+0
  5996  0A9E  0CDF               	rrf	(??_ldexp+0)+0,f
  5997  0A9F  0CDF               	rrf	(??_ldexp+0)+0,f
  5998  0AA0  085B               	movf	0+(ldexp@value)+01h,w
  5999  0AA1  065F               	xorwf	(??_ldexp+0)+0,w
  6000  0AA2  397F               	andlw	not (((1<<1)-1)<<7)
  6001  0AA3  065F               	xorwf	(??_ldexp+0)+0,w
  6002  0AA4  00DB               	movwf	0+(ldexp@value)+01h
  6003  0AA5  2AA7               	goto	l7139
  6004                           	line	305
  6005                           	
  6006  0AA6                     l3280:	
  6007  0AA6  2AA7               	goto	l7139
  6008                           	
  6009  0AA7                     l3268:	
  6010                           	line	306
  6011                           	
  6012  0AA7                     l7139:	
  6013  0AA7  2AA8               	goto	l3266
  6014                           	
  6015  0AA8                     l7141:	
  6016                           	line	307
  6017                           	
  6018  0AA8                     l3266:	
  6019  0AA8  0008               	return
  6020                           	opt stack 0
  6021                           GLOBAL	__end_of_ldexp
  6022  0AA9                     	__end_of_ldexp:
  6023 ;; =============== function _ldexp ends ============
  6024                           
  6025                           	signat	_ldexp,8315
  6026                           	global	___lltoft
  6027                           psect	text1253,local,class=CODE,delta=2
  6028                           global __ptext1253
  6029  1487                     __ptext1253:
  6030                           
  6031 ;; *************** function ___lltoft *****************
  6032 ;; Defined at:
  6033 ;;		line 36 in file "C:\Program Files (x86)\HI-TECH Software\PICC\9.83\sources\lltoft.c"
  6034 ;; Parameters:    Size  Location     Type
  6035 ;;  c               4    5[BANK0 ] unsigned long 
  6036 ;; Auto vars:     Size  Location     Type
  6037 ;;  exp             1    9[BANK0 ] unsigned char 
  6038 ;; Return value:  Size  Location     Type
  6039 ;;                  3    5[BANK0 ] float 
  6040 ;; Registers used:
  6041 ;;		wreg, status,2, status,0, pclath, cstack
  6042 ;; Tracked objects:
  6043 ;;		On entry : 0/0
  6044 ;;		On exit  : 0/0
  6045 ;;		Unchanged: 0/0
  6046 ;; Data sizes:     COMMON   BANK0   BANK1   BANK3   BANK2
  6047 ;;      Params:         0       4       0       0       0
  6048 ;;      Locals:         0       1       0       0       0
  6049 ;;      Temps:          1       0       0       0       0
  6050 ;;      Totals:         1       5       0       0       0
  6051 ;;Total ram usage:        6 bytes
  6052 ;; Hardware stack levels used:    1
  6053 ;; Hardware stack levels required when called:    2
  6054 ;; This function calls:
  6055 ;;		___ftpack
  6056 ;; This function is called by:
  6057 ;;		_pow
  6058 ;; This function uses a non-reentrant model
  6059 ;;
  6060                           psect	text1253
  6061                           	file	"C:\Program Files (x86)\HI-TECH Software\PICC\9.83\sources\lltoft.c"
  6062                           	line	36
  6063                           	global	__size_of___lltoft
  6064  0036                     	__size_of___lltoft	equ	__end_of___lltoft-___lltoft
  6065                           	
  6066  1487                     ___lltoft:	
  6067                           	opt	stack 3
  6068                           ; Regs used in ___lltoft: [wreg+status,2+status,0+pclath+cstack]
  6069                           	line	38
  6070                           	
  6071  1487                     l7083:	
  6072  1487  308E               	movlw	(08Eh)
  6073  1488  00F7               	movwf	(??___lltoft+0)+0
  6074  1489  0877               	movf	(??___lltoft+0)+0,w
  6075  148A  1283               	bcf	status, 5	;RP0=0, select bank0
  6076  148B  1303               	bcf	status, 6	;RP1=0, select bank0
  6077  148C  00A9               	movwf	(___lltoft@exp)
  6078                           	line	41
  6079  148D  2C9C               	goto	l7087
  6080                           	
  6081  148E                     l3113:	
  6082                           	line	42
  6083                           	
  6084  148E                     l7085:	
  6085  148E  3001               	movlw	01h
  6086  148F                     u5125:
  6087  148F  1003               	clrc
  6088  1490  0CA8               	rrf	(___lltoft@c+3),f
  6089  1491  0CA7               	rrf	(___lltoft@c+2),f
  6090  1492  0CA6               	rrf	(___lltoft@c+1),f
  6091  1493  0CA5               	rrf	(___lltoft@c),f
  6092  1494  3EFF               	addlw	-1
  6093  1495  1D03               	skipz
  6094  1496  2C8F               	goto	u5125
  6095                           
  6096                           	line	43
  6097  1497  3001               	movlw	(01h)
  6098  1498  00F7               	movwf	(??___lltoft+0)+0
  6099  1499  0877               	movf	(??___lltoft+0)+0,w
  6100  149A  07A9               	addwf	(___lltoft@exp),f
  6101  149B  2C9C               	goto	l7087
  6102                           	line	44
  6103                           	
  6104  149C                     l3112:	
  6105                           	line	41
  6106                           	
  6107  149C                     l7087:	
  6108  149C  30FF               	movlw	high highword(-16777216)
  6109  149D  0528               	andwf	(___lltoft@c+3),w
  6110  149E  1D03               	btfss	status,2
  6111  149F  2CA1               	goto	u5131
  6112  14A0  2CA2               	goto	u5130
  6113  14A1                     u5131:
  6114  14A1  2C8E               	goto	l7085
  6115  14A2                     u5130:
  6116  14A2  2CA3               	goto	l7089
  6117                           	
  6118  14A3                     l3114:	
  6119                           	line	45
  6120                           	
  6121  14A3                     l7089:	
  6122  14A3  0825               	movf	(___lltoft@c),w
  6123  14A4  00A0               	movwf	(?___ftpack)
  6124  14A5  0826               	movf	(___lltoft@c+1),w
  6125  14A6  00A1               	movwf	(?___ftpack+1)
  6126  14A7  0827               	movf	(___lltoft@c+2),w
  6127  14A8  00A2               	movwf	(?___ftpack+2)
  6128  14A9  0829               	movf	(___lltoft@exp),w
  6129  14AA  00F7               	movwf	(??___lltoft+0)+0
  6130  14AB  0877               	movf	(??___lltoft+0)+0,w
  6131  14AC  00A3               	movwf	0+(?___ftpack)+03h
  6132  14AD  01A4               	clrf	0+(?___ftpack)+04h
  6133  14AE  160A  118A  2704   	fcall	___ftpack
              160A  118A         
  6134  14B3  1283               	bcf	status, 5	;RP0=0, select bank0
  6135  14B4  1303               	bcf	status, 6	;RP1=0, select bank0
  6136  14B5  0820               	movf	(0+(?___ftpack)),w
  6137  14B6  00A5               	movwf	(?___lltoft)
  6138  14B7  0821               	movf	(1+(?___ftpack)),w
  6139  14B8  00A6               	movwf	(?___lltoft+1)
  6140  14B9  0822               	movf	(2+(?___ftpack)),w
  6141  14BA  00A7               	movwf	(?___lltoft+2)
  6142  14BB  2CBC               	goto	l3115
  6143                           	
  6144  14BC                     l7091:	
  6145                           	line	46
  6146                           	
  6147  14BC                     l3115:	
  6148  14BC  0008               	return
  6149                           	opt stack 0
  6150                           GLOBAL	__end_of___lltoft
  6151  14BD                     	__end_of___lltoft:
  6152 ;; =============== function ___lltoft ends ============
  6153                           
  6154                           	signat	___lltoft,4219
  6155                           	global	___altoft
  6156                           psect	text1254,local,class=CODE,delta=2
  6157                           global __ptext1254
  6158  154F                     __ptext1254:
  6159                           
  6160 ;; *************** function ___altoft *****************
  6161 ;; Defined at:
  6162 ;;		line 43 in file "C:\Program Files (x86)\HI-TECH Software\PICC\9.83\sources\altoft.c"
  6163 ;; Parameters:    Size  Location     Type
  6164 ;;  c               4   10[BANK0 ] long 
  6165 ;; Auto vars:     Size  Location     Type
  6166 ;;  sign            1   17[BANK0 ] unsigned char 
  6167 ;;  exp             1   16[BANK0 ] unsigned char 
  6168 ;; Return value:  Size  Location     Type
  6169 ;;                  3   10[BANK0 ] float 
  6170 ;; Registers used:
  6171 ;;		wreg, status,2, status,0, pclath, cstack
  6172 ;; Tracked objects:
  6173 ;;		On entry : 0/0
  6174 ;;		On exit  : 0/0
  6175 ;;		Unchanged: 0/0
  6176 ;; Data sizes:     COMMON   BANK0   BANK1   BANK3   BANK2
  6177 ;;      Params:         0       4       0       0       0
  6178 ;;      Locals:         0       2       0       0       0
  6179 ;;      Temps:          0       2       0       0       0
  6180 ;;      Totals:         0       8       0       0       0
  6181 ;;Total ram usage:        8 bytes
  6182 ;; Hardware stack levels used:    1
  6183 ;; Hardware stack levels required when called:    2
  6184 ;; This function calls:
  6185 ;;		___ftpack
  6186 ;; This function is called by:
  6187 ;;		_floor
  6188 ;; This function uses a non-reentrant model
  6189 ;;
  6190                           psect	text1254
  6191                           	file	"C:\Program Files (x86)\HI-TECH Software\PICC\9.83\sources\altoft.c"
  6192                           	line	43
  6193                           	global	__size_of___altoft
  6194  004D                     	__size_of___altoft	equ	__end_of___altoft-___altoft
  6195                           	
  6196  154F                     ___altoft:	
  6197                           	opt	stack 1
  6198                           ; Regs used in ___altoft: [wreg+status,2+status,0+pclath+cstack]
  6199                           	line	45
  6200                           	
  6201  154F                     l7065:	
  6202  154F  1283               	bcf	status, 5	;RP0=0, select bank0
  6203  1550  1303               	bcf	status, 6	;RP1=0, select bank0
  6204  1551  01B1               	clrf	(___altoft@sign)
  6205                           	line	46
  6206                           	
  6207  1552                     l7067:	
  6208  1552  308E               	movlw	(08Eh)
  6209  1553  00AE               	movwf	(??___altoft+0)+0
  6210  1554  082E               	movf	(??___altoft+0)+0,w
  6211  1555  00B0               	movwf	(___altoft@exp)
  6212                           	line	47
  6213                           	
  6214  1556                     l7069:	
  6215  1556  1FAD               	btfss	(___altoft@c+3),7
  6216  1557  2D59               	goto	u5091
  6217  1558  2D5A               	goto	u5090
  6218  1559                     u5091:
  6219  1559  2D78               	goto	l7077
  6220  155A                     u5090:
  6221                           	line	48
  6222                           	
  6223  155A                     l7071:	
  6224  155A  09AA               	comf	(___altoft@c),f
  6225  155B  09AB               	comf	(___altoft@c+1),f
  6226  155C  09AC               	comf	(___altoft@c+2),f
  6227  155D  09AD               	comf	(___altoft@c+3),f
  6228  155E  0AAA               	incf	(___altoft@c),f
  6229  155F  1903               	skipnz
  6230  1560  0AAB               	incf	(___altoft@c+1),f
  6231  1561  1903               	skipnz
  6232  1562  0AAC               	incf	(___altoft@c+2),f
  6233  1563  1903               	skipnz
  6234  1564  0AAD               	incf	(___altoft@c+3),f
  6235                           	line	49
  6236                           	
  6237  1565                     l7073:	
  6238  1565  01B1               	clrf	(___altoft@sign)
  6239  1566  1403               	bsf	status,0
  6240  1567  0DB1               	rlf	(___altoft@sign),f
  6241  1568  2D78               	goto	l7077
  6242                           	line	50
  6243                           	
  6244  1569                     l3103:	
  6245                           	line	52
  6246  1569  2D78               	goto	l7077
  6247                           	
  6248  156A                     l3105:	
  6249                           	line	53
  6250                           	
  6251  156A                     l7075:	
  6252  156A  3001               	movlw	01h
  6253  156B                     u5105:
  6254  156B  1003               	clrc
  6255  156C  0CAD               	rrf	(___altoft@c+3),f
  6256  156D  0CAC               	rrf	(___altoft@c+2),f
  6257  156E  0CAB               	rrf	(___altoft@c+1),f
  6258  156F  0CAA               	rrf	(___altoft@c),f
  6259  1570  3EFF               	addlw	-1
  6260  1571  1D03               	skipz
  6261  1572  2D6B               	goto	u5105
  6262                           
  6263                           	line	54
  6264  1573  3001               	movlw	(01h)
  6265  1574  00AE               	movwf	(??___altoft+0)+0
  6266  1575  082E               	movf	(??___altoft+0)+0,w
  6267  1576  07B0               	addwf	(___altoft@exp),f
  6268  1577  2D78               	goto	l7077
  6269                           	line	55
  6270                           	
  6271  1578                     l3104:	
  6272                           	line	52
  6273                           	
  6274  1578                     l7077:	
  6275  1578  30FF               	movlw	high highword(-16777216)
  6276  1579  052D               	andwf	(___altoft@c+3),w
  6277  157A  1D03               	btfss	status,2
  6278  157B  2D7D               	goto	u5111
  6279  157C  2D7E               	goto	u5110
  6280  157D                     u5111:
  6281  157D  2D6A               	goto	l7075
  6282  157E                     u5110:
  6283  157E  2D7F               	goto	l7079
  6284                           	
  6285  157F                     l3106:	
  6286                           	line	56
  6287                           	
  6288  157F                     l7079:	
  6289  157F  082A               	movf	(___altoft@c),w
  6290  1580  00A0               	movwf	(?___ftpack)
  6291  1581  082B               	movf	(___altoft@c+1),w
  6292  1582  00A1               	movwf	(?___ftpack+1)
  6293  1583  082C               	movf	(___altoft@c+2),w
  6294  1584  00A2               	movwf	(?___ftpack+2)
  6295  1585  0830               	movf	(___altoft@exp),w
  6296  1586  00AE               	movwf	(??___altoft+0)+0
  6297  1587  082E               	movf	(??___altoft+0)+0,w
  6298  1588  00A3               	movwf	0+(?___ftpack)+03h
  6299  1589  0831               	movf	(___altoft@sign),w
  6300  158A  00AF               	movwf	(??___altoft+1)+0
  6301  158B  082F               	movf	(??___altoft+1)+0,w
  6302  158C  00A4               	movwf	0+(?___ftpack)+04h
  6303  158D  160A  118A  2704   	fcall	___ftpack
              160A  118A         
  6304  1592  1283               	bcf	status, 5	;RP0=0, select bank0
  6305  1593  1303               	bcf	status, 6	;RP1=0, select bank0
  6306  1594  0820               	movf	(0+(?___ftpack)),w
  6307  1595  00AA               	movwf	(?___altoft)
  6308  1596  0821               	movf	(1+(?___ftpack)),w
  6309  1597  00AB               	movwf	(?___altoft+1)
  6310  1598  0822               	movf	(2+(?___ftpack)),w
  6311  1599  00AC               	movwf	(?___altoft+2)
  6312  159A  2D9B               	goto	l3107
  6313                           	
  6314  159B                     l7081:	
  6315                           	line	57
  6316                           	
  6317  159B                     l3107:	
  6318  159B  0008               	return
  6319                           	opt stack 0
  6320                           GLOBAL	__end_of___altoft
  6321  159C                     	__end_of___altoft:
  6322 ;; =============== function ___altoft ends ============
  6323                           
  6324                           	signat	___altoft,4219
  6325                           	global	___awtoft
  6326                           psect	text1255,local,class=CODE,delta=2
  6327                           global __ptext1255
  6328  142A                     __ptext1255:
  6329                           
  6330 ;; *************** function ___awtoft *****************
  6331 ;; Defined at:
  6332 ;;		line 33 in file "C:\Program Files (x86)\HI-TECH Software\PICC\9.83\sources\awtoft.c"
  6333 ;; Parameters:    Size  Location     Type
  6334 ;;  c               2    8[BANK0 ] int 
  6335 ;; Auto vars:     Size  Location     Type
  6336 ;;  sign            1    7[COMMON] unsigned char 
  6337 ;; Return value:  Size  Location     Type
  6338 ;;                  3    8[BANK0 ] float 
  6339 ;; Registers used:
  6340 ;;		wreg, status,2, status,0, pclath, cstack
  6341 ;; Tracked objects:
  6342 ;;		On entry : 0/0
  6343 ;;		On exit  : 0/0
  6344 ;;		Unchanged: 0/0
  6345 ;; Data sizes:     COMMON   BANK0   BANK1   BANK3   BANK2
  6346 ;;      Params:         0       3       0       0       0
  6347 ;;      Locals:         1       0       0       0       0
  6348 ;;      Temps:          0       2       0       0       0
  6349 ;;      Totals:         1       5       0       0       0
  6350 ;;Total ram usage:        6 bytes
  6351 ;; Hardware stack levels used:    1
  6352 ;; Hardware stack levels required when called:    2
  6353 ;; This function calls:
  6354 ;;		___ftpack
  6355 ;; This function is called by:
  6356 ;;		_ftoa
  6357 ;;		_exp
  6358 ;;		_log
  6359 ;; This function uses a non-reentrant model
  6360 ;;
  6361                           psect	text1255
  6362                           	file	"C:\Program Files (x86)\HI-TECH Software\PICC\9.83\sources\awtoft.c"
  6363                           	line	33
  6364                           	global	__size_of___awtoft
  6365  002C                     	__size_of___awtoft	equ	__end_of___awtoft-___awtoft
  6366                           	
  6367  142A                     ___awtoft:	
  6368                           	opt	stack 2
  6369                           ; Regs used in ___awtoft: [wreg+status,2+status,0+pclath+cstack]
  6370                           	line	36
  6371                           	
  6372  142A                     l7057:	
  6373  142A  01F7               	clrf	(___awtoft@sign)
  6374                           	line	37
  6375  142B  1283               	bcf	status, 5	;RP0=0, select bank0
  6376  142C  1303               	bcf	status, 6	;RP1=0, select bank0
  6377  142D  1FA9               	btfss	(___awtoft@c+1),7
  6378  142E  2C30               	goto	u5081
  6379  142F  2C31               	goto	u5080
  6380  1430                     u5081:
  6381  1430  2C3A               	goto	l7061
  6382  1431                     u5080:
  6383                           	line	38
  6384                           	
  6385  1431                     l7059:	
  6386  1431  09A8               	comf	(___awtoft@c),f
  6387  1432  09A9               	comf	(___awtoft@c+1),f
  6388  1433  0AA8               	incf	(___awtoft@c),f
  6389  1434  1903               	skipnz
  6390  1435  0AA9               	incf	(___awtoft@c+1),f
  6391                           	line	39
  6392  1436  01F7               	clrf	(___awtoft@sign)
  6393  1437  1403               	bsf	status,0
  6394  1438  0DF7               	rlf	(___awtoft@sign),f
  6395  1439  2C3A               	goto	l7061
  6396                           	line	40
  6397                           	
  6398  143A                     l3011:	
  6399                           	line	41
  6400                           	
  6401  143A                     l7061:	
  6402  143A  0828               	movf	(___awtoft@c),w
  6403  143B  00A0               	movwf	(?___ftpack)
  6404  143C  0829               	movf	(___awtoft@c+1),w
  6405  143D  00A1               	movwf	(?___ftpack+1)
  6406  143E  01A2               	clrf	(?___ftpack+2)
  6407  143F  308E               	movlw	(08Eh)
  6408  1440  00AB               	movwf	(??___awtoft+0)+0
  6409  1441  082B               	movf	(??___awtoft+0)+0,w
  6410  1442  00A3               	movwf	0+(?___ftpack)+03h
  6411  1443  0877               	movf	(___awtoft@sign),w
  6412  1444  00AC               	movwf	(??___awtoft+1)+0
  6413  1445  082C               	movf	(??___awtoft+1)+0,w
  6414  1446  00A4               	movwf	0+(?___ftpack)+04h
  6415  1447  160A  118A  2704   	fcall	___ftpack
              160A  118A         
  6416  144C  1283               	bcf	status, 5	;RP0=0, select bank0
  6417  144D  1303               	bcf	status, 6	;RP1=0, select bank0
  6418  144E  0820               	movf	(0+(?___ftpack)),w
  6419  144F  00A8               	movwf	(?___awtoft)
  6420  1450  0821               	movf	(1+(?___ftpack)),w
  6421  1451  00A9               	movwf	(?___awtoft+1)
  6422  1452  0822               	movf	(2+(?___ftpack)),w
  6423  1453  00AA               	movwf	(?___awtoft+2)
  6424  1454  2C55               	goto	l3012
  6425                           	
  6426  1455                     l7063:	
  6427                           	line	42
  6428                           	
  6429  1455                     l3012:	
  6430  1455  0008               	return
  6431                           	opt stack 0
  6432                           GLOBAL	__end_of___awtoft
  6433  1456                     	__end_of___awtoft:
  6434 ;; =============== function ___awtoft ends ============
  6435                           
  6436                           	signat	___awtoft,4219
  6437                           	global	___lbtoft
  6438                           psect	text1256,local,class=CODE,delta=2
  6439                           global __ptext1256
  6440  13B9                     __ptext1256:
  6441                           
  6442 ;; *************** function ___lbtoft *****************
  6443 ;; Defined at:
  6444 ;;		line 28 in file "C:\Program Files (x86)\HI-TECH Software\PICC\9.83\sources\lbtoft.c"
  6445 ;; Parameters:    Size  Location     Type
  6446 ;;  c               1    wreg     unsigned char 
  6447 ;; Auto vars:     Size  Location     Type
  6448 ;;  c               1    7[COMMON] unsigned char 
  6449 ;; Return value:  Size  Location     Type
  6450 ;;                  3    5[BANK0 ] float 
  6451 ;; Registers used:
  6452 ;;		wreg, status,2, status,0, pclath, cstack
  6453 ;; Tracked objects:
  6454 ;;		On entry : 0/0
  6455 ;;		On exit  : 0/0
  6456 ;;		Unchanged: 0/0
  6457 ;; Data sizes:     COMMON   BANK0   BANK1   BANK3   BANK2
  6458 ;;      Params:         0       3       0       0       0
  6459 ;;      Locals:         1       0       0       0       0
  6460 ;;      Temps:          0       4       0       0       0
  6461 ;;      Totals:         1       7       0       0       0
  6462 ;;Total ram usage:        8 bytes
  6463 ;; Hardware stack levels used:    1
  6464 ;; Hardware stack levels required when called:    2
  6465 ;; This function calls:
  6466 ;;		___ftpack
  6467 ;; This function is called by:
  6468 ;;		_read_a2d
  6469 ;; This function uses a non-reentrant model
  6470 ;;
  6471                           psect	text1256
  6472                           	file	"C:\Program Files (x86)\HI-TECH Software\PICC\9.83\sources\lbtoft.c"
  6473                           	line	28
  6474                           	global	__size_of___lbtoft
  6475  0021                     	__size_of___lbtoft	equ	__end_of___lbtoft-___lbtoft
  6476                           	
  6477  13B9                     ___lbtoft:	
  6478                           	opt	stack 4
  6479                           ; Regs used in ___lbtoft: [wreg+status,2+status,0+pclath+cstack]
  6480                           ;___lbtoft@c stored from wreg
  6481  13B9  00F7               	movwf	(___lbtoft@c)
  6482                           	line	29
  6483                           	
  6484  13BA                     l7053:	
  6485  13BA  0877               	movf	(___lbtoft@c),w
  6486  13BB  1283               	bcf	status, 5	;RP0=0, select bank0
  6487  13BC  1303               	bcf	status, 6	;RP1=0, select bank0
  6488  13BD  00A8               	movwf	((??___lbtoft+0)+0)
  6489  13BE  01A9               	clrf	((??___lbtoft+0)+0+1)
  6490  13BF  01AA               	clrf	((??___lbtoft+0)+0+2)
  6491  13C0  0828               	movf	0+(??___lbtoft+0)+0,w
  6492  13C1  00A0               	movwf	(?___ftpack)
  6493  13C2  0829               	movf	1+(??___lbtoft+0)+0,w
  6494  13C3  00A1               	movwf	(?___ftpack+1)
  6495  13C4  082A               	movf	2+(??___lbtoft+0)+0,w
  6496  13C5  00A2               	movwf	(?___ftpack+2)
  6497  13C6  308E               	movlw	(08Eh)
  6498  13C7  00AB               	movwf	(??___lbtoft+3)+0
  6499  13C8  082B               	movf	(??___lbtoft+3)+0,w
  6500  13C9  00A3               	movwf	0+(?___ftpack)+03h
  6501  13CA  01A4               	clrf	0+(?___ftpack)+04h
  6502  13CB  160A  118A  2704   	fcall	___ftpack
              160A  118A         
  6503  13D0  1283               	bcf	status, 5	;RP0=0, select bank0
  6504  13D1  1303               	bcf	status, 6	;RP1=0, select bank0
  6505  13D2  0820               	movf	(0+(?___ftpack)),w
  6506  13D3  00A5               	movwf	(?___lbtoft)
  6507  13D4  0821               	movf	(1+(?___ftpack)),w
  6508  13D5  00A6               	movwf	(?___lbtoft+1)
  6509  13D6  0822               	movf	(2+(?___ftpack)),w
  6510  13D7  00A7               	movwf	(?___lbtoft+2)
  6511  13D8  2BD9               	goto	l3000
  6512                           	
  6513  13D9                     l7055:	
  6514                           	line	30
  6515                           	
  6516  13D9                     l3000:	
  6517  13D9  0008               	return
  6518                           	opt stack 0
  6519                           GLOBAL	__end_of___lbtoft
  6520  13DA                     	__end_of___lbtoft:
  6521 ;; =============== function ___lbtoft ends ============
  6522                           
  6523                           	signat	___lbtoft,4219
  6524                           	global	___ftmul
  6525                           psect	text1257,local,class=CODE,delta=2
  6526                           global __ptext1257
  6527  0B71                     __ptext1257:
  6528                           
  6529 ;; *************** function ___ftmul *****************
  6530 ;; Defined at:
  6531 ;;		line 52 in file "C:\Program Files (x86)\HI-TECH Software\PICC\9.83\sources\ftmul.c"
  6532 ;; Parameters:    Size  Location     Type
  6533 ;;  f1              3   42[BANK0 ] float 
  6534 ;;  f2              3   45[BANK0 ] float 
  6535 ;; Auto vars:     Size  Location     Type
  6536 ;;  f3_as_produc    3   53[BANK0 ] unsigned um
  6537 ;;  sign            1   57[BANK0 ] unsigned char 
  6538 ;;  cntr            1   56[BANK0 ] unsigned char 
  6539 ;;  exp             1   52[BANK0 ] unsigned char 
  6540 ;; Return value:  Size  Location     Type
  6541 ;;                  3   42[BANK0 ] float 
  6542 ;; Registers used:
  6543 ;;		wreg, status,2, status,0, pclath, cstack
  6544 ;; Tracked objects:
  6545 ;;		On entry : 0/0
  6546 ;;		On exit  : 0/0
  6547 ;;		Unchanged: 0/0
  6548 ;; Data sizes:     COMMON   BANK0   BANK1   BANK3   BANK2
  6549 ;;      Params:         0       6       0       0       0
  6550 ;;      Locals:         0       6       0       0       0
  6551 ;;      Temps:          0       4       0       0       0
  6552 ;;      Totals:         0      16       0       0       0
  6553 ;;Total ram usage:       16 bytes
  6554 ;; Hardware stack levels used:    1
  6555 ;; Hardware stack levels required when called:    2
  6556 ;; This function calls:
  6557 ;;		___ftpack
  6558 ;; This function is called by:
  6559 ;;		_main
  6560 ;;		_ftoa
  6561 ;;		_pow
  6562 ;;		_exp
  6563 ;;		_log
  6564 ;;		_eval_poly
  6565 ;;		_log10
  6566 ;; This function uses a non-reentrant model
  6567 ;;
  6568                           psect	text1257
  6569                           	file	"C:\Program Files (x86)\HI-TECH Software\PICC\9.83\sources\ftmul.c"
  6570                           	line	52
  6571                           	global	__size_of___ftmul
  6572  00EE                     	__size_of___ftmul	equ	__end_of___ftmul-___ftmul
  6573                           	
  6574  0B71                     ___ftmul:	
  6575                           	opt	stack 4
  6576                           ; Regs used in ___ftmul: [wreg+status,2+status,0+pclath+cstack]
  6577                           	line	56
  6578                           	
  6579  0B71                     l7003:	
  6580  0B71  1283               	bcf	status, 5	;RP0=0, select bank0
  6581  0B72  1303               	bcf	status, 6	;RP1=0, select bank0
  6582  0B73  084A               	movf	(___ftmul@f1),w
  6583  0B74  00D0               	movwf	((??___ftmul+0)+0)
  6584  0B75  084B               	movf	(___ftmul@f1+1),w
  6585  0B76  00D1               	movwf	((??___ftmul+0)+0+1)
  6586  0B77  084C               	movf	(___ftmul@f1+2),w
  6587  0B78  00D2               	movwf	((??___ftmul+0)+0+2)
  6588  0B79  1003               	clrc
  6589  0B7A  0D51               	rlf	(??___ftmul+0)+1,w
  6590  0B7B  0D52               	rlf	(??___ftmul+0)+2,w
  6591  0B7C  00D3               	movwf	(??___ftmul+3)+0
  6592  0B7D  0853               	movf	(??___ftmul+3)+0,w
  6593  0B7E  00D4               	movwf	(___ftmul@exp)
  6594  0B7F  08D4               	movf	((___ftmul@exp)),f
  6595  0B80  1D03               	skipz
  6596  0B81  2B83               	goto	u4941
  6597  0B82  2B84               	goto	u4940
  6598  0B83                     u4941:
  6599  0B83  2B8C               	goto	l7009
  6600  0B84                     u4940:
  6601                           	line	57
  6602                           	
  6603  0B84                     l7005:	
  6604  0B84  3000               	movlw	0x0
  6605  0B85  00CA               	movwf	(?___ftmul)
  6606  0B86  3000               	movlw	0x0
  6607  0B87  00CB               	movwf	(?___ftmul+1)
  6608  0B88  3000               	movlw	0x0
  6609  0B89  00CC               	movwf	(?___ftmul+2)
  6610  0B8A  2C5E               	goto	l2974
  6611                           	
  6612  0B8B                     l7007:	
  6613  0B8B  2C5E               	goto	l2974
  6614                           	
  6615  0B8C                     l2973:	
  6616                           	line	58
  6617                           	
  6618  0B8C                     l7009:	
  6619  0B8C  084D               	movf	(___ftmul@f2),w
  6620  0B8D  00D0               	movwf	((??___ftmul+0)+0)
  6621  0B8E  084E               	movf	(___ftmul@f2+1),w
  6622  0B8F  00D1               	movwf	((??___ftmul+0)+0+1)
  6623  0B90  084F               	movf	(___ftmul@f2+2),w
  6624  0B91  00D2               	movwf	((??___ftmul+0)+0+2)
  6625  0B92  1003               	clrc
  6626  0B93  0D51               	rlf	(??___ftmul+0)+1,w
  6627  0B94  0D52               	rlf	(??___ftmul+0)+2,w
  6628  0B95  00D3               	movwf	(??___ftmul+3)+0
  6629  0B96  0853               	movf	(??___ftmul+3)+0,w
  6630  0B97  00D9               	movwf	(___ftmul@sign)
  6631  0B98  08D9               	movf	((___ftmul@sign)),f
  6632  0B99  1D03               	skipz
  6633  0B9A  2B9C               	goto	u4951
  6634  0B9B  2B9D               	goto	u4950
  6635  0B9C                     u4951:
  6636  0B9C  2BA5               	goto	l7015
  6637  0B9D                     u4950:
  6638                           	line	59
  6639                           	
  6640  0B9D                     l7011:	
  6641  0B9D  3000               	movlw	0x0
  6642  0B9E  00CA               	movwf	(?___ftmul)
  6643  0B9F  3000               	movlw	0x0
  6644  0BA0  00CB               	movwf	(?___ftmul+1)
  6645  0BA1  3000               	movlw	0x0
  6646  0BA2  00CC               	movwf	(?___ftmul+2)
  6647  0BA3  2C5E               	goto	l2974
  6648                           	
  6649  0BA4                     l7013:	
  6650  0BA4  2C5E               	goto	l2974
  6651                           	
  6652  0BA5                     l2975:	
  6653                           	line	60
  6654                           	
  6655  0BA5                     l7015:	
  6656  0BA5  0859               	movf	(___ftmul@sign),w
  6657  0BA6  3E7B               	addlw	07Bh
  6658  0BA7  00D0               	movwf	(??___ftmul+0)+0
  6659  0BA8  0850               	movf	(??___ftmul+0)+0,w
  6660  0BA9  07D4               	addwf	(___ftmul@exp),f
  6661                           	line	61
  6662  0BAA  084A               	movf	(___ftmul@f1),w
  6663  0BAB  00D0               	movwf	((??___ftmul+0)+0)
  6664  0BAC  084B               	movf	(___ftmul@f1+1),w
  6665  0BAD  00D1               	movwf	((??___ftmul+0)+0+1)
  6666  0BAE  084C               	movf	(___ftmul@f1+2),w
  6667  0BAF  00D2               	movwf	((??___ftmul+0)+0+2)
  6668  0BB0  3010               	movlw	010h
  6669  0BB1                     u4965:
  6670  0BB1  1003               	clrc
  6671  0BB2  0CD2               	rrf	(??___ftmul+0)+2,f
  6672  0BB3  0CD1               	rrf	(??___ftmul+0)+1,f
  6673  0BB4  0CD0               	rrf	(??___ftmul+0)+0,f
  6674  0BB5                     u4960:
  6675  0BB5  3EFF               	addlw	-1
  6676  0BB6  1D03               	skipz
  6677  0BB7  2BB1               	goto	u4965
  6678  0BB8  0850               	movf	0+(??___ftmul+0)+0,w
  6679  0BB9  00D3               	movwf	(??___ftmul+3)+0
  6680  0BBA  0853               	movf	(??___ftmul+3)+0,w
  6681  0BBB  00D9               	movwf	(___ftmul@sign)
  6682                           	line	62
  6683  0BBC  084D               	movf	(___ftmul@f2),w
  6684  0BBD  00D0               	movwf	((??___ftmul+0)+0)
  6685  0BBE  084E               	movf	(___ftmul@f2+1),w
  6686  0BBF  00D1               	movwf	((??___ftmul+0)+0+1)
  6687  0BC0  084F               	movf	(___ftmul@f2+2),w
  6688  0BC1  00D2               	movwf	((??___ftmul+0)+0+2)
  6689  0BC2  3010               	movlw	010h
  6690  0BC3                     u4975:
  6691  0BC3  1003               	clrc
  6692  0BC4  0CD2               	rrf	(??___ftmul+0)+2,f
  6693  0BC5  0CD1               	rrf	(??___ftmul+0)+1,f
  6694  0BC6  0CD0               	rrf	(??___ftmul+0)+0,f
  6695  0BC7                     u4970:
  6696  0BC7  3EFF               	addlw	-1
  6697  0BC8  1D03               	skipz
  6698  0BC9  2BC3               	goto	u4975
  6699  0BCA  0850               	movf	0+(??___ftmul+0)+0,w
  6700  0BCB  00D3               	movwf	(??___ftmul+3)+0
  6701  0BCC  0853               	movf	(??___ftmul+3)+0,w
  6702  0BCD  06D9               	xorwf	(___ftmul@sign),f
  6703                           	line	63
  6704  0BCE  3080               	movlw	(080h)
  6705  0BCF  00D0               	movwf	(??___ftmul+0)+0
  6706  0BD0  0850               	movf	(??___ftmul+0)+0,w
  6707  0BD1  05D9               	andwf	(___ftmul@sign),f
  6708                           	line	64
  6709                           	
  6710  0BD2                     l7017:	
  6711  0BD2  17CB               	bsf	(___ftmul@f1)+(15/8),(15)&7
  6712                           	line	66
  6713                           	
  6714  0BD3                     l7019:	
  6715  0BD3  17CE               	bsf	(___ftmul@f2)+(15/8),(15)&7
  6716                           	line	67
  6717                           	
  6718  0BD4                     l7021:	
  6719  0BD4  30FF               	movlw	0FFh
  6720  0BD5  05CD               	andwf	(___ftmul@f2),f
  6721  0BD6  30FF               	movlw	0FFh
  6722  0BD7  05CE               	andwf	(___ftmul@f2+1),f
  6723  0BD8  3000               	movlw	0
  6724  0BD9  05CF               	andwf	(___ftmul@f2+2),f
  6725                           	line	68
  6726                           	
  6727  0BDA                     l7023:	
  6728  0BDA  3000               	movlw	0
  6729  0BDB  00D5               	movwf	(___ftmul@f3_as_product)
  6730  0BDC  3000               	movlw	0
  6731  0BDD  00D6               	movwf	(___ftmul@f3_as_product+1)
  6732  0BDE  3000               	movlw	0
  6733  0BDF  00D7               	movwf	(___ftmul@f3_as_product+2)
  6734                           	line	69
  6735                           	
  6736  0BE0                     l7025:	
  6737  0BE0  3007               	movlw	(07h)
  6738  0BE1  00D0               	movwf	(??___ftmul+0)+0
  6739  0BE2  0850               	movf	(??___ftmul+0)+0,w
  6740  0BE3  00D8               	movwf	(___ftmul@cntr)
  6741  0BE4  2BE5               	goto	l7027
  6742                           	line	70
  6743                           	
  6744  0BE5                     l2976:	
  6745                           	line	71
  6746                           	
  6747  0BE5                     l7027:	
  6748  0BE5  1C4A               	btfss	(___ftmul@f1),(0)&7
  6749  0BE6  2BE8               	goto	u4981
  6750  0BE7  2BE9               	goto	u4980
  6751  0BE8                     u4981:
  6752  0BE8  2BFA               	goto	l7031
  6753  0BE9                     u4980:
  6754                           	line	72
  6755                           	
  6756  0BE9                     l7029:	
  6757  0BE9  084D               	movf	(___ftmul@f2),w
  6758  0BEA  07D5               	addwf	(___ftmul@f3_as_product),f
  6759  0BEB  084E               	movf	(___ftmul@f2+1),w
  6760  0BEC  1103               	clrz
  6761  0BED  1803               	skipnc
  6762  0BEE  0A4E               	incf	(___ftmul@f2+1),w
  6763  0BEF  1903               	skipnz
  6764  0BF0  2BF2               	goto	u4991
  6765  0BF1  07D6               	addwf	(___ftmul@f3_as_product+1),f
  6766  0BF2                     u4991:
  6767  0BF2  084F               	movf	(___ftmul@f2+2),w
  6768  0BF3  1103               	clrz
  6769  0BF4  1803               	skipnc
  6770  0BF5  0A4F               	incf	(___ftmul@f2+2),w
  6771  0BF6  1903               	skipnz
  6772  0BF7  2BF9               	goto	u4992
  6773  0BF8  07D7               	addwf	(___ftmul@f3_as_product+2),f
  6774  0BF9                     u4992:
  6775                           
  6776  0BF9  2BFA               	goto	l7031
  6777                           	
  6778  0BFA                     l2977:	
  6779                           	line	73
  6780                           	
  6781  0BFA                     l7031:	
  6782  0BFA  3001               	movlw	01h
  6783  0BFB                     u5005:
  6784  0BFB  1003               	clrc
  6785  0BFC  0CCC               	rrf	(___ftmul@f1+2),f
  6786  0BFD  0CCB               	rrf	(___ftmul@f1+1),f
  6787  0BFE  0CCA               	rrf	(___ftmul@f1),f
  6788  0BFF  3EFF               	addlw	-1
  6789  0C00  1D03               	skipz
  6790  0C01  2BFB               	goto	u5005
  6791                           
  6792                           	line	74
  6793                           	
  6794  0C02                     l7033:	
  6795  0C02  3001               	movlw	01h
  6796  0C03                     u5015:
  6797  0C03  1003               	clrc
  6798  0C04  0DCD               	rlf	(___ftmul@f2),f
  6799  0C05  0DCE               	rlf	(___ftmul@f2+1),f
  6800  0C06  0DCF               	rlf	(___ftmul@f2+2),f
  6801  0C07  3EFF               	addlw	-1
  6802  0C08  1D03               	skipz
  6803  0C09  2C03               	goto	u5015
  6804                           	line	75
  6805                           	
  6806  0C0A                     l7035:	
  6807  0C0A  3001               	movlw	low(01h)
  6808  0C0B  02D8               	subwf	(___ftmul@cntr),f
  6809  0C0C  1D03               	btfss	status,2
  6810  0C0D  2C0F               	goto	u5021
  6811  0C0E  2C10               	goto	u5020
  6812  0C0F                     u5021:
  6813  0C0F  2BE5               	goto	l7027
  6814  0C10                     u5020:
  6815  0C10  2C11               	goto	l7037
  6816                           	
  6817  0C11                     l2978:	
  6818                           	line	76
  6819                           	
  6820  0C11                     l7037:	
  6821  0C11  3009               	movlw	(09h)
  6822  0C12  00D0               	movwf	(??___ftmul+0)+0
  6823  0C13  0850               	movf	(??___ftmul+0)+0,w
  6824  0C14  00D8               	movwf	(___ftmul@cntr)
  6825  0C15  2C16               	goto	l7039
  6826                           	line	77
  6827                           	
  6828  0C16                     l2979:	
  6829                           	line	78
  6830                           	
  6831  0C16                     l7039:	
  6832  0C16  1C4A               	btfss	(___ftmul@f1),(0)&7
  6833  0C17  2C19               	goto	u5031
  6834  0C18  2C1A               	goto	u5030
  6835  0C19                     u5031:
  6836  0C19  2C2B               	goto	l7043
  6837  0C1A                     u5030:
  6838                           	line	79
  6839                           	
  6840  0C1A                     l7041:	
  6841  0C1A  084D               	movf	(___ftmul@f2),w
  6842  0C1B  07D5               	addwf	(___ftmul@f3_as_product),f
  6843  0C1C  084E               	movf	(___ftmul@f2+1),w
  6844  0C1D  1103               	clrz
  6845  0C1E  1803               	skipnc
  6846  0C1F  0A4E               	incf	(___ftmul@f2+1),w
  6847  0C20  1903               	skipnz
  6848  0C21  2C23               	goto	u5041
  6849  0C22  07D6               	addwf	(___ftmul@f3_as_product+1),f
  6850  0C23                     u5041:
  6851  0C23  084F               	movf	(___ftmul@f2+2),w
  6852  0C24  1103               	clrz
  6853  0C25  1803               	skipnc
  6854  0C26  0A4F               	incf	(___ftmul@f2+2),w
  6855  0C27  1903               	skipnz
  6856  0C28  2C2A               	goto	u5042
  6857  0C29  07D7               	addwf	(___ftmul@f3_as_product+2),f
  6858  0C2A                     u5042:
  6859                           
  6860  0C2A  2C2B               	goto	l7043
  6861                           	
  6862  0C2B                     l2980:	
  6863                           	line	80
  6864                           	
  6865  0C2B                     l7043:	
  6866  0C2B  3001               	movlw	01h
  6867  0C2C                     u5055:
  6868  0C2C  1003               	clrc
  6869  0C2D  0CCC               	rrf	(___ftmul@f1+2),f
  6870  0C2E  0CCB               	rrf	(___ftmul@f1+1),f
  6871  0C2F  0CCA               	rrf	(___ftmul@f1),f
  6872  0C30  3EFF               	addlw	-1
  6873  0C31  1D03               	skipz
  6874  0C32  2C2C               	goto	u5055
  6875                           
  6876                           	line	81
  6877                           	
  6878  0C33                     l7045:	
  6879  0C33  3001               	movlw	01h
  6880  0C34                     u5065:
  6881  0C34  1003               	clrc
  6882  0C35  0CD7               	rrf	(___ftmul@f3_as_product+2),f
  6883  0C36  0CD6               	rrf	(___ftmul@f3_as_product+1),f
  6884  0C37  0CD5               	rrf	(___ftmul@f3_as_product),f
  6885  0C38  3EFF               	addlw	-1
  6886  0C39  1D03               	skipz
  6887  0C3A  2C34               	goto	u5065
  6888                           
  6889                           	line	82
  6890                           	
  6891  0C3B                     l7047:	
  6892  0C3B  3001               	movlw	low(01h)
  6893  0C3C  02D8               	subwf	(___ftmul@cntr),f
  6894  0C3D  1D03               	btfss	status,2
  6895  0C3E  2C40               	goto	u5071
  6896  0C3F  2C41               	goto	u5070
  6897  0C40                     u5071:
  6898  0C40  2C16               	goto	l7039
  6899  0C41                     u5070:
  6900  0C41  2C42               	goto	l7049
  6901                           	
  6902  0C42                     l2981:	
  6903                           	line	83
  6904                           	
  6905  0C42                     l7049:	
  6906  0C42  0855               	movf	(___ftmul@f3_as_product),w
  6907  0C43  00A0               	movwf	(?___ftpack)
  6908  0C44  0856               	movf	(___ftmul@f3_as_product+1),w
  6909  0C45  00A1               	movwf	(?___ftpack+1)
  6910  0C46  0857               	movf	(___ftmul@f3_as_product+2),w
  6911  0C47  00A2               	movwf	(?___ftpack+2)
  6912  0C48  0854               	movf	(___ftmul@exp),w
  6913  0C49  00D0               	movwf	(??___ftmul+0)+0
  6914  0C4A  0850               	movf	(??___ftmul+0)+0,w
  6915  0C4B  00A3               	movwf	0+(?___ftpack)+03h
  6916  0C4C  0859               	movf	(___ftmul@sign),w
  6917  0C4D  00D1               	movwf	(??___ftmul+1)+0
  6918  0C4E  0851               	movf	(??___ftmul+1)+0,w
  6919  0C4F  00A4               	movwf	0+(?___ftpack)+04h
  6920  0C50  160A  118A  2704   	fcall	___ftpack
              120A  158A         
  6921  0C55  1283               	bcf	status, 5	;RP0=0, select bank0
  6922  0C56  1303               	bcf	status, 6	;RP1=0, select bank0
  6923  0C57  0820               	movf	(0+(?___ftpack)),w
  6924  0C58  00CA               	movwf	(?___ftmul)
  6925  0C59  0821               	movf	(1+(?___ftpack)),w
  6926  0C5A  00CB               	movwf	(?___ftmul+1)
  6927  0C5B  0822               	movf	(2+(?___ftpack)),w
  6928  0C5C  00CC               	movwf	(?___ftmul+2)
  6929  0C5D  2C5E               	goto	l2974
  6930                           	
  6931  0C5E                     l7051:	
  6932                           	line	84
  6933                           	
  6934  0C5E                     l2974:	
  6935  0C5E  0008               	return
  6936                           	opt stack 0
  6937                           GLOBAL	__end_of___ftmul
  6938  0C5F                     	__end_of___ftmul:
  6939 ;; =============== function ___ftmul ends ============
  6940                           
  6941                           	signat	___ftmul,8315
  6942                           	global	___ftdiv
  6943                           psect	text1258,local,class=CODE,delta=2
  6944                           global __ptext1258
  6945  0AA9                     __ptext1258:
  6946                           
  6947 ;; *************** function ___ftdiv *****************
  6948 ;; Defined at:
  6949 ;;		line 50 in file "C:\Program Files (x86)\HI-TECH Software\PICC\9.83\sources\ftdiv.c"
  6950 ;; Parameters:    Size  Location     Type
  6951 ;;  f2              3   26[BANK0 ] float 
  6952 ;;  f1              3   29[BANK0 ] float 
  6953 ;; Auto vars:     Size  Location     Type
  6954 ;;  f3              3   37[BANK0 ] float 
  6955 ;;  sign            1   41[BANK0 ] unsigned char 
  6956 ;;  exp             1   40[BANK0 ] unsigned char 
  6957 ;;  cntr            1   36[BANK0 ] unsigned char 
  6958 ;; Return value:  Size  Location     Type
  6959 ;;                  3   26[BANK0 ] float 
  6960 ;; Registers used:
  6961 ;;		wreg, status,2, status,0, pclath, cstack
  6962 ;; Tracked objects:
  6963 ;;		On entry : 0/0
  6964 ;;		On exit  : 0/0
  6965 ;;		Unchanged: 0/0
  6966 ;; Data sizes:     COMMON   BANK0   BANK1   BANK3   BANK2
  6967 ;;      Params:         0       6       0       0       0
  6968 ;;      Locals:         0       6       0       0       0
  6969 ;;      Temps:          0       4       0       0       0
  6970 ;;      Totals:         0      16       0       0       0
  6971 ;;Total ram usage:       16 bytes
  6972 ;; Hardware stack levels used:    1
  6973 ;; Hardware stack levels required when called:    2
  6974 ;; This function calls:
  6975 ;;		___ftpack
  6976 ;; This function is called by:
  6977 ;;		_main
  6978 ;;		_exp
  6979 ;; This function uses a non-reentrant model
  6980 ;;
  6981                           psect	text1258
  6982                           	file	"C:\Program Files (x86)\HI-TECH Software\PICC\9.83\sources\ftdiv.c"
  6983                           	line	50
  6984                           	global	__size_of___ftdiv
  6985  00C8                     	__size_of___ftdiv	equ	__end_of___ftdiv-___ftdiv
  6986                           	
  6987  0AA9                     ___ftdiv:	
  6988                           	opt	stack 2
  6989                           ; Regs used in ___ftdiv: [wreg+status,2+status,0+pclath+cstack]
  6990                           	line	55
  6991                           	
  6992  0AA9                     l6961:	
  6993  0AA9  1283               	bcf	status, 5	;RP0=0, select bank0
  6994  0AAA  1303               	bcf	status, 6	;RP1=0, select bank0
  6995  0AAB  083D               	movf	(___ftdiv@f1),w
  6996  0AAC  00C0               	movwf	((??___ftdiv+0)+0)
  6997  0AAD  083E               	movf	(___ftdiv@f1+1),w
  6998  0AAE  00C1               	movwf	((??___ftdiv+0)+0+1)
  6999  0AAF  083F               	movf	(___ftdiv@f1+2),w
  7000  0AB0  00C2               	movwf	((??___ftdiv+0)+0+2)
  7001  0AB1  1003               	clrc
  7002  0AB2  0D41               	rlf	(??___ftdiv+0)+1,w
  7003  0AB3  0D42               	rlf	(??___ftdiv+0)+2,w
  7004  0AB4  00C3               	movwf	(??___ftdiv+3)+0
  7005  0AB5  0843               	movf	(??___ftdiv+3)+0,w
  7006  0AB6  00C8               	movwf	(___ftdiv@exp)
  7007  0AB7  08C8               	movf	((___ftdiv@exp)),f
  7008  0AB8  1D03               	skipz
  7009  0AB9  2ABB               	goto	u4861
  7010  0ABA  2ABC               	goto	u4860
  7011  0ABB                     u4861:
  7012  0ABB  2AC4               	goto	l6967
  7013  0ABC                     u4860:
  7014                           	line	56
  7015                           	
  7016  0ABC                     l6963:	
  7017  0ABC  3000               	movlw	0x0
  7018  0ABD  00BA               	movwf	(?___ftdiv)
  7019  0ABE  3000               	movlw	0x0
  7020  0ABF  00BB               	movwf	(?___ftdiv+1)
  7021  0AC0  3000               	movlw	0x0
  7022  0AC1  00BC               	movwf	(?___ftdiv+2)
  7023  0AC2  2B70               	goto	l2964
  7024                           	
  7025  0AC3                     l6965:	
  7026  0AC3  2B70               	goto	l2964
  7027                           	
  7028  0AC4                     l2963:	
  7029                           	line	57
  7030                           	
  7031  0AC4                     l6967:	
  7032  0AC4  083A               	movf	(___ftdiv@f2),w
  7033  0AC5  00C0               	movwf	((??___ftdiv+0)+0)
  7034  0AC6  083B               	movf	(___ftdiv@f2+1),w
  7035  0AC7  00C1               	movwf	((??___ftdiv+0)+0+1)
  7036  0AC8  083C               	movf	(___ftdiv@f2+2),w
  7037  0AC9  00C2               	movwf	((??___ftdiv+0)+0+2)
  7038  0ACA  1003               	clrc
  7039  0ACB  0D41               	rlf	(??___ftdiv+0)+1,w
  7040  0ACC  0D42               	rlf	(??___ftdiv+0)+2,w
  7041  0ACD  00C3               	movwf	(??___ftdiv+3)+0
  7042  0ACE  0843               	movf	(??___ftdiv+3)+0,w
  7043  0ACF  00C9               	movwf	(___ftdiv@sign)
  7044  0AD0  08C9               	movf	((___ftdiv@sign)),f
  7045  0AD1  1D03               	skipz
  7046  0AD2  2AD4               	goto	u4871
  7047  0AD3  2AD5               	goto	u4870
  7048  0AD4                     u4871:
  7049  0AD4  2ADD               	goto	l6973
  7050  0AD5                     u4870:
  7051                           	line	58
  7052                           	
  7053  0AD5                     l6969:	
  7054  0AD5  3000               	movlw	0x0
  7055  0AD6  00BA               	movwf	(?___ftdiv)
  7056  0AD7  3000               	movlw	0x0
  7057  0AD8  00BB               	movwf	(?___ftdiv+1)
  7058  0AD9  3000               	movlw	0x0
  7059  0ADA  00BC               	movwf	(?___ftdiv+2)
  7060  0ADB  2B70               	goto	l2964
  7061                           	
  7062  0ADC                     l6971:	
  7063  0ADC  2B70               	goto	l2964
  7064                           	
  7065  0ADD                     l2965:	
  7066                           	line	59
  7067                           	
  7068  0ADD                     l6973:	
  7069  0ADD  3000               	movlw	0
  7070  0ADE  00C5               	movwf	(___ftdiv@f3)
  7071  0ADF  3000               	movlw	0
  7072  0AE0  00C6               	movwf	(___ftdiv@f3+1)
  7073  0AE1  3000               	movlw	0
  7074  0AE2  00C7               	movwf	(___ftdiv@f3+2)
  7075                           	line	60
  7076                           	
  7077  0AE3                     l6975:	
  7078  0AE3  3089               	movlw	(089h)
  7079  0AE4  0749               	addwf	(___ftdiv@sign),w
  7080  0AE5  00C0               	movwf	(??___ftdiv+0)+0
  7081  0AE6  0840               	movf	0+(??___ftdiv+0)+0,w
  7082  0AE7  02C8               	subwf	(___ftdiv@exp),f
  7083                           	line	61
  7084                           	
  7085  0AE8                     l6977:	
  7086  0AE8  083D               	movf	(___ftdiv@f1),w
  7087  0AE9  00C0               	movwf	((??___ftdiv+0)+0)
  7088  0AEA  083E               	movf	(___ftdiv@f1+1),w
  7089  0AEB  00C1               	movwf	((??___ftdiv+0)+0+1)
  7090  0AEC  083F               	movf	(___ftdiv@f1+2),w
  7091  0AED  00C2               	movwf	((??___ftdiv+0)+0+2)
  7092  0AEE  3010               	movlw	010h
  7093  0AEF                     u4885:
  7094  0AEF  1003               	clrc
  7095  0AF0  0CC2               	rrf	(??___ftdiv+0)+2,f
  7096  0AF1  0CC1               	rrf	(??___ftdiv+0)+1,f
  7097  0AF2  0CC0               	rrf	(??___ftdiv+0)+0,f
  7098  0AF3                     u4880:
  7099  0AF3  3EFF               	addlw	-1
  7100  0AF4  1D03               	skipz
  7101  0AF5  2AEF               	goto	u4885
  7102  0AF6  0840               	movf	0+(??___ftdiv+0)+0,w
  7103  0AF7  00C3               	movwf	(??___ftdiv+3)+0
  7104  0AF8  0843               	movf	(??___ftdiv+3)+0,w
  7105  0AF9  00C9               	movwf	(___ftdiv@sign)
  7106                           	line	62
  7107                           	
  7108  0AFA                     l6979:	
  7109  0AFA  083A               	movf	(___ftdiv@f2),w
  7110  0AFB  00C0               	movwf	((??___ftdiv+0)+0)
  7111  0AFC  083B               	movf	(___ftdiv@f2+1),w
  7112  0AFD  00C1               	movwf	((??___ftdiv+0)+0+1)
  7113  0AFE  083C               	movf	(___ftdiv@f2+2),w
  7114  0AFF  00C2               	movwf	((??___ftdiv+0)+0+2)
  7115  0B00  3010               	movlw	010h
  7116  0B01                     u4895:
  7117  0B01  1003               	clrc
  7118  0B02  0CC2               	rrf	(??___ftdiv+0)+2,f
  7119  0B03  0CC1               	rrf	(??___ftdiv+0)+1,f
  7120  0B04  0CC0               	rrf	(??___ftdiv+0)+0,f
  7121  0B05                     u4890:
  7122  0B05  3EFF               	addlw	-1
  7123  0B06  1D03               	skipz
  7124  0B07  2B01               	goto	u4895
  7125  0B08  0840               	movf	0+(??___ftdiv+0)+0,w
  7126  0B09  00C3               	movwf	(??___ftdiv+3)+0
  7127  0B0A  0843               	movf	(??___ftdiv+3)+0,w
  7128  0B0B  06C9               	xorwf	(___ftdiv@sign),f
  7129                           	line	63
  7130                           	
  7131  0B0C                     l6981:	
  7132  0B0C  3080               	movlw	(080h)
  7133  0B0D  00C0               	movwf	(??___ftdiv+0)+0
  7134  0B0E  0840               	movf	(??___ftdiv+0)+0,w
  7135  0B0F  05C9               	andwf	(___ftdiv@sign),f
  7136                           	line	64
  7137                           	
  7138  0B10                     l6983:	
  7139  0B10  17BE               	bsf	(___ftdiv@f1)+(15/8),(15)&7
  7140                           	line	65
  7141  0B11  30FF               	movlw	0FFh
  7142  0B12  05BD               	andwf	(___ftdiv@f1),f
  7143  0B13  30FF               	movlw	0FFh
  7144  0B14  05BE               	andwf	(___ftdiv@f1+1),f
  7145  0B15  3000               	movlw	0
  7146  0B16  05BF               	andwf	(___ftdiv@f1+2),f
  7147                           	line	66
  7148                           	
  7149  0B17                     l6985:	
  7150  0B17  17BB               	bsf	(___ftdiv@f2)+(15/8),(15)&7
  7151                           	line	67
  7152  0B18  30FF               	movlw	0FFh
  7153  0B19  05BA               	andwf	(___ftdiv@f2),f
  7154  0B1A  30FF               	movlw	0FFh
  7155  0B1B  05BB               	andwf	(___ftdiv@f2+1),f
  7156  0B1C  3000               	movlw	0
  7157  0B1D  05BC               	andwf	(___ftdiv@f2+2),f
  7158                           	line	68
  7159  0B1E  3018               	movlw	(018h)
  7160  0B1F  00C0               	movwf	(??___ftdiv+0)+0
  7161  0B20  0840               	movf	(??___ftdiv+0)+0,w
  7162  0B21  00C4               	movwf	(___ftdiv@cntr)
  7163  0B22  2B23               	goto	l6987
  7164                           	line	69
  7165                           	
  7166  0B23                     l2966:	
  7167                           	line	70
  7168                           	
  7169  0B23                     l6987:	
  7170  0B23  3001               	movlw	01h
  7171  0B24                     u4905:
  7172  0B24  1003               	clrc
  7173  0B25  0DC5               	rlf	(___ftdiv@f3),f
  7174  0B26  0DC6               	rlf	(___ftdiv@f3+1),f
  7175  0B27  0DC7               	rlf	(___ftdiv@f3+2),f
  7176  0B28  3EFF               	addlw	-1
  7177  0B29  1D03               	skipz
  7178  0B2A  2B24               	goto	u4905
  7179                           	line	71
  7180                           	
  7181  0B2B                     l6989:	
  7182  0B2B  083C               	movf	(___ftdiv@f2+2),w
  7183  0B2C  023F               	subwf	(___ftdiv@f1+2),w
  7184  0B2D  1D03               	skipz
  7185  0B2E  2B35               	goto	u4915
  7186  0B2F  083B               	movf	(___ftdiv@f2+1),w
  7187  0B30  023E               	subwf	(___ftdiv@f1+1),w
  7188  0B31  1D03               	skipz
  7189  0B32  2B35               	goto	u4915
  7190  0B33  083A               	movf	(___ftdiv@f2),w
  7191  0B34  023D               	subwf	(___ftdiv@f1),w
  7192  0B35                     u4915:
  7193  0B35  1C03               	skipc
  7194  0B36  2B38               	goto	u4911
  7195  0B37  2B39               	goto	u4910
  7196  0B38                     u4911:
  7197  0B38  2B45               	goto	l6995
  7198  0B39                     u4910:
  7199                           	line	72
  7200                           	
  7201  0B39                     l6991:	
  7202  0B39  083A               	movf	(___ftdiv@f2),w
  7203  0B3A  02BD               	subwf	(___ftdiv@f1),f
  7204  0B3B  083B               	movf	(___ftdiv@f2+1),w
  7205  0B3C  1C03               	skipc
  7206  0B3D  0F3B               	incfsz	(___ftdiv@f2+1),w
  7207  0B3E  02BE               	subwf	(___ftdiv@f1+1),f
  7208  0B3F  083C               	movf	(___ftdiv@f2+2),w
  7209  0B40  1C03               	skipc
  7210  0B41  0A3C               	incf	(___ftdiv@f2+2),w
  7211  0B42  02BF               	subwf	(___ftdiv@f1+2),f
  7212                           	line	73
  7213                           	
  7214  0B43                     l6993:	
  7215  0B43  1445               	bsf	(___ftdiv@f3)+(0/8),(0)&7
  7216  0B44  2B45               	goto	l6995
  7217                           	line	74
  7218                           	
  7219  0B45                     l2967:	
  7220                           	line	75
  7221                           	
  7222  0B45                     l6995:	
  7223  0B45  3001               	movlw	01h
  7224  0B46                     u4925:
  7225  0B46  1003               	clrc
  7226  0B47  0DBD               	rlf	(___ftdiv@f1),f
  7227  0B48  0DBE               	rlf	(___ftdiv@f1+1),f
  7228  0B49  0DBF               	rlf	(___ftdiv@f1+2),f
  7229  0B4A  3EFF               	addlw	-1
  7230  0B4B  1D03               	skipz
  7231  0B4C  2B46               	goto	u4925
  7232                           	line	76
  7233                           	
  7234  0B4D                     l6997:	
  7235  0B4D  3001               	movlw	low(01h)
  7236  0B4E  02C4               	subwf	(___ftdiv@cntr),f
  7237  0B4F  1D03               	btfss	status,2
  7238  0B50  2B52               	goto	u4931
  7239  0B51  2B53               	goto	u4930
  7240  0B52                     u4931:
  7241  0B52  2B23               	goto	l6987
  7242  0B53                     u4930:
  7243  0B53  2B54               	goto	l6999
  7244                           	
  7245  0B54                     l2968:	
  7246                           	line	77
  7247                           	
  7248  0B54                     l6999:	
  7249  0B54  0845               	movf	(___ftdiv@f3),w
  7250  0B55  00A0               	movwf	(?___ftpack)
  7251  0B56  0846               	movf	(___ftdiv@f3+1),w
  7252  0B57  00A1               	movwf	(?___ftpack+1)
  7253  0B58  0847               	movf	(___ftdiv@f3+2),w
  7254  0B59  00A2               	movwf	(?___ftpack+2)
  7255  0B5A  0848               	movf	(___ftdiv@exp),w
  7256  0B5B  00C0               	movwf	(??___ftdiv+0)+0
  7257  0B5C  0840               	movf	(??___ftdiv+0)+0,w
  7258  0B5D  00A3               	movwf	0+(?___ftpack)+03h
  7259  0B5E  0849               	movf	(___ftdiv@sign),w
  7260  0B5F  00C1               	movwf	(??___ftdiv+1)+0
  7261  0B60  0841               	movf	(??___ftdiv+1)+0,w
  7262  0B61  00A4               	movwf	0+(?___ftpack)+04h
  7263  0B62  160A  118A  2704   	fcall	___ftpack
              120A  158A         
  7264  0B67  1283               	bcf	status, 5	;RP0=0, select bank0
  7265  0B68  1303               	bcf	status, 6	;RP1=0, select bank0
  7266  0B69  0820               	movf	(0+(?___ftpack)),w
  7267  0B6A  00BA               	movwf	(?___ftdiv)
  7268  0B6B  0821               	movf	(1+(?___ftpack)),w
  7269  0B6C  00BB               	movwf	(?___ftdiv+1)
  7270  0B6D  0822               	movf	(2+(?___ftpack)),w
  7271  0B6E  00BC               	movwf	(?___ftdiv+2)
  7272  0B6F  2B70               	goto	l2964
  7273                           	
  7274  0B70                     l7001:	
  7275                           	line	78
  7276                           	
  7277  0B70                     l2964:	
  7278  0B70  0008               	return
  7279                           	opt stack 0
  7280                           GLOBAL	__end_of___ftdiv
  7281  0B71                     	__end_of___ftdiv:
  7282 ;; =============== function ___ftdiv ends ============
  7283                           
  7284                           	signat	___ftdiv,8315
  7285                           	global	___ftadd
  7286                           psect	text1259,local,class=CODE,delta=2
  7287                           global __ptext1259
  7288  0EBA                     __ptext1259:
  7289                           
  7290 ;; *************** function ___ftadd *****************
  7291 ;; Defined at:
  7292 ;;		line 87 in file "C:\Program Files (x86)\HI-TECH Software\PICC\9.83\sources\ftadd.c"
  7293 ;; Parameters:    Size  Location     Type
  7294 ;;  f1              3   13[BANK0 ] float 
  7295 ;;  f2              3   16[BANK0 ] float 
  7296 ;; Auto vars:     Size  Location     Type
  7297 ;;  exp1            1   25[BANK0 ] unsigned char 
  7298 ;;  exp2            1   24[BANK0 ] unsigned char 
  7299 ;;  sign            1   23[BANK0 ] unsigned char 
  7300 ;; Return value:  Size  Location     Type
  7301 ;;                  3   13[BANK0 ] float 
  7302 ;; Registers used:
  7303 ;;		wreg, status,2, status,0, pclath, cstack
  7304 ;; Tracked objects:
  7305 ;;		On entry : 0/0
  7306 ;;		On exit  : 0/0
  7307 ;;		Unchanged: 0/0
  7308 ;; Data sizes:     COMMON   BANK0   BANK1   BANK3   BANK2
  7309 ;;      Params:         0       6       0       0       0
  7310 ;;      Locals:         0       3       0       0       0
  7311 ;;      Temps:          0       4       0       0       0
  7312 ;;      Totals:         0      13       0       0       0
  7313 ;;Total ram usage:       13 bytes
  7314 ;; Hardware stack levels used:    1
  7315 ;; Hardware stack levels required when called:    2
  7316 ;; This function calls:
  7317 ;;		___ftpack
  7318 ;; This function is called by:
  7319 ;;		_main
  7320 ;;		_ftoa
  7321 ;;		___ftsub
  7322 ;;		_floor
  7323 ;;		_log
  7324 ;;		_eval_poly
  7325 ;; This function uses a non-reentrant model
  7326 ;;
  7327                           psect	text1259
  7328                           	file	"C:\Program Files (x86)\HI-TECH Software\PICC\9.83\sources\ftadd.c"
  7329                           	line	87
  7330                           	global	__size_of___ftadd
  7331  0146                     	__size_of___ftadd	equ	__end_of___ftadd-___ftadd
  7332                           	
  7333  0EBA                     ___ftadd:	
  7334                           	opt	stack 1
  7335                           ; Regs used in ___ftadd: [wreg+status,2+status,0+pclath+cstack]
  7336                           	line	90
  7337                           	
  7338  0EBA                     l6891:	
  7339  0EBA  1283               	bcf	status, 5	;RP0=0, select bank0
  7340  0EBB  1303               	bcf	status, 6	;RP1=0, select bank0
  7341  0EBC  082D               	movf	(___ftadd@f1),w
  7342  0EBD  00B3               	movwf	((??___ftadd+0)+0)
  7343  0EBE  082E               	movf	(___ftadd@f1+1),w
  7344  0EBF  00B4               	movwf	((??___ftadd+0)+0+1)
  7345  0EC0  082F               	movf	(___ftadd@f1+2),w
  7346  0EC1  00B5               	movwf	((??___ftadd+0)+0+2)
  7347  0EC2  1003               	clrc
  7348  0EC3  0D34               	rlf	(??___ftadd+0)+1,w
  7349  0EC4  0D35               	rlf	(??___ftadd+0)+2,w
  7350  0EC5  00B6               	movwf	(??___ftadd+3)+0
  7351  0EC6  0836               	movf	(??___ftadd+3)+0,w
  7352  0EC7  00B9               	movwf	(___ftadd@exp1)
  7353                           	line	91
  7354  0EC8  0830               	movf	(___ftadd@f2),w
  7355  0EC9  00B3               	movwf	((??___ftadd+0)+0)
  7356  0ECA  0831               	movf	(___ftadd@f2+1),w
  7357  0ECB  00B4               	movwf	((??___ftadd+0)+0+1)
  7358  0ECC  0832               	movf	(___ftadd@f2+2),w
  7359  0ECD  00B5               	movwf	((??___ftadd+0)+0+2)
  7360  0ECE  1003               	clrc
  7361  0ECF  0D34               	rlf	(??___ftadd+0)+1,w
  7362  0ED0  0D35               	rlf	(??___ftadd+0)+2,w
  7363  0ED1  00B6               	movwf	(??___ftadd+3)+0
  7364  0ED2  0836               	movf	(??___ftadd+3)+0,w
  7365  0ED3  00B8               	movwf	(___ftadd@exp2)
  7366                           	line	92
  7367                           	
  7368  0ED4                     l6893:	
  7369  0ED4  0839               	movf	(___ftadd@exp1),w
  7370  0ED5  1D03               	skipz
  7371  0ED6  2ED8               	goto	u4620
  7372  0ED7  2EE9               	goto	l6899
  7373  0ED8                     u4620:
  7374                           	
  7375  0ED8                     l6895:	
  7376  0ED8  0838               	movf	(___ftadd@exp2),w
  7377  0ED9  0239               	subwf	(___ftadd@exp1),w
  7378  0EDA  1803               	skipnc
  7379  0EDB  2EDD               	goto	u4631
  7380  0EDC  2EDE               	goto	u4630
  7381  0EDD                     u4631:
  7382  0EDD  2EF1               	goto	l6903
  7383  0EDE                     u4630:
  7384                           	
  7385  0EDE                     l6897:	
  7386  0EDE  0339               	decf	(___ftadd@exp1),w
  7387  0EDF  3AFF               	xorlw	0ffh
  7388  0EE0  0738               	addwf	(___ftadd@exp2),w
  7389  0EE1  00B3               	movwf	(??___ftadd+0)+0
  7390  0EE2  3019               	movlw	(019h)
  7391  0EE3  0233               	subwf	0+(??___ftadd+0)+0,w
  7392  0EE4  1C03               	skipc
  7393  0EE5  2EE7               	goto	u4641
  7394  0EE6  2EE8               	goto	u4640
  7395  0EE7                     u4641:
  7396  0EE7  2EF1               	goto	l6903
  7397  0EE8                     u4640:
  7398  0EE8  2EE9               	goto	l6899
  7399                           	
  7400  0EE9                     l2921:	
  7401                           	line	93
  7402                           	
  7403  0EE9                     l6899:	
  7404  0EE9  0830               	movf	(___ftadd@f2),w
  7405  0EEA  00AD               	movwf	(?___ftadd)
  7406  0EEB  0831               	movf	(___ftadd@f2+1),w
  7407  0EEC  00AE               	movwf	(?___ftadd+1)
  7408  0EED  0832               	movf	(___ftadd@f2+2),w
  7409  0EEE  00AF               	movwf	(?___ftadd+2)
  7410  0EEF  2FFF               	goto	l2922
  7411                           	
  7412  0EF0                     l6901:	
  7413  0EF0  2FFF               	goto	l2922
  7414                           	
  7415  0EF1                     l2919:	
  7416                           	line	94
  7417                           	
  7418  0EF1                     l6903:	
  7419  0EF1  0838               	movf	(___ftadd@exp2),w
  7420  0EF2  1D03               	skipz
  7421  0EF3  2EF5               	goto	u4650
  7422  0EF4  2F05               	goto	l2925
  7423  0EF5                     u4650:
  7424                           	
  7425  0EF5                     l6905:	
  7426  0EF5  0839               	movf	(___ftadd@exp1),w
  7427  0EF6  0238               	subwf	(___ftadd@exp2),w
  7428  0EF7  1803               	skipnc
  7429  0EF8  2EFA               	goto	u4661
  7430  0EF9  2EFB               	goto	u4660
  7431  0EFA                     u4661:
  7432  0EFA  2F06               	goto	l6909
  7433  0EFB                     u4660:
  7434                           	
  7435  0EFB                     l6907:	
  7436  0EFB  0338               	decf	(___ftadd@exp2),w
  7437  0EFC  3AFF               	xorlw	0ffh
  7438  0EFD  0739               	addwf	(___ftadd@exp1),w
  7439  0EFE  00B3               	movwf	(??___ftadd+0)+0
  7440  0EFF  3019               	movlw	(019h)
  7441  0F00  0233               	subwf	0+(??___ftadd+0)+0,w
  7442  0F01  1C03               	skipc
  7443  0F02  2F04               	goto	u4671
  7444  0F03  2F05               	goto	u4670
  7445  0F04                     u4671:
  7446  0F04  2F06               	goto	l6909
  7447  0F05                     u4670:
  7448                           	
  7449  0F05                     l2925:	
  7450                           	line	95
  7451  0F05  2FFF               	goto	l2922
  7452                           	
  7453  0F06                     l2923:	
  7454                           	line	96
  7455                           	
  7456  0F06                     l6909:	
  7457  0F06  3006               	movlw	(06h)
  7458  0F07  00B3               	movwf	(??___ftadd+0)+0
  7459  0F08  0833               	movf	(??___ftadd+0)+0,w
  7460  0F09  00B7               	movwf	(___ftadd@sign)
  7461                           	line	97
  7462                           	
  7463  0F0A                     l6911:	
  7464  0F0A  1FAF               	btfss	(___ftadd@f1+2),(23)&7
  7465  0F0B  2F0D               	goto	u4681
  7466  0F0C  2F0E               	goto	u4680
  7467  0F0D                     u4681:
  7468  0F0D  2F0F               	goto	l2926
  7469  0F0E                     u4680:
  7470                           	line	98
  7471                           	
  7472  0F0E                     l6913:	
  7473  0F0E  17B7               	bsf	(___ftadd@sign)+(7/8),(7)&7
  7474                           	
  7475  0F0F                     l2926:	
  7476                           	line	99
  7477  0F0F  1FB2               	btfss	(___ftadd@f2+2),(23)&7
  7478  0F10  2F12               	goto	u4691
  7479  0F11  2F13               	goto	u4690
  7480  0F12                     u4691:
  7481  0F12  2F14               	goto	l2927
  7482  0F13                     u4690:
  7483                           	line	100
  7484                           	
  7485  0F13                     l6915:	
  7486  0F13  1737               	bsf	(___ftadd@sign)+(6/8),(6)&7
  7487                           	
  7488  0F14                     l2927:	
  7489                           	line	101
  7490  0F14  17AE               	bsf	(___ftadd@f1)+(15/8),(15)&7
  7491                           	line	102
  7492                           	
  7493  0F15                     l6917:	
  7494  0F15  30FF               	movlw	0FFh
  7495  0F16  05AD               	andwf	(___ftadd@f1),f
  7496  0F17  30FF               	movlw	0FFh
  7497  0F18  05AE               	andwf	(___ftadd@f1+1),f
  7498  0F19  3000               	movlw	0
  7499  0F1A  05AF               	andwf	(___ftadd@f1+2),f
  7500                           	line	103
  7501                           	
  7502  0F1B                     l6919:	
  7503  0F1B  17B1               	bsf	(___ftadd@f2)+(15/8),(15)&7
  7504                           	line	104
  7505  0F1C  30FF               	movlw	0FFh
  7506  0F1D  05B0               	andwf	(___ftadd@f2),f
  7507  0F1E  30FF               	movlw	0FFh
  7508  0F1F  05B1               	andwf	(___ftadd@f2+1),f
  7509  0F20  3000               	movlw	0
  7510  0F21  05B2               	andwf	(___ftadd@f2+2),f
  7511                           	line	106
  7512  0F22  0838               	movf	(___ftadd@exp2),w
  7513  0F23  0239               	subwf	(___ftadd@exp1),w
  7514  0F24  1803               	skipnc
  7515  0F25  2F27               	goto	u4701
  7516  0F26  2F28               	goto	u4700
  7517  0F27                     u4701:
  7518  0F27  2F59               	goto	l6931
  7519  0F28                     u4700:
  7520  0F28  2F29               	goto	l6921
  7521                           	line	109
  7522                           	
  7523  0F29                     l2929:	
  7524                           	line	110
  7525                           	
  7526  0F29                     l6921:	
  7527  0F29  3001               	movlw	01h
  7528  0F2A                     u4715:
  7529  0F2A  1003               	clrc
  7530  0F2B  0DB0               	rlf	(___ftadd@f2),f
  7531  0F2C  0DB1               	rlf	(___ftadd@f2+1),f
  7532  0F2D  0DB2               	rlf	(___ftadd@f2+2),f
  7533  0F2E  3EFF               	addlw	-1
  7534  0F2F  1D03               	skipz
  7535  0F30  2F2A               	goto	u4715
  7536                           	line	111
  7537  0F31  3001               	movlw	low(01h)
  7538  0F32  02B8               	subwf	(___ftadd@exp2),f
  7539                           	line	112
  7540                           	
  7541  0F33                     l6923:	
  7542  0F33  0838               	movf	(___ftadd@exp2),w
  7543  0F34  0639               	xorwf	(___ftadd@exp1),w
  7544  0F35  1903               	skipnz
  7545  0F36  2F38               	goto	u4721
  7546  0F37  2F39               	goto	u4720
  7547  0F38                     u4721:
  7548  0F38  2F51               	goto	l6929
  7549  0F39                     u4720:
  7550                           	
  7551  0F39                     l6925:	
  7552  0F39  3001               	movlw	low(01h)
  7553  0F3A  02B7               	subwf	(___ftadd@sign),f
  7554  0F3B  0837               	movf	((___ftadd@sign)),w
  7555  0F3C  3907               	andlw	07h
  7556  0F3D  1D03               	btfss	status,2
  7557  0F3E  2F40               	goto	u4731
  7558  0F3F  2F41               	goto	u4730
  7559  0F40                     u4731:
  7560  0F40  2F29               	goto	l6921
  7561  0F41                     u4730:
  7562  0F41  2F51               	goto	l6929
  7563                           	
  7564  0F42                     l2931:	
  7565  0F42  2F51               	goto	l6929
  7566                           	
  7567  0F43                     l2932:	
  7568                           	line	113
  7569  0F43  2F51               	goto	l6929
  7570                           	
  7571  0F44                     l2934:	
  7572                           	line	114
  7573                           	
  7574  0F44                     l6927:	
  7575  0F44  3001               	movlw	01h
  7576  0F45                     u4745:
  7577  0F45  1003               	clrc
  7578  0F46  0CAF               	rrf	(___ftadd@f1+2),f
  7579  0F47  0CAE               	rrf	(___ftadd@f1+1),f
  7580  0F48  0CAD               	rrf	(___ftadd@f1),f
  7581  0F49  3EFF               	addlw	-1
  7582  0F4A  1D03               	skipz
  7583  0F4B  2F45               	goto	u4745
  7584                           
  7585                           	line	115
  7586  0F4C  3001               	movlw	(01h)
  7587  0F4D  00B3               	movwf	(??___ftadd+0)+0
  7588  0F4E  0833               	movf	(??___ftadd+0)+0,w
  7589  0F4F  07B9               	addwf	(___ftadd@exp1),f
  7590  0F50  2F51               	goto	l6929
  7591                           	line	116
  7592                           	
  7593  0F51                     l2933:	
  7594                           	line	113
  7595                           	
  7596  0F51                     l6929:	
  7597  0F51  0839               	movf	(___ftadd@exp1),w
  7598  0F52  0638               	xorwf	(___ftadd@exp2),w
  7599  0F53  1D03               	skipz
  7600  0F54  2F56               	goto	u4751
  7601  0F55  2F57               	goto	u4750
  7602  0F56                     u4751:
  7603  0F56  2F44               	goto	l6927
  7604  0F57                     u4750:
  7605  0F57  2F90               	goto	l2936
  7606                           	
  7607  0F58                     l2935:	
  7608                           	line	117
  7609  0F58  2F90               	goto	l2936
  7610                           	
  7611  0F59                     l2928:	
  7612                           	
  7613  0F59                     l6931:	
  7614  0F59  0839               	movf	(___ftadd@exp1),w
  7615  0F5A  0238               	subwf	(___ftadd@exp2),w
  7616  0F5B  1803               	skipnc
  7617  0F5C  2F5E               	goto	u4761
  7618  0F5D  2F5F               	goto	u4760
  7619  0F5E                     u4761:
  7620  0F5E  2F90               	goto	l2936
  7621  0F5F                     u4760:
  7622  0F5F  2F60               	goto	l6933
  7623                           	line	120
  7624                           	
  7625  0F60                     l2938:	
  7626                           	line	121
  7627                           	
  7628  0F60                     l6933:	
  7629  0F60  3001               	movlw	01h
  7630  0F61                     u4775:
  7631  0F61  1003               	clrc
  7632  0F62  0DAD               	rlf	(___ftadd@f1),f
  7633  0F63  0DAE               	rlf	(___ftadd@f1+1),f
  7634  0F64  0DAF               	rlf	(___ftadd@f1+2),f
  7635  0F65  3EFF               	addlw	-1
  7636  0F66  1D03               	skipz
  7637  0F67  2F61               	goto	u4775
  7638                           	line	122
  7639  0F68  3001               	movlw	low(01h)
  7640  0F69  02B9               	subwf	(___ftadd@exp1),f
  7641                           	line	123
  7642                           	
  7643  0F6A                     l6935:	
  7644  0F6A  0838               	movf	(___ftadd@exp2),w
  7645  0F6B  0639               	xorwf	(___ftadd@exp1),w
  7646  0F6C  1903               	skipnz
  7647  0F6D  2F6F               	goto	u4781
  7648  0F6E  2F70               	goto	u4780
  7649  0F6F                     u4781:
  7650  0F6F  2F88               	goto	l6941
  7651  0F70                     u4780:
  7652                           	
  7653  0F70                     l6937:	
  7654  0F70  3001               	movlw	low(01h)
  7655  0F71  02B7               	subwf	(___ftadd@sign),f
  7656  0F72  0837               	movf	((___ftadd@sign)),w
  7657  0F73  3907               	andlw	07h
  7658  0F74  1D03               	btfss	status,2
  7659  0F75  2F77               	goto	u4791
  7660  0F76  2F78               	goto	u4790
  7661  0F77                     u4791:
  7662  0F77  2F60               	goto	l6933
  7663  0F78                     u4790:
  7664  0F78  2F88               	goto	l6941
  7665                           	
  7666  0F79                     l2940:	
  7667  0F79  2F88               	goto	l6941
  7668                           	
  7669  0F7A                     l2941:	
  7670                           	line	124
  7671  0F7A  2F88               	goto	l6941
  7672                           	
  7673  0F7B                     l2943:	
  7674                           	line	125
  7675                           	
  7676  0F7B                     l6939:	
  7677  0F7B  3001               	movlw	01h
  7678  0F7C                     u4805:
  7679  0F7C  1003               	clrc
  7680  0F7D  0CB2               	rrf	(___ftadd@f2+2),f
  7681  0F7E  0CB1               	rrf	(___ftadd@f2+1),f
  7682  0F7F  0CB0               	rrf	(___ftadd@f2),f
  7683  0F80  3EFF               	addlw	-1
  7684  0F81  1D03               	skipz
  7685  0F82  2F7C               	goto	u4805
  7686                           
  7687                           	line	126
  7688  0F83  3001               	movlw	(01h)
  7689  0F84  00B3               	movwf	(??___ftadd+0)+0
  7690  0F85  0833               	movf	(??___ftadd+0)+0,w
  7691  0F86  07B8               	addwf	(___ftadd@exp2),f
  7692  0F87  2F88               	goto	l6941
  7693                           	line	127
  7694                           	
  7695  0F88                     l2942:	
  7696                           	line	124
  7697                           	
  7698  0F88                     l6941:	
  7699  0F88  0839               	movf	(___ftadd@exp1),w
  7700  0F89  0638               	xorwf	(___ftadd@exp2),w
  7701  0F8A  1D03               	skipz
  7702  0F8B  2F8D               	goto	u4811
  7703  0F8C  2F8E               	goto	u4810
  7704  0F8D                     u4811:
  7705  0F8D  2F7B               	goto	l6939
  7706  0F8E                     u4810:
  7707  0F8E  2F90               	goto	l2936
  7708                           	
  7709  0F8F                     l2944:	
  7710  0F8F  2F90               	goto	l2936
  7711                           	line	128
  7712                           	
  7713  0F90                     l2937:	
  7714                           	line	129
  7715                           	
  7716  0F90                     l2936:	
  7717  0F90  1FB7               	btfss	(___ftadd@sign),(7)&7
  7718  0F91  2F93               	goto	u4821
  7719  0F92  2F94               	goto	u4820
  7720  0F93                     u4821:
  7721  0F93  2FA5               	goto	l6945
  7722  0F94                     u4820:
  7723                           	line	131
  7724                           	
  7725  0F94                     l6943:	
  7726  0F94  30FF               	movlw	0FFh
  7727  0F95  06AD               	xorwf	(___ftadd@f1),f
  7728  0F96  30FF               	movlw	0FFh
  7729  0F97  06AE               	xorwf	(___ftadd@f1+1),f
  7730  0F98  30FF               	movlw	0FFh
  7731  0F99  06AF               	xorwf	(___ftadd@f1+2),f
  7732                           	line	132
  7733  0F9A  3001               	movlw	01h
  7734  0F9B  07AD               	addwf	(___ftadd@f1),f
  7735  0F9C  3000               	movlw	0
  7736  0F9D  1803               	skipnc
  7737  0F9E  3001               movlw 1
  7738  0F9F  07AE               	addwf	(___ftadd@f1+1),f
  7739  0FA0  3000               	movlw	0
  7740  0FA1  1803               	skipnc
  7741  0FA2  3001               movlw 1
  7742  0FA3  07AF               	addwf	(___ftadd@f1+2),f
  7743  0FA4  2FA5               	goto	l6945
  7744                           	line	133
  7745                           	
  7746  0FA5                     l2945:	
  7747                           	line	134
  7748                           	
  7749  0FA5                     l6945:	
  7750  0FA5  1F37               	btfss	(___ftadd@sign),(6)&7
  7751  0FA6  2FA8               	goto	u4831
  7752  0FA7  2FA9               	goto	u4830
  7753  0FA8                     u4831:
  7754  0FA8  2FBA               	goto	l6949
  7755  0FA9                     u4830:
  7756                           	line	136
  7757                           	
  7758  0FA9                     l6947:	
  7759  0FA9  30FF               	movlw	0FFh
  7760  0FAA  06B0               	xorwf	(___ftadd@f2),f
  7761  0FAB  30FF               	movlw	0FFh
  7762  0FAC  06B1               	xorwf	(___ftadd@f2+1),f
  7763  0FAD  30FF               	movlw	0FFh
  7764  0FAE  06B2               	xorwf	(___ftadd@f2+2),f
  7765                           	line	137
  7766  0FAF  3001               	movlw	01h
  7767  0FB0  07B0               	addwf	(___ftadd@f2),f
  7768  0FB1  3000               	movlw	0
  7769  0FB2  1803               	skipnc
  7770  0FB3  3001               movlw 1
  7771  0FB4  07B1               	addwf	(___ftadd@f2+1),f
  7772  0FB5  3000               	movlw	0
  7773  0FB6  1803               	skipnc
  7774  0FB7  3001               movlw 1
  7775  0FB8  07B2               	addwf	(___ftadd@f2+2),f
  7776  0FB9  2FBA               	goto	l6949
  7777                           	line	138
  7778                           	
  7779  0FBA                     l2946:	
  7780                           	line	139
  7781                           	
  7782  0FBA                     l6949:	
  7783  0FBA  01B7               	clrf	(___ftadd@sign)
  7784                           	line	140
  7785  0FBB  082D               	movf	(___ftadd@f1),w
  7786  0FBC  07B0               	addwf	(___ftadd@f2),f
  7787  0FBD  082E               	movf	(___ftadd@f1+1),w
  7788  0FBE  1103               	clrz
  7789  0FBF  1803               	skipnc
  7790  0FC0  0A2E               	incf	(___ftadd@f1+1),w
  7791  0FC1  1903               	skipnz
  7792  0FC2  2FC4               	goto	u4841
  7793  0FC3  07B1               	addwf	(___ftadd@f2+1),f
  7794  0FC4                     u4841:
  7795  0FC4  082F               	movf	(___ftadd@f1+2),w
  7796  0FC5  1103               	clrz
  7797  0FC6  1803               	skipnc
  7798  0FC7  0A2F               	incf	(___ftadd@f1+2),w
  7799  0FC8  1903               	skipnz
  7800  0FC9  2FCB               	goto	u4842
  7801  0FCA  07B2               	addwf	(___ftadd@f2+2),f
  7802  0FCB                     u4842:
  7803                           
  7804                           	line	141
  7805                           	
  7806  0FCB                     l6951:	
  7807  0FCB  1FB2               	btfss	(___ftadd@f2+2),(23)&7
  7808  0FCC  2FCE               	goto	u4851
  7809  0FCD  2FCF               	goto	u4850
  7810  0FCE                     u4851:
  7811  0FCE  2FE3               	goto	l6957
  7812  0FCF                     u4850:
  7813                           	line	142
  7814                           	
  7815  0FCF                     l6953:	
  7816  0FCF  30FF               	movlw	0FFh
  7817  0FD0  06B0               	xorwf	(___ftadd@f2),f
  7818  0FD1  30FF               	movlw	0FFh
  7819  0FD2  06B1               	xorwf	(___ftadd@f2+1),f
  7820  0FD3  30FF               	movlw	0FFh
  7821  0FD4  06B2               	xorwf	(___ftadd@f2+2),f
  7822                           	line	143
  7823  0FD5  3001               	movlw	01h
  7824  0FD6  07B0               	addwf	(___ftadd@f2),f
  7825  0FD7  3000               	movlw	0
  7826  0FD8  1803               	skipnc
  7827  0FD9  3001               movlw 1
  7828  0FDA  07B1               	addwf	(___ftadd@f2+1),f
  7829  0FDB  3000               	movlw	0
  7830  0FDC  1803               	skipnc
  7831  0FDD  3001               movlw 1
  7832  0FDE  07B2               	addwf	(___ftadd@f2+2),f
  7833                           	line	144
  7834                           	
  7835  0FDF                     l6955:	
  7836  0FDF  01B7               	clrf	(___ftadd@sign)
  7837  0FE0  1403               	bsf	status,0
  7838  0FE1  0DB7               	rlf	(___ftadd@sign),f
  7839  0FE2  2FE3               	goto	l6957
  7840                           	line	145
  7841                           	
  7842  0FE3                     l2947:	
  7843                           	line	146
  7844                           	
  7845  0FE3                     l6957:	
  7846  0FE3  0830               	movf	(___ftadd@f2),w
  7847  0FE4  00A0               	movwf	(?___ftpack)
  7848  0FE5  0831               	movf	(___ftadd@f2+1),w
  7849  0FE6  00A1               	movwf	(?___ftpack+1)
  7850  0FE7  0832               	movf	(___ftadd@f2+2),w
  7851  0FE8  00A2               	movwf	(?___ftpack+2)
  7852  0FE9  0839               	movf	(___ftadd@exp1),w
  7853  0FEA  00B3               	movwf	(??___ftadd+0)+0
  7854  0FEB  0833               	movf	(??___ftadd+0)+0,w
  7855  0FEC  00A3               	movwf	0+(?___ftpack)+03h
  7856  0FED  0837               	movf	(___ftadd@sign),w
  7857  0FEE  00B4               	movwf	(??___ftadd+1)+0
  7858  0FEF  0834               	movf	(??___ftadd+1)+0,w
  7859  0FF0  00A4               	movwf	0+(?___ftpack)+04h
  7860  0FF1  160A  118A  2704   	fcall	___ftpack
              120A  158A         
  7861  0FF6  1283               	bcf	status, 5	;RP0=0, select bank0
  7862  0FF7  1303               	bcf	status, 6	;RP1=0, select bank0
  7863  0FF8  0820               	movf	(0+(?___ftpack)),w
  7864  0FF9  00AD               	movwf	(?___ftadd)
  7865  0FFA  0821               	movf	(1+(?___ftpack)),w
  7866  0FFB  00AE               	movwf	(?___ftadd+1)
  7867  0FFC  0822               	movf	(2+(?___ftpack)),w
  7868  0FFD  00AF               	movwf	(?___ftadd+2)
  7869  0FFE  2FFF               	goto	l2922
  7870                           	
  7871  0FFF                     l6959:	
  7872                           	line	148
  7873                           	
  7874  0FFF                     l2922:	
  7875  0FFF  0008               	return
  7876                           	opt stack 0
  7877                           GLOBAL	__end_of___ftadd
  7878  1000                     	__end_of___ftadd:
  7879 ;; =============== function ___ftadd ends ============
  7880                           
  7881                           	signat	___ftadd,8315
  7882                           	global	_intToStr
  7883                           psect	text1260,local,class=CODE,delta=2
  7884                           global __ptext1260
  7885  08BD                     __ptext1260:
  7886                           
  7887 ;; *************** function _intToStr *****************
  7888 ;; Defined at:
  7889 ;;		line 24 in file "C:\Users\USER\OneDrive\Desktop\Studying\Midterm\string.c"
  7890 ;; Parameters:    Size  Location     Type
  7891 ;;  x               2   10[BANK0 ] unsigned int 
  7892 ;;  str             1   12[BANK0 ] PTR unsigned char 
  7893 ;;		 -> str(10), 
  7894 ;;  d               2   13[BANK0 ] int 
  7895 ;; Auto vars:     Size  Location     Type
  7896 ;;  i               2   17[BANK0 ] unsigned int 
  7897 ;; Return value:  Size  Location     Type
  7898 ;;                  2   10[BANK0 ] unsigned int 
  7899 ;; Registers used:
  7900 ;;		wreg, fsr0l, fsr0h, status,2, status,0, pclath, cstack
  7901 ;; Tracked objects:
  7902 ;;		On entry : 0/0
  7903 ;;		On exit  : 0/0
  7904 ;;		Unchanged: 0/0
  7905 ;; Data sizes:     COMMON   BANK0   BANK1   BANK3   BANK2
  7906 ;;      Params:         0       5       0       0       0
  7907 ;;      Locals:         0       2       0       0       0
  7908 ;;      Temps:          0       2       0       0       0
  7909 ;;      Totals:         0       9       0       0       0
  7910 ;;Total ram usage:        9 bytes
  7911 ;; Hardware stack levels used:    1
  7912 ;; Hardware stack levels required when called:    2
  7913 ;; This function calls:
  7914 ;;		___lwmod
  7915 ;;		___lwdiv
  7916 ;;		_reverse
  7917 ;; This function is called by:
  7918 ;;		_ftoa
  7919 ;; This function uses a non-reentrant model
  7920 ;;
  7921                           psect	text1260
  7922                           	file	"C:\Users\USER\OneDrive\Desktop\Studying\Midterm\string.c"
  7923                           	line	24
  7924                           	global	__size_of_intToStr
  7925  0080                     	__size_of_intToStr	equ	__end_of_intToStr-_intToStr
  7926                           	
  7927  08BD                     _intToStr:	
  7928                           	opt	stack 4
  7929                           ; Regs used in _intToStr: [wreg-fsr0h+status,2+status,0+pclath+cstack]
  7930                           	line	25
  7931                           	
  7932  08BD                     l6867:	
  7933                           ;string.c: 25: unsigned int i = 0;
  7934  08BD  1283               	bcf	status, 5	;RP0=0, select bank0
  7935  08BE  1303               	bcf	status, 6	;RP1=0, select bank0
  7936  08BF  01B1               	clrf	(intToStr@i)
  7937  08C0  01B2               	clrf	(intToStr@i+1)
  7938                           	line	26
  7939                           ;string.c: 26: while (x)
  7940  08C1  28FC               	goto	l6875
  7941                           	
  7942  08C2                     l2166:	
  7943                           	line	28
  7944                           	
  7945  08C2                     l6869:	
  7946                           ;string.c: 27: {
  7947                           ;string.c: 28: str[i++] = (x%10) + '0';
  7948  08C2  300A               	movlw	low(0Ah)
  7949  08C3  00F4               	movwf	(?___lwmod)
  7950  08C4  3000               	movlw	high(0Ah)
  7951  08C5  00F5               	movwf	((?___lwmod))+1
  7952  08C6  082B               	movf	(intToStr@x+1),w
  7953  08C7  01F7               	clrf	1+(?___lwmod)+02h
  7954  08C8  07F7               	addwf	1+(?___lwmod)+02h
  7955  08C9  082A               	movf	(intToStr@x),w
  7956  08CA  01F6               	clrf	0+(?___lwmod)+02h
  7957  08CB  07F6               	addwf	0+(?___lwmod)+02h
  7958                           
  7959  08CC  160A  118A  24BD   	fcall	___lwmod
              120A  158A         
  7960  08D1  0874               	movf	(0+(?___lwmod)),w
  7961  08D2  3E30               	addlw	030h
  7962  08D3  1283               	bcf	status, 5	;RP0=0, select bank0
  7963  08D4  1303               	bcf	status, 6	;RP1=0, select bank0
  7964  08D5  00AF               	movwf	(??_intToStr+0)+0
  7965  08D6  0831               	movf	(intToStr@i),w
  7966  08D7  072C               	addwf	(intToStr@str),w
  7967  08D8  00B0               	movwf	(??_intToStr+1)+0
  7968  08D9  0830               	movf	0+(??_intToStr+1)+0,w
  7969  08DA  0084               	movwf	fsr0
  7970  08DB  082F               	movf	(??_intToStr+0)+0,w
  7971  08DC  1783               	bsf	status, 7	;select IRP bank2
  7972  08DD  0080               	movwf	indf
  7973                           	
  7974  08DE                     l6871:	
  7975  08DE  3001               	movlw	low(01h)
  7976  08DF  07B1               	addwf	(intToStr@i),f
  7977  08E0  1803               	skipnc
  7978  08E1  0AB2               	incf	(intToStr@i+1),f
  7979  08E2  3000               	movlw	high(01h)
  7980  08E3  07B2               	addwf	(intToStr@i+1),f
  7981                           	line	29
  7982                           	
  7983  08E4                     l6873:	
  7984                           ;string.c: 29: x = x/10;
  7985  08E4  300A               	movlw	low(0Ah)
  7986  08E5  00F4               	movwf	(?___lwdiv)
  7987  08E6  3000               	movlw	high(0Ah)
  7988  08E7  00F5               	movwf	((?___lwdiv))+1
  7989  08E8  082B               	movf	(intToStr@x+1),w
  7990  08E9  01F7               	clrf	1+(?___lwdiv)+02h
  7991  08EA  07F7               	addwf	1+(?___lwdiv)+02h
  7992  08EB  082A               	movf	(intToStr@x),w
  7993  08EC  01F6               	clrf	0+(?___lwdiv)+02h
  7994  08ED  07F6               	addwf	0+(?___lwdiv)+02h
  7995                           
  7996  08EE  160A  118A  259C   	fcall	___lwdiv
              120A  158A         
  7997  08F3  0875               	movf	(1+(?___lwdiv)),w
  7998  08F4  1283               	bcf	status, 5	;RP0=0, select bank0
  7999  08F5  1303               	bcf	status, 6	;RP1=0, select bank0
  8000  08F6  01AB               	clrf	(intToStr@x+1)
  8001  08F7  07AB               	addwf	(intToStr@x+1)
  8002  08F8  0874               	movf	(0+(?___lwdiv)),w
  8003  08F9  01AA               	clrf	(intToStr@x)
  8004  08FA  07AA               	addwf	(intToStr@x)
  8005                           
  8006  08FB  28FC               	goto	l6875
  8007                           	line	30
  8008                           	
  8009  08FC                     l2165:	
  8010                           	line	26
  8011                           	
  8012  08FC                     l6875:	
  8013  08FC  082B               	movf	((intToStr@x+1)),w
  8014  08FD  042A               	iorwf	((intToStr@x)),w
  8015  08FE  1D03               	skipz
  8016  08FF  2901               	goto	u4601
  8017  0900  2902               	goto	u4600
  8018  0901                     u4601:
  8019  0901  28C2               	goto	l6869
  8020  0902                     u4600:
  8021  0902  2915               	goto	l6881
  8022                           	
  8023  0903                     l2167:	
  8024                           	line	34
  8025                           ;string.c: 30: }
  8026                           ;string.c: 34: while (i < d)
  8027  0903  2915               	goto	l6881
  8028                           	
  8029  0904                     l2169:	
  8030                           	line	35
  8031                           	
  8032  0904                     l6877:	
  8033                           ;string.c: 35: str[i++] = '0';
  8034  0904  3030               	movlw	(030h)
  8035  0905  00AF               	movwf	(??_intToStr+0)+0
  8036  0906  0831               	movf	(intToStr@i),w
  8037  0907  072C               	addwf	(intToStr@str),w
  8038  0908  00B0               	movwf	(??_intToStr+1)+0
  8039  0909  0830               	movf	0+(??_intToStr+1)+0,w
  8040  090A  0084               	movwf	fsr0
  8041  090B  082F               	movf	(??_intToStr+0)+0,w
  8042  090C  1783               	bsf	status, 7	;select IRP bank2
  8043  090D  0080               	movwf	indf
  8044                           	
  8045  090E                     l6879:	
  8046  090E  3001               	movlw	low(01h)
  8047  090F  07B1               	addwf	(intToStr@i),f
  8048  0910  1803               	skipnc
  8049  0911  0AB2               	incf	(intToStr@i+1),f
  8050  0912  3000               	movlw	high(01h)
  8051  0913  07B2               	addwf	(intToStr@i+1),f
  8052  0914  2915               	goto	l6881
  8053                           	
  8054  0915                     l2168:	
  8055                           	line	34
  8056                           	
  8057  0915                     l6881:	
  8058  0915  082E               	movf	(intToStr@d+1),w
  8059  0916  0232               	subwf	(intToStr@i+1),w
  8060  0917  1D03               	skipz
  8061  0918  291B               	goto	u4615
  8062  0919  082D               	movf	(intToStr@d),w
  8063  091A  0231               	subwf	(intToStr@i),w
  8064  091B                     u4615:
  8065  091B  1C03               	skipc
  8066  091C  291E               	goto	u4611
  8067  091D  291F               	goto	u4610
  8068  091E                     u4611:
  8069  091E  2904               	goto	l6877
  8070  091F                     u4610:
  8071  091F  2920               	goto	l6883
  8072                           	
  8073  0920                     l2170:	
  8074                           	line	37
  8075                           	
  8076  0920                     l6883:	
  8077                           ;string.c: 37: reverse(str, i);
  8078  0920  0832               	movf	(intToStr@i+1),w
  8079  0921  01F5               	clrf	(?_reverse+1)
  8080  0922  07F5               	addwf	(?_reverse+1)
  8081  0923  0831               	movf	(intToStr@i),w
  8082  0924  01F4               	clrf	(?_reverse)
  8083  0925  07F4               	addwf	(?_reverse)
  8084                           
  8085  0926  082C               	movf	(intToStr@str),w
  8086  0927  160A  118A  25EC   	fcall	_reverse
              120A  158A         
  8087                           	line	38
  8088                           	
  8089  092C                     l6885:	
  8090                           ;string.c: 38: str[i] = '\0';
  8091  092C  1283               	bcf	status, 5	;RP0=0, select bank0
  8092  092D  1303               	bcf	status, 6	;RP1=0, select bank0
  8093  092E  0831               	movf	(intToStr@i),w
  8094  092F  072C               	addwf	(intToStr@str),w
  8095  0930  00AF               	movwf	(??_intToStr+0)+0
  8096  0931  082F               	movf	0+(??_intToStr+0)+0,w
  8097  0932  0084               	movwf	fsr0
  8098  0933  1783               	bsf	status, 7	;select IRP bank2
  8099  0934  0180               	clrf	indf
  8100                           	line	39
  8101                           	
  8102  0935                     l6887:	
  8103                           ;string.c: 39: return i;
  8104  0935  0832               	movf	(intToStr@i+1),w
  8105  0936  01AB               	clrf	(?_intToStr+1)
  8106  0937  07AB               	addwf	(?_intToStr+1)
  8107  0938  0831               	movf	(intToStr@i),w
  8108  0939  01AA               	clrf	(?_intToStr)
  8109  093A  07AA               	addwf	(?_intToStr)
  8110                           
  8111  093B  293C               	goto	l2171
  8112                           	
  8113  093C                     l6889:	
  8114                           	line	40
  8115                           	
  8116  093C                     l2171:	
  8117  093C  0008               	return
  8118                           	opt stack 0
  8119                           GLOBAL	__end_of_intToStr
  8120  093D                     	__end_of_intToStr:
  8121 ;; =============== function _intToStr ends ============
  8122                           
  8123                           	signat	_intToStr,12410
  8124                           	global	_lcd_goto
  8125                           psect	text1261,local,class=CODE,delta=2
  8126                           global __ptext1261
  8127  12FF                     __ptext1261:
  8128                           
  8129 ;; *************** function _lcd_goto *****************
  8130 ;; Defined at:
  8131 ;;		line 52 in file "C:\Users\USER\OneDrive\Desktop\Studying\Midterm\lcd.c"
  8132 ;; Parameters:    Size  Location     Type
  8133 ;;  pos             1    wreg     unsigned char 
  8134 ;; Auto vars:     Size  Location     Type
  8135 ;;  pos             1    7[COMMON] unsigned char 
  8136 ;; Return value:  Size  Location     Type
  8137 ;;		None               void
  8138 ;; Registers used:
  8139 ;;		wreg, status,2, status,0, pclath, cstack
  8140 ;; Tracked objects:
  8141 ;;		On entry : 0/0
  8142 ;;		On exit  : 0/0
  8143 ;;		Unchanged: 0/0
  8144 ;; Data sizes:     COMMON   BANK0   BANK1   BANK3   BANK2
  8145 ;;      Params:         0       0       0       0       0
  8146 ;;      Locals:         1       0       0       0       0
  8147 ;;      Temps:          0       0       0       0       0
  8148 ;;      Totals:         1       0       0       0       0
  8149 ;;Total ram usage:        1 bytes
  8150 ;; Hardware stack levels used:    1
  8151 ;; Hardware stack levels required when called:    2
  8152 ;; This function calls:
  8153 ;;		_lcd_write
  8154 ;; This function is called by:
  8155 ;;		_main
  8156 ;; This function uses a non-reentrant model
  8157 ;;
  8158                           psect	text1261
  8159                           	file	"C:\Users\USER\OneDrive\Desktop\Studying\Midterm\lcd.c"
  8160                           	line	52
  8161                           	global	__size_of_lcd_goto
  8162  000C                     	__size_of_lcd_goto	equ	__end_of_lcd_goto-_lcd_goto
  8163                           	
  8164  12FF                     _lcd_goto:	
  8165                           	opt	stack 5
  8166                           ; Regs used in _lcd_goto: [wreg+status,2+status,0+pclath+cstack]
  8167                           ;lcd_goto@pos stored from wreg
  8168  12FF  00F7               	movwf	(lcd_goto@pos)
  8169                           	line	53
  8170                           	
  8171  1300                     l5977:	
  8172                           ;lcd.c: 53: RE0 = 0;
  8173  1300  1283               	bcf	status, 5	;RP0=0, select bank0
  8174  1301  1303               	bcf	status, 6	;RP1=0, select bank0
  8175  1302  1009               	bcf	(72/8),(72)&7
  8176                           	line	54
  8177                           	
  8178  1303                     l5979:	
  8179                           ;lcd.c: 54: lcd_write(0x80+pos);
  8180  1303  0877               	movf	(lcd_goto@pos),w
  8181  1304  3E80               	addlw	080h
  8182  1305  160A  118A  23DA   	fcall	_lcd_write
              160A  118A         
  8183                           	line	55
  8184                           	
  8185  130A                     l1463:	
  8186  130A  0008               	return
  8187                           	opt stack 0
  8188                           GLOBAL	__end_of_lcd_goto
  8189  130B                     	__end_of_lcd_goto:
  8190 ;; =============== function _lcd_goto ends ============
  8191                           
  8192                           	signat	_lcd_goto,4216
  8193                           	global	_lcd_puts
  8194                           psect	text1262,local,class=CODE,delta=2
  8195                           global __ptext1262
  8196  13FF                     __ptext1262:
  8197                           
  8198 ;; *************** function _lcd_puts *****************
  8199 ;; Defined at:
  8200 ;;		line 37 in file "C:\Users\USER\OneDrive\Desktop\Studying\Midterm\lcd.c"
  8201 ;; Parameters:    Size  Location     Type
  8202 ;;  s               2    0[BANK0 ] PTR const unsigned char 
  8203 ;;		 -> STR_6(12), STR_5(7), STR_4(10), STR_3(8), 
  8204 ;;		 -> STR_2(13), str(10), STR_1(12), 
  8205 ;; Auto vars:     Size  Location     Type
  8206 ;;		None
  8207 ;; Return value:  Size  Location     Type
  8208 ;;		None               void
  8209 ;; Registers used:
  8210 ;;		wreg, fsr0l, fsr0h, status,2, status,0, btemp+1, pclath, cstack
  8211 ;; Tracked objects:
  8212 ;;		On entry : 0/0
  8213 ;;		On exit  : 0/0
  8214 ;;		Unchanged: 0/0
  8215 ;; Data sizes:     COMMON   BANK0   BANK1   BANK3   BANK2
  8216 ;;      Params:         0       2       0       0       0
  8217 ;;      Locals:         0       0       0       0       0
  8218 ;;      Temps:          0       0       0       0       0
  8219 ;;      Totals:         0       2       0       0       0
  8220 ;;Total ram usage:        2 bytes
  8221 ;; Hardware stack levels used:    1
  8222 ;; Hardware stack levels required when called:    2
  8223 ;; This function calls:
  8224 ;;		_lcd_write
  8225 ;; This function is called by:
  8226 ;;		_InitMain
  8227 ;;		_main
  8228 ;; This function uses a non-reentrant model
  8229 ;;
  8230                           psect	text1262
  8231                           	file	"C:\Users\USER\OneDrive\Desktop\Studying\Midterm\lcd.c"
  8232                           	line	37
  8233                           	global	__size_of_lcd_puts
  8234  002B                     	__size_of_lcd_puts	equ	__end_of_lcd_puts-_lcd_puts
  8235                           	
  8236  13FF                     _lcd_puts:	
  8237                           	opt	stack 5
  8238                           ; Regs used in _lcd_puts: [wreg-fsr0h+status,2+status,0+btemp+1+pclath+cstack]
  8239                           	line	38
  8240                           	
  8241  13FF                     l6859:	
  8242                           ;lcd.c: 38: RE0 = 1;
  8243  13FF  1283               	bcf	status, 5	;RP0=0, select bank0
  8244  1400  1303               	bcf	status, 6	;RP1=0, select bank0
  8245  1401  1409               	bsf	(72/8),(72)&7
  8246                           	line	39
  8247                           ;lcd.c: 39: while(*s)
  8248  1402  2C1A               	goto	l6865
  8249                           	
  8250  1403                     l1452:	
  8251                           	line	40
  8252                           	
  8253  1403                     l6861:	
  8254                           ;lcd.c: 40: lcd_write(*s++);
  8255  1403  0821               	movf	(lcd_puts@s+1),w
  8256  1404  00FF               	movwf	btemp+1
  8257  1405  0820               	movf	(lcd_puts@s),w
  8258  1406  0084               	movwf	fsr0
  8259  1407  120A  158A  2000   	fcall	stringtab
              160A  118A         
  8260  140C  160A  118A  23DA   	fcall	_lcd_write
              160A  118A         
  8261                           	
  8262  1411                     l6863:	
  8263  1411  3001               	movlw	low(01h)
  8264  1412  1283               	bcf	status, 5	;RP0=0, select bank0
  8265  1413  1303               	bcf	status, 6	;RP1=0, select bank0
  8266  1414  07A0               	addwf	(lcd_puts@s),f
  8267  1415  1803               	skipnc
  8268  1416  0AA1               	incf	(lcd_puts@s+1),f
  8269  1417  3000               	movlw	high(01h)
  8270  1418  07A1               	addwf	(lcd_puts@s+1),f
  8271  1419  2C1A               	goto	l6865
  8272                           	
  8273  141A                     l1451:	
  8274                           	line	39
  8275                           	
  8276  141A                     l6865:	
  8277  141A  0821               	movf	(lcd_puts@s+1),w
  8278  141B  00FF               	movwf	btemp+1
  8279  141C  0820               	movf	(lcd_puts@s),w
  8280  141D  0084               	movwf	fsr0
  8281  141E  120A  158A  2000   	fcall	stringtab
              160A  118A         
  8282  1423  3800               	iorlw	0
  8283  1424  1D03               	skipz
  8284  1425  2C27               	goto	u4591
  8285  1426  2C28               	goto	u4590
  8286  1427                     u4591:
  8287  1427  2C03               	goto	l6861
  8288  1428                     u4590:
  8289  1428  2C29               	goto	l1454
  8290                           	
  8291  1429                     l1453:	
  8292                           	line	41
  8293                           	
  8294  1429                     l1454:	
  8295  1429  0008               	return
  8296                           	opt stack 0
  8297                           GLOBAL	__end_of_lcd_puts
  8298  142A                     	__end_of_lcd_puts:
  8299 ;; =============== function _lcd_puts ends ============
  8300                           
  8301                           	signat	_lcd_puts,4216
  8302                           	global	_lcd_clear
  8303                           psect	text1263,local,class=CODE,delta=2
  8304                           global __ptext1263
  8305  1319                     __ptext1263:
  8306                           
  8307 ;; *************** function _lcd_clear *****************
  8308 ;; Defined at:
  8309 ;;		line 31 in file "C:\Users\USER\OneDrive\Desktop\Studying\Midterm\lcd.c"
  8310 ;; Parameters:    Size  Location     Type
  8311 ;;		None
  8312 ;; Auto vars:     Size  Location     Type
  8313 ;;		None
  8314 ;; Return value:  Size  Location     Type
  8315 ;;		None               void
  8316 ;; Registers used:
  8317 ;;		wreg, status,2, status,0, pclath, cstack
  8318 ;; Tracked objects:
  8319 ;;		On entry : 0/0
  8320 ;;		On exit  : 0/0
  8321 ;;		Unchanged: 0/0
  8322 ;; Data sizes:     COMMON   BANK0   BANK1   BANK3   BANK2
  8323 ;;      Params:         0       0       0       0       0
  8324 ;;      Locals:         0       0       0       0       0
  8325 ;;      Temps:          0       0       0       0       0
  8326 ;;      Totals:         0       0       0       0       0
  8327 ;;Total ram usage:        0 bytes
  8328 ;; Hardware stack levels used:    1
  8329 ;; Hardware stack levels required when called:    2
  8330 ;; This function calls:
  8331 ;;		_lcd_write
  8332 ;;		_DelayMs
  8333 ;; This function is called by:
  8334 ;;		_InitMain
  8335 ;;		_main
  8336 ;; This function uses a non-reentrant model
  8337 ;;
  8338                           psect	text1263
  8339                           	file	"C:\Users\USER\OneDrive\Desktop\Studying\Midterm\lcd.c"
  8340                           	line	31
  8341                           	global	__size_of_lcd_clear
  8342  0010                     	__size_of_lcd_clear	equ	__end_of_lcd_clear-_lcd_clear
  8343                           	
  8344  1319                     _lcd_clear:	
  8345                           	opt	stack 5
  8346                           ; Regs used in _lcd_clear: [wreg+status,2+status,0+pclath+cstack]
  8347                           	line	32
  8348                           	
  8349  1319                     l5965:	
  8350                           ;lcd.c: 32: RE0 = 0;
  8351  1319  1283               	bcf	status, 5	;RP0=0, select bank0
  8352  131A  1303               	bcf	status, 6	;RP1=0, select bank0
  8353  131B  1009               	bcf	(72/8),(72)&7
  8354                           	line	33
  8355                           	
  8356  131C                     l5967:	
  8357                           ;lcd.c: 33: lcd_write(0x1);
  8358  131C  3001               	movlw	(01h)
  8359  131D  160A  118A  23DA   	fcall	_lcd_write
              160A  118A         
  8360                           	line	34
  8361                           ;lcd.c: 34: DelayMs(2);
  8362  1322  3002               	movlw	(02h)
  8363  1323  160A  118A  2398   	fcall	_DelayMs
              160A  118A         
  8364                           	line	35
  8365                           	
  8366  1328                     l1448:	
  8367  1328  0008               	return
  8368                           	opt stack 0
  8369                           GLOBAL	__end_of_lcd_clear
  8370  1329                     	__end_of_lcd_clear:
  8371 ;; =============== function _lcd_clear ends ============
  8372                           
  8373                           	signat	_lcd_clear,88
  8374                           	global	_lcd_init
  8375                           psect	text1264,local,class=CODE,delta=2
  8376                           global __ptext1264
  8377  163D                     __ptext1264:
  8378                           
  8379 ;; *************** function _lcd_init *****************
  8380 ;; Defined at:
  8381 ;;		line 57 in file "C:\Users\USER\OneDrive\Desktop\Studying\Midterm\lcd.c"
  8382 ;; Parameters:    Size  Location     Type
  8383 ;;		None
  8384 ;; Auto vars:     Size  Location     Type
  8385 ;;  _dcnt           1    2[BANK0 ] unsigned char 
  8386 ;;  _dcnt           1    1[BANK0 ] unsigned char 
  8387 ;; Return value:  Size  Location     Type
  8388 ;;		None               void
  8389 ;; Registers used:
  8390 ;;		wreg, status,2, status,0, pclath, cstack
  8391 ;; Tracked objects:
  8392 ;;		On entry : 0/0
  8393 ;;		On exit  : 0/0
  8394 ;;		Unchanged: 0/0
  8395 ;; Data sizes:     COMMON   BANK0   BANK1   BANK3   BANK2
  8396 ;;      Params:         0       0       0       0       0
  8397 ;;      Locals:         0       2       0       0       0
  8398 ;;      Temps:          0       1       0       0       0
  8399 ;;      Totals:         0       3       0       0       0
  8400 ;;Total ram usage:        3 bytes
  8401 ;; Hardware stack levels used:    1
  8402 ;; Hardware stack levels required when called:    2
  8403 ;; This function calls:
  8404 ;;		_DelayMs
  8405 ;;		_lcd_write
  8406 ;; This function is called by:
  8407 ;;		_InitMain
  8408 ;; This function uses a non-reentrant model
  8409 ;;
  8410                           psect	text1264
  8411                           	file	"C:\Users\USER\OneDrive\Desktop\Studying\Midterm\lcd.c"
  8412                           	line	57
  8413                           	global	__size_of_lcd_init
  8414  0059                     	__size_of_lcd_init	equ	__end_of_lcd_init-_lcd_init
  8415                           	
  8416  163D                     _lcd_init:	
  8417                           	opt	stack 4
  8418                           ; Regs used in _lcd_init: [wreg+status,2+status,0+pclath+cstack]
  8419                           	line	58
  8420                           	
  8421  163D                     l6827:	
  8422                           ;lcd.c: 58: RE0 = 0;
  8423  163D  1283               	bcf	status, 5	;RP0=0, select bank0
  8424  163E  1303               	bcf	status, 6	;RP1=0, select bank0
  8425  163F  1009               	bcf	(72/8),(72)&7
  8426                           	line	59
  8427                           	
  8428  1640                     l6829:	
  8429                           ;lcd.c: 59: DelayMs(15);
  8430  1640  300F               	movlw	(0Fh)
  8431  1641  160A  118A  2398   	fcall	_DelayMs
              160A  118A         
  8432                           	line	60
  8433                           	
  8434  1646                     l6831:	
  8435                           ;lcd.c: 60: PORTD = (0x3 << 4);
  8436  1646  3030               	movlw	(030h)
  8437  1647  1283               	bcf	status, 5	;RP0=0, select bank0
  8438  1648  1303               	bcf	status, 6	;RP1=0, select bank0
  8439  1649  0088               	movwf	(8)	;volatile
  8440                           	line	61
  8441                           	
  8442  164A                     l6833:	
  8443                           ;lcd.c: 61: ((RE1 = 1),(RE1=0));
  8444  164A  1489               	bsf	(73/8),(73)&7
  8445                           	
  8446  164B                     l6835:	
  8447  164B  1089               	bcf	(73/8),(73)&7
  8448                           	line	62
  8449                           	
  8450  164C                     l6837:	
  8451                           ;lcd.c: 62: DelayMs(5);
  8452  164C  3005               	movlw	(05h)
  8453  164D  160A  118A  2398   	fcall	_DelayMs
              160A  118A         
  8454                           	line	63
  8455                           	
  8456  1652                     l6839:	
  8457                           ;lcd.c: 63: ((RE1 = 1),(RE1=0));
  8458  1652  1283               	bcf	status, 5	;RP0=0, select bank0
  8459  1653  1303               	bcf	status, 6	;RP1=0, select bank0
  8460  1654  1489               	bsf	(73/8),(73)&7
  8461                           	
  8462  1655                     l6841:	
  8463  1655  1089               	bcf	(73/8),(73)&7
  8464                           	line	64
  8465                           ;lcd.c: 64: { unsigned char _dcnt; _dcnt = (100)/((12*1000L)/(4*1000L))|1; while(--_dcnt
                                  != 0) continue; };
  8466  1656  3021               	movlw	(021h)
  8467  1657  00A0               	movwf	(??_lcd_init+0)+0
  8468  1658  0820               	movf	(??_lcd_init+0)+0,w
  8469  1659  00A1               	movwf	(lcd_init@_dcnt)
  8470  165A  2E5C               	goto	l6843
  8471                           	
  8472  165B                     l1467:	
  8473  165B  2E5C               	goto	l6843
  8474                           	
  8475  165C                     l1466:	
  8476                           	
  8477  165C                     l6843:	
  8478  165C  3001               	movlw	low(01h)
  8479  165D  02A1               	subwf	(lcd_init@_dcnt),f
  8480  165E  1D03               	btfss	status,2
  8481  165F  2E61               	goto	u4571
  8482  1660  2E62               	goto	u4570
  8483  1661                     u4571:
  8484  1661  2E5C               	goto	l6843
  8485  1662                     u4570:
  8486                           	
  8487  1662                     l1468:	
  8488                           	line	65
  8489                           ;lcd.c: 65: ((RE1 = 1),(RE1=0));
  8490  1662  1489               	bsf	(73/8),(73)&7
  8491  1663  1089               	bcf	(73/8),(73)&7
  8492                           	line	66
  8493                           	
  8494  1664                     l6845:	
  8495                           ;lcd.c: 66: DelayMs(5);
  8496  1664  3005               	movlw	(05h)
  8497  1665  160A  118A  2398   	fcall	_DelayMs
              160A  118A         
  8498                           	line	67
  8499                           	
  8500  166A                     l6847:	
  8501                           ;lcd.c: 67: PORTD = (0x2 << 4);
  8502  166A  3020               	movlw	(020h)
  8503  166B  1283               	bcf	status, 5	;RP0=0, select bank0
  8504  166C  1303               	bcf	status, 6	;RP1=0, select bank0
  8505  166D  0088               	movwf	(8)	;volatile
  8506                           	line	68
  8507                           	
  8508  166E                     l6849:	
  8509                           ;lcd.c: 68: ((RE1 = 1),(RE1=0));
  8510  166E  1489               	bsf	(73/8),(73)&7
  8511                           	
  8512  166F                     l6851:	
  8513  166F  1089               	bcf	(73/8),(73)&7
  8514                           	line	69
  8515                           	
  8516  1670                     l6853:	
  8517                           ;lcd.c: 69: { unsigned char _dcnt; _dcnt = (40)/((12*1000L)/(4*1000L))|1; while(--_dcnt 
                                 != 0) continue; };
  8518  1670  300D               	movlw	(0Dh)
  8519  1671  00A0               	movwf	(??_lcd_init+0)+0
  8520  1672  0820               	movf	(??_lcd_init+0)+0,w
  8521  1673  00A2               	movwf	(lcd_init@_dcnt_2128)
  8522  1674  2E76               	goto	l6855
  8523                           	
  8524  1675                     l1470:	
  8525  1675  2E76               	goto	l6855
  8526                           	
  8527  1676                     l1469:	
  8528                           	
  8529  1676                     l6855:	
  8530  1676  3001               	movlw	low(01h)
  8531  1677  02A2               	subwf	(lcd_init@_dcnt_2128),f
  8532  1678  1D03               	btfss	status,2
  8533  1679  2E7B               	goto	u4581
  8534  167A  2E7C               	goto	u4580
  8535  167B                     u4581:
  8536  167B  2E76               	goto	l6855
  8537  167C                     u4580:
  8538  167C  2E7D               	goto	l6857
  8539                           	
  8540  167D                     l1471:	
  8541                           	line	70
  8542                           	
  8543  167D                     l6857:	
  8544                           ;lcd.c: 70: lcd_write(0x28);
  8545  167D  3028               	movlw	(028h)
  8546  167E  160A  118A  23DA   	fcall	_lcd_write
              160A  118A         
  8547                           	line	71
  8548                           ;lcd.c: 71: lcd_write(0x08);
  8549  1683  3008               	movlw	(08h)
  8550  1684  160A  118A  23DA   	fcall	_lcd_write
              160A  118A         
  8551                           	line	72
  8552                           ;lcd.c: 72: lcd_write(0x0F);
  8553  1689  300F               	movlw	(0Fh)
  8554  168A  160A  118A  23DA   	fcall	_lcd_write
              160A  118A         
  8555                           	line	73
  8556                           ;lcd.c: 73: lcd_write(0x06);
  8557  168F  3006               	movlw	(06h)
  8558  1690  160A  118A  23DA   	fcall	_lcd_write
              160A  118A         
  8559                           	line	74
  8560                           	
  8561  1695                     l1472:	
  8562  1695  0008               	return
  8563                           	opt stack 0
  8564                           GLOBAL	__end_of_lcd_init
  8565  1696                     	__end_of_lcd_init:
  8566 ;; =============== function _lcd_init ends ============
  8567                           
  8568                           	signat	_lcd_init,88
  8569                           	global	_frexp
  8570                           psect	text1265,local,class=CODE,delta=2
  8571                           global __ptext1265
  8572  1503                     __ptext1265:
  8573                           
  8574 ;; *************** function _frexp *****************
  8575 ;; Defined at:
  8576 ;;		line 255 in file "C:\Program Files (x86)\HI-TECH Software\PICC\9.83\sources\frexp.c"
  8577 ;; Parameters:    Size  Location     Type
  8578 ;;  value           3    4[COMMON] unsigned char 
  8579 ;;  eptr            1    7[COMMON] PTR int 
  8580 ;;		 -> log@exp(2), floor@expon(2), 
  8581 ;; Auto vars:     Size  Location     Type
  8582 ;;		None
  8583 ;; Return value:  Size  Location     Type
  8584 ;;                  3    4[COMMON] PTR int 
  8585 ;; Registers used:
  8586 ;;		wreg, fsr0l, fsr0h, status,2, status,0, btemp+1
  8587 ;; Tracked objects:
  8588 ;;		On entry : 0/0
  8589 ;;		On exit  : 0/0
  8590 ;;		Unchanged: 0/0
  8591 ;; Data sizes:     COMMON   BANK0   BANK1   BANK3   BANK2
  8592 ;;      Params:         4       0       0       0       0
  8593 ;;      Locals:         0       0       0       0       0
  8594 ;;      Temps:          0       2       0       0       0
  8595 ;;      Totals:         4       2       0       0       0
  8596 ;;Total ram usage:        6 bytes
  8597 ;; Hardware stack levels used:    1
  8598 ;; Hardware stack levels required when called:    1
  8599 ;; This function calls:
  8600 ;;		Nothing
  8601 ;; This function is called by:
  8602 ;;		_floor
  8603 ;;		_log
  8604 ;; This function uses a non-reentrant model
  8605 ;;
  8606                           psect	text1265
  8607                           	file	"C:\Program Files (x86)\HI-TECH Software\PICC\9.83\sources\frexp.c"
  8608                           	line	255
  8609                           	global	__size_of_frexp
  8610  004C                     	__size_of_frexp	equ	__end_of_frexp-_frexp
  8611                           	
  8612  1503                     _frexp:	
  8613                           	opt	stack 2
  8614                           ; Regs used in _frexp: [wreg-fsr0h+status,2+status,0+btemp+1]
  8615                           	line	256
  8616                           	
  8617  1503                     l6799:	
  8618  1503  0876               	movf	(frexp@value+2),w
  8619  1504  0475               	iorwf	(frexp@value+1),w
  8620  1505  0474               	iorwf	(frexp@value),w
  8621  1506  1D03               	skipz
  8622  1507  2D09               	goto	u4551
  8623  1508  2D0A               	goto	u4550
  8624  1509                     u4551:
  8625  1509  2D1A               	goto	l6807
  8626  150A                     u4550:
  8627                           	line	257
  8628                           	
  8629  150A                     l6801:	
  8630  150A  0877               	movf	(frexp@eptr),w
  8631  150B  0084               	movwf	fsr0
  8632  150C  3000               	movlw	low(0)
  8633  150D  1383               	bcf	status, 7	;select IRP bank0
  8634  150E  0080               	movwf	indf
  8635  150F  0A84               	incf	fsr0,f
  8636  1510  3000               	movlw	high(0)
  8637  1511  0080               	movwf	indf
  8638                           	line	258
  8639                           	
  8640  1512                     l6803:	
  8641  1512  3000               	movlw	0x0
  8642  1513  00F4               	movwf	(?_frexp)
  8643  1514  3000               	movlw	0x0
  8644  1515  00F5               	movwf	(?_frexp+1)
  8645  1516  3000               	movlw	0x0
  8646  1517  00F6               	movwf	(?_frexp+2)
  8647  1518  2D4E               	goto	l3262
  8648                           	
  8649  1519                     l6805:	
  8650  1519  2D4E               	goto	l3262
  8651                           	line	259
  8652                           	
  8653  151A                     l3261:	
  8654                           	line	261
  8655                           	
  8656  151A                     l6807:	
  8657  151A  0876               	movf	0+(frexp@value)+02h,w
  8658  151B  397F               	andlw	(1<<7)-1
  8659  151C  1283               	bcf	status, 5	;RP0=0, select bank0
  8660  151D  1303               	bcf	status, 6	;RP1=0, select bank0
  8661  151E  00A0               	movwf	(??_frexp+0)+0
  8662  151F  01A1               	clrf	(??_frexp+0)+0+1
  8663  1520  3001               	movlw	01h
  8664  1521  00FF               	movwf	btemp+1
  8665  1522                     u4565:
  8666  1522  1003               	clrc
  8667  1523  0DA0               	rlf	(??_frexp+0)+0,f
  8668  1524  0DA1               	rlf	(??_frexp+0)+1,f
  8669  1525  0BFF               	decfsz	btemp+1,f
  8670  1526  2D22               	goto	u4565
  8671  1527  0877               	movf	(frexp@eptr),w
  8672  1528  0084               	movwf	fsr0
  8673  1529  0820               	movf	0+(??_frexp+0)+0,w
  8674  152A  1383               	bcf	status, 7	;select IRP bank0
  8675  152B  0080               	movwf	indf
  8676  152C  0A84               	incf	fsr0,f
  8677  152D  0821               	movf	1+(??_frexp+0)+0,w
  8678  152E  0080               	movwf	indf
  8679                           	line	262
  8680                           	
  8681  152F                     l6809:	
  8682  152F  0D75               	rlf	0+(frexp@value)+01h,w
  8683  1530  0D75               	rlf	0+(frexp@value)+01h,w
  8684  1531  3901               	andlw	1
  8685  1532  00A0               	movwf	(??_frexp+0)+0
  8686  1533  01A1               	clrf	(??_frexp+0)+0+1
  8687  1534  0877               	movf	(frexp@eptr),w
  8688  1535  0084               	movwf	fsr0
  8689  1536  0820               	movf	0+(??_frexp+0)+0,w
  8690  1537  0480               	iorwf	indf,f
  8691  1538  0A84               	incf	fsr0,f
  8692  1539  0821               	movf	1+(??_frexp+0)+0,w
  8693  153A  0480               	iorwf	indf,f
  8694                           	line	263
  8695                           	
  8696  153B                     l6811:	
  8697  153B  0877               	movf	(frexp@eptr),w
  8698  153C  0084               	movwf	fsr0
  8699  153D  3082               	movlw	low(-126)
  8700  153E  0780               	addwf	indf,f
  8701  153F  0F84               	incfsz	fsr0,f
  8702  1540  0800               	movf	indf,w
  8703  1541  1803               	skipnc
  8704  1542  0A00               	incf	indf,w
  8705  1543  00FF               	movwf	btemp+1
  8706  1544  30FF               	movlw	high(-126)
  8707  1545  077F               	addwf	btemp+1,w
  8708  1546  0080               	movwf	indf
  8709  1547  0384               	decf	fsr0,f
  8710                           	line	268
  8711                           	
  8712  1548                     l6813:	
  8713  1548  0876               	movf	0+(frexp@value)+02h,w
  8714  1549  3980               	andlw	not (((1<<7)-1)<<0)
  8715  154A  383F               	iorlw	(03Fh & ((1<<7)-1))<<0
  8716  154B  00F6               	movwf	0+(frexp@value)+02h
  8717                           	line	269
  8718                           	
  8719  154C                     l6815:	
  8720  154C  13F5               	bcf	0+(frexp@value)+01h,7
  8721                           	line	273
  8722                           	
  8723  154D                     l6817:	
  8724  154D  2D4E               	goto	l3262
  8725                           	
  8726  154E                     l6819:	
  8727                           	line	274
  8728                           	
  8729  154E                     l3262:	
  8730  154E  0008               	return
  8731                           	opt stack 0
  8732                           GLOBAL	__end_of_frexp
  8733  154F                     	__end_of_frexp:
  8734 ;; =============== function _frexp ends ============
  8735                           
  8736                           	signat	_frexp,8315
  8737                           	global	___ftge
  8738                           psect	text1266,local,class=CODE,delta=2
  8739                           global __ptext1266
  8740  1696                     __ptext1266:
  8741                           
  8742 ;; *************** function ___ftge *****************
  8743 ;; Defined at:
  8744 ;;		line 5 in file "C:\Program Files (x86)\HI-TECH Software\PICC\9.83\sources\ftge.c"
  8745 ;; Parameters:    Size  Location     Type
  8746 ;;  ff1             3    0[BANK0 ] float 
  8747 ;;  ff2             3    3[BANK0 ] float 
  8748 ;; Auto vars:     Size  Location     Type
  8749 ;;		None
  8750 ;; Return value:  Size  Location     Type
  8751 ;;		None               void
  8752 ;; Registers used:
  8753 ;;		wreg, status,2, status,0
  8754 ;; Tracked objects:
  8755 ;;		On entry : 0/0
  8756 ;;		On exit  : 0/0
  8757 ;;		Unchanged: 0/0
  8758 ;; Data sizes:     COMMON   BANK0   BANK1   BANK3   BANK2
  8759 ;;      Params:         0       6       0       0       0
  8760 ;;      Locals:         0       0       0       0       0
  8761 ;;      Temps:          0       6       0       0       0
  8762 ;;      Totals:         0      12       0       0       0
  8763 ;;Total ram usage:       12 bytes
  8764 ;; Hardware stack levels used:    1
  8765 ;; Hardware stack levels required when called:    1
  8766 ;; This function calls:
  8767 ;;		Nothing
  8768 ;; This function is called by:
  8769 ;;		_main
  8770 ;;		_pow
  8771 ;;		_exp
  8772 ;;		_floor
  8773 ;;		_log
  8774 ;;		_ldexp
  8775 ;; This function uses a non-reentrant model
  8776 ;;
  8777                           psect	text1266
  8778                           	file	"C:\Program Files (x86)\HI-TECH Software\PICC\9.83\sources\ftge.c"
  8779                           	line	5
  8780                           	global	__size_of___ftge
  8781  006E                     	__size_of___ftge	equ	__end_of___ftge-___ftge
  8782                           	
  8783  1696                     ___ftge:	
  8784                           	opt	stack 6
  8785                           ; Regs used in ___ftge: [wreg+status,2+status,0]
  8786                           	line	6
  8787                           	
  8788  1696                     l6761:	
  8789  1696  1283               	bcf	status, 5	;RP0=0, select bank0
  8790  1697  1303               	bcf	status, 6	;RP1=0, select bank0
  8791  1698  1FA2               	btfss	(___ftge@ff1+2),(23)&7
  8792  1699  2E9B               	goto	u4491
  8793  169A  2E9C               	goto	u4490
  8794  169B                     u4491:
  8795  169B  2EC2               	goto	l6765
  8796  169C                     u4490:
  8797                           	line	7
  8798                           	
  8799  169C                     l6763:	
  8800  169C  3000               	movlw	0
  8801  169D  00A6               	movwf	((??___ftge+0)+0)
  8802  169E  3000               	movlw	0
  8803  169F  00A7               	movwf	((??___ftge+0)+0+1)
  8804  16A0  3080               	movlw	080h
  8805  16A1  00A8               	movwf	((??___ftge+0)+0+2)
  8806  16A2  0920               	comf	(___ftge@ff1),w
  8807  16A3  00A9               	movwf	(??___ftge+3)+0
  8808  16A4  0921               	comf	(___ftge@ff1+1),w
  8809  16A5  00AA               	movwf	((??___ftge+3)+0+1)
  8810  16A6  0922               	comf	(___ftge@ff1+2),w
  8811  16A7  00AB               	movwf	((??___ftge+3)+0+2)
  8812  16A8  0AA9               	incf	(??___ftge+3)+0,f
  8813  16A9  1903               	skipnz
  8814  16AA  0AAA               	incf	((??___ftge+3)+0+1),f
  8815  16AB  1903               	skipnz
  8816  16AC  0AAB               	incf	((??___ftge+3)+0+2),f
  8817  16AD  0829               	movf	0+(??___ftge+3)+0,w
  8818  16AE  07A6               	addwf	(??___ftge+0)+0,f
  8819  16AF  082A               	movf	1+(??___ftge+3)+0,w
  8820  16B0  1803               	skipnc
  8821  16B1  0F2A               	incfsz	1+(??___ftge+3)+0,w
  8822  16B2  2EB4               	goto	u4501
  8823  16B3  2EB5               	goto	u4502
  8824  16B4                     u4501:
  8825  16B4  07A7               	addwf	(??___ftge+0)+1,f
  8826                           	
  8827  16B5                     u4502:
  8828  16B5  082B               	movf	2+(??___ftge+3)+0,w
  8829  16B6  1803               	skipnc
  8830  16B7  0F2B               	incfsz	2+(??___ftge+3)+0,w
  8831  16B8  2EBA               	goto	u4503
  8832  16B9  2EBB               	goto	u4504
  8833  16BA                     u4503:
  8834  16BA  07A8               	addwf	(??___ftge+0)+2,f
  8835                           	
  8836  16BB                     u4504:
  8837  16BB  0826               	movf	0+(??___ftge+0)+0,w
  8838  16BC  00A0               	movwf	(___ftge@ff1)
  8839  16BD  0827               	movf	1+(??___ftge+0)+0,w
  8840  16BE  00A1               	movwf	(___ftge@ff1+1)
  8841  16BF  0828               	movf	2+(??___ftge+0)+0,w
  8842  16C0  00A2               	movwf	(___ftge@ff1+2)
  8843  16C1  2EC2               	goto	l6765
  8844                           	
  8845  16C2                     l3042:	
  8846                           	line	8
  8847                           	
  8848  16C2                     l6765:	
  8849  16C2  1FA5               	btfss	(___ftge@ff2+2),(23)&7
  8850  16C3  2EC5               	goto	u4511
  8851  16C4  2EC6               	goto	u4510
  8852  16C5                     u4511:
  8853  16C5  2EEC               	goto	l6769
  8854  16C6                     u4510:
  8855                           	line	9
  8856                           	
  8857  16C6                     l6767:	
  8858  16C6  3000               	movlw	0
  8859  16C7  00A6               	movwf	((??___ftge+0)+0)
  8860  16C8  3000               	movlw	0
  8861  16C9  00A7               	movwf	((??___ftge+0)+0+1)
  8862  16CA  3080               	movlw	080h
  8863  16CB  00A8               	movwf	((??___ftge+0)+0+2)
  8864  16CC  0923               	comf	(___ftge@ff2),w
  8865  16CD  00A9               	movwf	(??___ftge+3)+0
  8866  16CE  0924               	comf	(___ftge@ff2+1),w
  8867  16CF  00AA               	movwf	((??___ftge+3)+0+1)
  8868  16D0  0925               	comf	(___ftge@ff2+2),w
  8869  16D1  00AB               	movwf	((??___ftge+3)+0+2)
  8870  16D2  0AA9               	incf	(??___ftge+3)+0,f
  8871  16D3  1903               	skipnz
  8872  16D4  0AAA               	incf	((??___ftge+3)+0+1),f
  8873  16D5  1903               	skipnz
  8874  16D6  0AAB               	incf	((??___ftge+3)+0+2),f
  8875  16D7  0829               	movf	0+(??___ftge+3)+0,w
  8876  16D8  07A6               	addwf	(??___ftge+0)+0,f
  8877  16D9  082A               	movf	1+(??___ftge+3)+0,w
  8878  16DA  1803               	skipnc
  8879  16DB  0F2A               	incfsz	1+(??___ftge+3)+0,w
  8880  16DC  2EDE               	goto	u4521
  8881  16DD  2EDF               	goto	u4522
  8882  16DE                     u4521:
  8883  16DE  07A7               	addwf	(??___ftge+0)+1,f
  8884                           	
  8885  16DF                     u4522:
  8886  16DF  082B               	movf	2+(??___ftge+3)+0,w
  8887  16E0  1803               	skipnc
  8888  16E1  0F2B               	incfsz	2+(??___ftge+3)+0,w
  8889  16E2  2EE4               	goto	u4523
  8890  16E3  2EE5               	goto	u4524
  8891  16E4                     u4523:
  8892  16E4  07A8               	addwf	(??___ftge+0)+2,f
  8893                           	
  8894  16E5                     u4524:
  8895  16E5  0826               	movf	0+(??___ftge+0)+0,w
  8896  16E6  00A3               	movwf	(___ftge@ff2)
  8897  16E7  0827               	movf	1+(??___ftge+0)+0,w
  8898  16E8  00A4               	movwf	(___ftge@ff2+1)
  8899  16E9  0828               	movf	2+(??___ftge+0)+0,w
  8900  16EA  00A5               	movwf	(___ftge@ff2+2)
  8901  16EB  2EEC               	goto	l6769
  8902                           	
  8903  16EC                     l3043:	
  8904                           	line	10
  8905                           	
  8906  16EC                     l6769:	
  8907  16EC  3080               	movlw	080h
  8908  16ED  06A2               	xorwf	(___ftge@ff1+2),f
  8909                           	line	11
  8910                           	
  8911  16EE                     l6771:	
  8912  16EE  3080               	movlw	080h
  8913  16EF  06A5               	xorwf	(___ftge@ff2+2),f
  8914                           	line	12
  8915                           	
  8916  16F0                     l6773:	
  8917  16F0  0825               	movf	(___ftge@ff2+2),w
  8918  16F1  0222               	subwf	(___ftge@ff1+2),w
  8919  16F2  1D03               	skipz
  8920  16F3  2EFA               	goto	u4535
  8921  16F4  0824               	movf	(___ftge@ff2+1),w
  8922  16F5  0221               	subwf	(___ftge@ff1+1),w
  8923  16F6  1D03               	skipz
  8924  16F7  2EFA               	goto	u4535
  8925  16F8  0823               	movf	(___ftge@ff2),w
  8926  16F9  0220               	subwf	(___ftge@ff1),w
  8927  16FA                     u4535:
  8928  16FA  1803               	skipnc
  8929  16FB  2EFD               	goto	u4531
  8930  16FC  2EFE               	goto	u4530
  8931  16FD                     u4531:
  8932  16FD  2F00               	goto	l6777
  8933  16FE                     u4530:
  8934                           	
  8935  16FE                     l6775:	
  8936  16FE  1003               	clrc
  8937                           	
  8938  16FF  2F03               	goto	l3044
  8939                           	
  8940  1700                     l6655:	
  8941                           	
  8942  1700                     l6777:	
  8943  1700  1403               	setc
  8944                           	
  8945  1701  2F03               	goto	l3044
  8946                           	
  8947  1702                     l6657:	
  8948  1702  2F03               	goto	l3044
  8949                           	
  8950  1703                     l6779:	
  8951                           	line	13
  8952                           	
  8953  1703                     l3044:	
  8954  1703  0008               	return
  8955                           	opt stack 0
  8956                           GLOBAL	__end_of___ftge
  8957  1704                     	__end_of___ftge:
  8958 ;; =============== function ___ftge ends ============
  8959                           
  8960                           	signat	___ftge,8312
  8961                           	global	___ftneg
  8962                           psect	text1267,local,class=CODE,delta=2
  8963                           global __ptext1267
  8964  130B                     __ptext1267:
  8965                           
  8966 ;; *************** function ___ftneg *****************
  8967 ;; Defined at:
  8968 ;;		line 16 in file "C:\Program Files (x86)\HI-TECH Software\PICC\9.83\sources\ftneg.c"
  8969 ;; Parameters:    Size  Location     Type
  8970 ;;  f1              3    5[BANK0 ] float 
  8971 ;; Auto vars:     Size  Location     Type
  8972 ;;		None
  8973 ;; Return value:  Size  Location     Type
  8974 ;;                  3    5[BANK0 ] float 
  8975 ;; Registers used:
  8976 ;;		wreg
  8977 ;; Tracked objects:
  8978 ;;		On entry : 0/0
  8979 ;;		On exit  : 0/0
  8980 ;;		Unchanged: 0/0
  8981 ;; Data sizes:     COMMON   BANK0   BANK1   BANK3   BANK2
  8982 ;;      Params:         0       3       0       0       0
  8983 ;;      Locals:         0       0       0       0       0
  8984 ;;      Temps:          0       0       0       0       0
  8985 ;;      Totals:         0       3       0       0       0
  8986 ;;Total ram usage:        3 bytes
  8987 ;; Hardware stack levels used:    1
  8988 ;; Hardware stack levels required when called:    1
  8989 ;; This function calls:
  8990 ;;		Nothing
  8991 ;; This function is called by:
  8992 ;;		_ftoa
  8993 ;;		_pow
  8994 ;;		_exp
  8995 ;;		_ldexp
  8996 ;; This function uses a non-reentrant model
  8997 ;;
  8998                           psect	text1267
  8999                           	file	"C:\Program Files (x86)\HI-TECH Software\PICC\9.83\sources\ftneg.c"
  9000                           	line	16
  9001                           	global	__size_of___ftneg
  9002  000E                     	__size_of___ftneg	equ	__end_of___ftneg-___ftneg
  9003                           	
  9004  130B                     ___ftneg:	
  9005                           	opt	stack 2
  9006                           ; Regs used in ___ftneg: [wreg]
  9007                           	line	17
  9008                           	
  9009  130B                     l5859:	
  9010  130B  1283               	bcf	status, 5	;RP0=0, select bank0
  9011  130C  1303               	bcf	status, 6	;RP1=0, select bank0
  9012  130D  0827               	movf	(___ftneg@f1+2),w
  9013  130E  0426               	iorwf	(___ftneg@f1+1),w
  9014  130F  0425               	iorwf	(___ftneg@f1),w
  9015  1310  1903               	skipnz
  9016  1311  2B13               	goto	u3211
  9017  1312  2B14               	goto	u3210
  9018  1313                     u3211:
  9019  1313  2B17               	goto	l5863
  9020  1314                     u3210:
  9021                           	line	18
  9022                           	
  9023  1314                     l5861:	
  9024  1314  3080               	movlw	080h
  9025  1315  06A7               	xorwf	(___ftneg@f1+2),f
  9026  1316  2B17               	goto	l5863
  9027                           	
  9028  1317                     l3038:	
  9029                           	line	19
  9030                           	
  9031  1317                     l5863:	
  9032  1317  2B18               	goto	l3039
  9033                           	
  9034  1318                     l5865:	
  9035                           	line	20
  9036                           	
  9037  1318                     l3039:	
  9038  1318  0008               	return
  9039                           	opt stack 0
  9040                           GLOBAL	__end_of___ftneg
  9041  1319                     	__end_of___ftneg:
  9042 ;; =============== function ___ftneg ends ============
  9043                           
  9044                           	signat	___ftneg,4219
  9045                           	global	___fttol
  9046                           psect	text1268,local,class=CODE,delta=2
  9047                           global __ptext1268
  9048  0759                     __ptext1268:
  9049                           
  9050 ;; *************** function ___fttol *****************
  9051 ;; Defined at:
  9052 ;;		line 45 in file "C:\Program Files (x86)\HI-TECH Software\PICC\9.83\sources\fttol.c"
  9053 ;; Parameters:    Size  Location     Type
  9054 ;;  f1              3    4[COMMON] float 
  9055 ;; Auto vars:     Size  Location     Type
  9056 ;;  lval            4    5[BANK0 ] unsigned long 
  9057 ;;  exp1            1    9[BANK0 ] unsigned char 
  9058 ;;  sign1           1    4[BANK0 ] unsigned char 
  9059 ;; Return value:  Size  Location     Type
  9060 ;;                  4    4[COMMON] long 
  9061 ;; Registers used:
  9062 ;;		wreg, status,2, status,0
  9063 ;; Tracked objects:
  9064 ;;		On entry : 0/0
  9065 ;;		On exit  : 0/0
  9066 ;;		Unchanged: 0/0
  9067 ;; Data sizes:     COMMON   BANK0   BANK1   BANK3   BANK2
  9068 ;;      Params:         4       0       0       0       0
  9069 ;;      Locals:         0       6       0       0       0
  9070 ;;      Temps:          0       4       0       0       0
  9071 ;;      Totals:         4      10       0       0       0
  9072 ;;Total ram usage:       14 bytes
  9073 ;; Hardware stack levels used:    1
  9074 ;; Hardware stack levels required when called:    1
  9075 ;; This function calls:
  9076 ;;		Nothing
  9077 ;; This function is called by:
  9078 ;;		_ftoa
  9079 ;;		_pow
  9080 ;;		_exp
  9081 ;;		_floor
  9082 ;; This function uses a non-reentrant model
  9083 ;;
  9084                           psect	text1268
  9085                           	file	"C:\Program Files (x86)\HI-TECH Software\PICC\9.83\sources\fttol.c"
  9086                           	line	45
  9087                           	global	__size_of___fttol
  9088  00A6                     	__size_of___fttol	equ	__end_of___fttol-___fttol
  9089                           	
  9090  0759                     ___fttol:	
  9091                           	opt	stack 3
  9092                           ; Regs used in ___fttol: [wreg+status,2+status,0]
  9093                           	line	49
  9094                           	
  9095  0759                     l5807:	
  9096  0759  0874               	movf	(___fttol@f1),w
  9097  075A  1283               	bcf	status, 5	;RP0=0, select bank0
  9098  075B  1303               	bcf	status, 6	;RP1=0, select bank0
  9099  075C  00A0               	movwf	((??___fttol+0)+0)
  9100  075D  0875               	movf	(___fttol@f1+1),w
  9101  075E  00A1               	movwf	((??___fttol+0)+0+1)
  9102  075F  0876               	movf	(___fttol@f1+2),w
  9103  0760  00A2               	movwf	((??___fttol+0)+0+2)
  9104  0761  1003               	clrc
  9105  0762  0D21               	rlf	(??___fttol+0)+1,w
  9106  0763  0D22               	rlf	(??___fttol+0)+2,w
  9107  0764  00A3               	movwf	(??___fttol+3)+0
  9108  0765  0823               	movf	(??___fttol+3)+0,w
  9109  0766  00A9               	movwf	(___fttol@exp1)
  9110  0767  08A9               	movf	((___fttol@exp1)),f
  9111  0768  1D03               	skipz
  9112  0769  2F6B               	goto	u3101
  9113  076A  2F6C               	goto	u3100
  9114  076B                     u3101:
  9115  076B  2F76               	goto	l5813
  9116  076C                     u3100:
  9117                           	line	50
  9118                           	
  9119  076C                     l5809:	
  9120  076C  3000               	movlw	0
  9121  076D  00F7               	movwf	(?___fttol+3)
  9122  076E  3000               	movlw	0
  9123  076F  00F6               	movwf	(?___fttol+2)
  9124  0770  3000               	movlw	0
  9125  0771  00F5               	movwf	(?___fttol+1)
  9126  0772  3000               	movlw	0
  9127  0773  00F4               	movwf	(?___fttol)
  9128                           
  9129  0774  2FFE               	goto	l2985
  9130                           	
  9131  0775                     l5811:	
  9132  0775  2FFE               	goto	l2985
  9133                           	
  9134  0776                     l2984:	
  9135                           	line	51
  9136                           	
  9137  0776                     l5813:	
  9138  0776  0874               	movf	(___fttol@f1),w
  9139  0777  00A0               	movwf	((??___fttol+0)+0)
  9140  0778  0875               	movf	(___fttol@f1+1),w
  9141  0779  00A1               	movwf	((??___fttol+0)+0+1)
  9142  077A  0876               	movf	(___fttol@f1+2),w
  9143  077B  00A2               	movwf	((??___fttol+0)+0+2)
  9144  077C  3017               	movlw	017h
  9145  077D                     u3115:
  9146  077D  1003               	clrc
  9147  077E  0CA2               	rrf	(??___fttol+0)+2,f
  9148  077F  0CA1               	rrf	(??___fttol+0)+1,f
  9149  0780  0CA0               	rrf	(??___fttol+0)+0,f
  9150  0781                     u3110:
  9151  0781  3EFF               	addlw	-1
  9152  0782  1D03               	skipz
  9153  0783  2F7D               	goto	u3115
  9154  0784  0820               	movf	0+(??___fttol+0)+0,w
  9155  0785  00A3               	movwf	(??___fttol+3)+0
  9156  0786  0823               	movf	(??___fttol+3)+0,w
  9157  0787  00A4               	movwf	(___fttol@sign1)
  9158                           	line	52
  9159                           	
  9160  0788                     l5815:	
  9161  0788  17F5               	bsf	(___fttol@f1)+(15/8),(15)&7
  9162                           	line	53
  9163                           	
  9164  0789                     l5817:	
  9165  0789  30FF               	movlw	0FFh
  9166  078A  05F4               	andwf	(___fttol@f1),f
  9167  078B  30FF               	movlw	0FFh
  9168  078C  05F5               	andwf	(___fttol@f1+1),f
  9169  078D  3000               	movlw	0
  9170  078E  05F6               	andwf	(___fttol@f1+2),f
  9171                           	line	54
  9172                           	
  9173  078F                     l5819:	
  9174  078F  0874               	movf	(___fttol@f1),w
  9175  0790  00A5               	movwf	(___fttol@lval)
  9176  0791  0875               	movf	(___fttol@f1+1),w
  9177  0792  00A6               	movwf	((___fttol@lval))+1
  9178  0793  0876               	movf	(___fttol@f1+2),w
  9179  0794  00A7               	movwf	((___fttol@lval))+2
  9180  0795  01A8               	clrf	((___fttol@lval))+3
  9181                           	line	55
  9182                           	
  9183  0796                     l5821:	
  9184  0796  308E               	movlw	low(08Eh)
  9185  0797  02A9               	subwf	(___fttol@exp1),f
  9186                           	line	56
  9187                           	
  9188  0798                     l5823:	
  9189  0798  1FA9               	btfss	(___fttol@exp1),7
  9190  0799  2F9B               	goto	u3121
  9191  079A  2F9C               	goto	u3120
  9192  079B                     u3121:
  9193  079B  2FC1               	goto	l5833
  9194  079C                     u3120:
  9195                           	line	57
  9196                           	
  9197  079C                     l5825:	
  9198  079C  0829               	movf	(___fttol@exp1),w
  9199  079D  3A80               	xorlw	80h
  9200  079E  3E8F               	addlw	-((-15)^80h)
  9201  079F  1803               	skipnc
  9202  07A0  2FA2               	goto	u3131
  9203  07A1  2FA3               	goto	u3130
  9204  07A2                     u3131:
  9205  07A2  2FAE               	goto	l5831
  9206  07A3                     u3130:
  9207                           	line	58
  9208                           	
  9209  07A3                     l5827:	
  9210  07A3  3000               	movlw	0
  9211  07A4  00F7               	movwf	(?___fttol+3)
  9212  07A5  3000               	movlw	0
  9213  07A6  00F6               	movwf	(?___fttol+2)
  9214  07A7  3000               	movlw	0
  9215  07A8  00F5               	movwf	(?___fttol+1)
  9216  07A9  3000               	movlw	0
  9217  07AA  00F4               	movwf	(?___fttol)
  9218                           
  9219  07AB  2FFE               	goto	l2985
  9220                           	
  9221  07AC                     l5829:	
  9222  07AC  2FFE               	goto	l2985
  9223                           	
  9224  07AD                     l2987:	
  9225  07AD  2FAE               	goto	l5831
  9226                           	line	59
  9227                           	
  9228  07AE                     l2988:	
  9229                           	line	60
  9230                           	
  9231  07AE                     l5831:	
  9232  07AE  3001               	movlw	01h
  9233  07AF                     u3145:
  9234  07AF  1003               	clrc
  9235  07B0  0CA8               	rrf	(___fttol@lval+3),f
  9236  07B1  0CA7               	rrf	(___fttol@lval+2),f
  9237  07B2  0CA6               	rrf	(___fttol@lval+1),f
  9238  07B3  0CA5               	rrf	(___fttol@lval),f
  9239  07B4  3EFF               	addlw	-1
  9240  07B5  1D03               	skipz
  9241  07B6  2FAF               	goto	u3145
  9242                           
  9243                           	line	61
  9244  07B7  3001               	movlw	(01h)
  9245  07B8  00A0               	movwf	(??___fttol+0)+0
  9246  07B9  0820               	movf	(??___fttol+0)+0,w
  9247  07BA  07A9               	addwf	(___fttol@exp1),f
  9248  07BB  1D03               	btfss	status,2
  9249  07BC  2FBE               	goto	u3151
  9250  07BD  2FBF               	goto	u3150
  9251  07BE                     u3151:
  9252  07BE  2FAE               	goto	l5831
  9253  07BF                     u3150:
  9254  07BF  2FE5               	goto	l5843
  9255                           	
  9256  07C0                     l2989:	
  9257                           	line	62
  9258  07C0  2FE5               	goto	l5843
  9259                           	
  9260  07C1                     l2986:	
  9261                           	line	63
  9262                           	
  9263  07C1                     l5833:	
  9264  07C1  3018               	movlw	(018h)
  9265  07C2  0229               	subwf	(___fttol@exp1),w
  9266  07C3  1C03               	skipc
  9267  07C4  2FC6               	goto	u3161
  9268  07C5  2FC7               	goto	u3160
  9269  07C6                     u3161:
  9270  07C6  2FDE               	goto	l5841
  9271  07C7                     u3160:
  9272                           	line	64
  9273                           	
  9274  07C7                     l5835:	
  9275  07C7  3000               	movlw	0
  9276  07C8  00F7               	movwf	(?___fttol+3)
  9277  07C9  3000               	movlw	0
  9278  07CA  00F6               	movwf	(?___fttol+2)
  9279  07CB  3000               	movlw	0
  9280  07CC  00F5               	movwf	(?___fttol+1)
  9281  07CD  3000               	movlw	0
  9282  07CE  00F4               	movwf	(?___fttol)
  9283                           
  9284  07CF  2FFE               	goto	l2985
  9285                           	
  9286  07D0                     l5837:	
  9287  07D0  2FFE               	goto	l2985
  9288                           	
  9289  07D1                     l2991:	
  9290                           	line	65
  9291  07D1  2FDE               	goto	l5841
  9292                           	
  9293  07D2                     l2993:	
  9294                           	line	66
  9295                           	
  9296  07D2                     l5839:	
  9297  07D2  3001               	movlw	01h
  9298  07D3  00A0               	movwf	(??___fttol+0)+0
  9299  07D4                     u3175:
  9300  07D4  1003               	clrc
  9301  07D5  0DA5               	rlf	(___fttol@lval),f
  9302  07D6  0DA6               	rlf	(___fttol@lval+1),f
  9303  07D7  0DA7               	rlf	(___fttol@lval+2),f
  9304  07D8  0DA8               	rlf	(___fttol@lval+3),f
  9305  07D9  0BA0               	decfsz	(??___fttol+0)+0
  9306  07DA  2FD4               	goto	u3175
  9307                           	line	67
  9308  07DB  3001               	movlw	low(01h)
  9309  07DC  02A9               	subwf	(___fttol@exp1),f
  9310  07DD  2FDE               	goto	l5841
  9311                           	line	68
  9312                           	
  9313  07DE                     l2992:	
  9314                           	line	65
  9315                           	
  9316  07DE                     l5841:	
  9317  07DE  08A9               	movf	(___fttol@exp1),f
  9318  07DF  1D03               	skipz
  9319  07E0  2FE2               	goto	u3181
  9320  07E1  2FE3               	goto	u3180
  9321  07E2                     u3181:
  9322  07E2  2FD2               	goto	l5839
  9323  07E3                     u3180:
  9324  07E3  2FE5               	goto	l5843
  9325                           	
  9326  07E4                     l2994:	
  9327  07E4  2FE5               	goto	l5843
  9328                           	line	69
  9329                           	
  9330  07E5                     l2990:	
  9331                           	line	70
  9332                           	
  9333  07E5                     l5843:	
  9334  07E5  0824               	movf	(___fttol@sign1),w
  9335  07E6  1D03               	skipz
  9336  07E7  2FE9               	goto	u3190
  9337  07E8  2FF5               	goto	l5847
  9338  07E9                     u3190:
  9339                           	line	71
  9340                           	
  9341  07E9                     l5845:	
  9342  07E9  09A5               	comf	(___fttol@lval),f
  9343  07EA  09A6               	comf	(___fttol@lval+1),f
  9344  07EB  09A7               	comf	(___fttol@lval+2),f
  9345  07EC  09A8               	comf	(___fttol@lval+3),f
  9346  07ED  0AA5               	incf	(___fttol@lval),f
  9347  07EE  1903               	skipnz
  9348  07EF  0AA6               	incf	(___fttol@lval+1),f
  9349  07F0  1903               	skipnz
  9350  07F1  0AA7               	incf	(___fttol@lval+2),f
  9351  07F2  1903               	skipnz
  9352  07F3  0AA8               	incf	(___fttol@lval+3),f
  9353  07F4  2FF5               	goto	l5847
  9354                           	
  9355  07F5                     l2995:	
  9356                           	line	72
  9357                           	
  9358  07F5                     l5847:	
  9359  07F5  0828               	movf	(___fttol@lval+3),w
  9360  07F6  00F7               	movwf	(?___fttol+3)
  9361  07F7  0827               	movf	(___fttol@lval+2),w
  9362  07F8  00F6               	movwf	(?___fttol+2)
  9363  07F9  0826               	movf	(___fttol@lval+1),w
  9364  07FA  00F5               	movwf	(?___fttol+1)
  9365  07FB  0825               	movf	(___fttol@lval),w
  9366  07FC  00F4               	movwf	(?___fttol)
  9367                           
  9368  07FD  2FFE               	goto	l2985
  9369                           	
  9370  07FE                     l5849:	
  9371                           	line	73
  9372                           	
  9373  07FE                     l2985:	
  9374  07FE  0008               	return
  9375                           	opt stack 0
  9376                           GLOBAL	__end_of___fttol
  9377  07FF                     	__end_of___fttol:
  9378 ;; =============== function ___fttol ends ============
  9379                           
  9380                           	signat	___fttol,4220
  9381                           	global	___ftpack
  9382                           psect	text1269,local,class=CODE,delta=2
  9383                           global __ptext1269
  9384  1704                     __ptext1269:
  9385                           
  9386 ;; *************** function ___ftpack *****************
  9387 ;; Defined at:
  9388 ;;		line 63 in file "C:\Program Files (x86)\HI-TECH Software\PICC\9.83\sources\float.c"
  9389 ;; Parameters:    Size  Location     Type
  9390 ;;  arg             3    0[BANK0 ] unsigned um
  9391 ;;  exp             1    3[BANK0 ] unsigned char 
  9392 ;;  sign            1    4[BANK0 ] unsigned char 
  9393 ;; Auto vars:     Size  Location     Type
  9394 ;;		None
  9395 ;; Return value:  Size  Location     Type
  9396 ;;                  3    0[BANK0 ] float 
  9397 ;; Registers used:
  9398 ;;		wreg, status,2, status,0
  9399 ;; Tracked objects:
  9400 ;;		On entry : 0/0
  9401 ;;		On exit  : 0/0
  9402 ;;		Unchanged: 0/0
  9403 ;; Data sizes:     COMMON   BANK0   BANK1   BANK3   BANK2
  9404 ;;      Params:         0       5       0       0       0
  9405 ;;      Locals:         0       0       0       0       0
  9406 ;;      Temps:          3       0       0       0       0
  9407 ;;      Totals:         3       5       0       0       0
  9408 ;;Total ram usage:        8 bytes
  9409 ;; Hardware stack levels used:    1
  9410 ;; Hardware stack levels required when called:    1
  9411 ;; This function calls:
  9412 ;;		Nothing
  9413 ;; This function is called by:
  9414 ;;		___ftadd
  9415 ;;		___ftdiv
  9416 ;;		___ftmul
  9417 ;;		___lbtoft
  9418 ;;		___awtoft
  9419 ;;		___altoft
  9420 ;;		___lltoft
  9421 ;;		___abtoft
  9422 ;;		___lwtoft
  9423 ;;		___attoft
  9424 ;;		___lttoft
  9425 ;; This function uses a non-reentrant model
  9426 ;;
  9427                           psect	text1269
  9428                           	file	"C:\Program Files (x86)\HI-TECH Software\PICC\9.83\sources\float.c"
  9429                           	line	63
  9430                           	global	__size_of___ftpack
  9431  007D                     	__size_of___ftpack	equ	__end_of___ftpack-___ftpack
  9432                           	
  9433  1704                     ___ftpack:	
  9434                           	opt	stack 4
  9435                           ; Regs used in ___ftpack: [wreg+status,2+status,0]
  9436                           	line	64
  9437                           	
  9438  1704                     l6723:	
  9439  1704  1283               	bcf	status, 5	;RP0=0, select bank0
  9440  1705  1303               	bcf	status, 6	;RP1=0, select bank0
  9441  1706  0823               	movf	(___ftpack@exp),w
  9442  1707  1D03               	skipz
  9443  1708  2F0A               	goto	u4370
  9444  1709  2F12               	goto	l6727
  9445  170A                     u4370:
  9446                           	
  9447  170A                     l6725:	
  9448  170A  0822               	movf	(___ftpack@arg+2),w
  9449  170B  0421               	iorwf	(___ftpack@arg+1),w
  9450  170C  0420               	iorwf	(___ftpack@arg),w
  9451  170D  1D03               	skipz
  9452  170E  2F10               	goto	u4381
  9453  170F  2F11               	goto	u4380
  9454  1710                     u4381:
  9455  1710  2F28               	goto	l6733
  9456  1711                     u4380:
  9457  1711  2F12               	goto	l6727
  9458                           	
  9459  1712                     l3285:	
  9460                           	line	65
  9461                           	
  9462  1712                     l6727:	
  9463  1712  3000               	movlw	0x0
  9464  1713  00A0               	movwf	(?___ftpack)
  9465  1714  3000               	movlw	0x0
  9466  1715  00A1               	movwf	(?___ftpack+1)
  9467  1716  3000               	movlw	0x0
  9468  1717  00A2               	movwf	(?___ftpack+2)
  9469  1718  2F80               	goto	l3286
  9470                           	
  9471  1719                     l6729:	
  9472  1719  2F80               	goto	l3286
  9473                           	
  9474  171A                     l3283:	
  9475                           	line	66
  9476  171A  2F28               	goto	l6733
  9477                           	
  9478  171B                     l3288:	
  9479                           	line	67
  9480                           	
  9481  171B                     l6731:	
  9482  171B  3001               	movlw	(01h)
  9483  171C  00F4               	movwf	(??___ftpack+0)+0
  9484  171D  0874               	movf	(??___ftpack+0)+0,w
  9485  171E  07A3               	addwf	(___ftpack@exp),f
  9486                           	line	68
  9487  171F  3001               	movlw	01h
  9488  1720                     u4395:
  9489  1720  1003               	clrc
  9490  1721  0CA2               	rrf	(___ftpack@arg+2),f
  9491  1722  0CA1               	rrf	(___ftpack@arg+1),f
  9492  1723  0CA0               	rrf	(___ftpack@arg),f
  9493  1724  3EFF               	addlw	-1
  9494  1725  1D03               	skipz
  9495  1726  2F20               	goto	u4395
  9496                           
  9497  1727  2F28               	goto	l6733
  9498                           	line	69
  9499                           	
  9500  1728                     l3287:	
  9501                           	line	66
  9502                           	
  9503  1728                     l6733:	
  9504  1728  30FE               	movlw	low highword(0FE0000h)
  9505  1729  0522               	andwf	(___ftpack@arg+2),w
  9506  172A  1D03               	btfss	status,2
  9507  172B  2F2D               	goto	u4401
  9508  172C  2F2E               	goto	u4400
  9509  172D                     u4401:
  9510  172D  2F1B               	goto	l6731
  9511  172E                     u4400:
  9512  172E  2F46               	goto	l3290
  9513                           	
  9514  172F                     l3289:	
  9515                           	line	70
  9516  172F  2F46               	goto	l3290
  9517                           	
  9518  1730                     l3291:	
  9519                           	line	71
  9520                           	
  9521  1730                     l6735:	
  9522  1730  3001               	movlw	(01h)
  9523  1731  00F4               	movwf	(??___ftpack+0)+0
  9524  1732  0874               	movf	(??___ftpack+0)+0,w
  9525  1733  07A3               	addwf	(___ftpack@exp),f
  9526                           	line	72
  9527                           	
  9528  1734                     l6737:	
  9529  1734  3001               	movlw	01h
  9530  1735  07A0               	addwf	(___ftpack@arg),f
  9531  1736  3000               	movlw	0
  9532  1737  1803               	skipnc
  9533  1738  3001               movlw 1
  9534  1739  07A1               	addwf	(___ftpack@arg+1),f
  9535  173A  3000               	movlw	0
  9536  173B  1803               	skipnc
  9537  173C  3001               movlw 1
  9538  173D  07A2               	addwf	(___ftpack@arg+2),f
  9539                           	line	73
  9540                           	
  9541  173E                     l6739:	
  9542  173E  3001               	movlw	01h
  9543  173F                     u4415:
  9544  173F  1003               	clrc
  9545  1740  0CA2               	rrf	(___ftpack@arg+2),f
  9546  1741  0CA1               	rrf	(___ftpack@arg+1),f
  9547  1742  0CA0               	rrf	(___ftpack@arg),f
  9548  1743  3EFF               	addlw	-1
  9549  1744  1D03               	skipz
  9550  1745  2F3F               	goto	u4415
  9551                           
  9552                           	line	74
  9553                           	
  9554  1746                     l3290:	
  9555                           	line	70
  9556  1746  30FF               	movlw	low highword(0FF0000h)
  9557  1747  0522               	andwf	(___ftpack@arg+2),w
  9558  1748  1D03               	btfss	status,2
  9559  1749  2F4B               	goto	u4421
  9560  174A  2F4C               	goto	u4420
  9561  174B                     u4421:
  9562  174B  2F30               	goto	l6735
  9563  174C                     u4420:
  9564  174C  2F59               	goto	l6743
  9565                           	
  9566  174D                     l3292:	
  9567                           	line	75
  9568  174D  2F59               	goto	l6743
  9569                           	
  9570  174E                     l3294:	
  9571                           	line	76
  9572                           	
  9573  174E                     l6741:	
  9574  174E  3001               	movlw	low(01h)
  9575  174F  02A3               	subwf	(___ftpack@exp),f
  9576                           	line	77
  9577  1750  3001               	movlw	01h
  9578  1751                     u4435:
  9579  1751  1003               	clrc
  9580  1752  0DA0               	rlf	(___ftpack@arg),f
  9581  1753  0DA1               	rlf	(___ftpack@arg+1),f
  9582  1754  0DA2               	rlf	(___ftpack@arg+2),f
  9583  1755  3EFF               	addlw	-1
  9584  1756  1D03               	skipz
  9585  1757  2F51               	goto	u4435
  9586  1758  2F59               	goto	l6743
  9587                           	line	78
  9588                           	
  9589  1759                     l3293:	
  9590                           	line	75
  9591                           	
  9592  1759                     l6743:	
  9593  1759  1FA1               	btfss	(___ftpack@arg+1),(15)&7
  9594  175A  2F5C               	goto	u4441
  9595  175B  2F5D               	goto	u4440
  9596  175C                     u4441:
  9597  175C  2F4E               	goto	l6741
  9598  175D                     u4440:
  9599                           	
  9600  175D                     l3295:	
  9601                           	line	79
  9602  175D  1823               	btfsc	(___ftpack@exp),(0)&7
  9603  175E  2F60               	goto	u4451
  9604  175F  2F61               	goto	u4450
  9605  1760                     u4451:
  9606  1760  2F67               	goto	l3296
  9607  1761                     u4450:
  9608                           	line	80
  9609                           	
  9610  1761                     l6745:	
  9611  1761  30FF               	movlw	0FFh
  9612  1762  05A0               	andwf	(___ftpack@arg),f
  9613  1763  307F               	movlw	07Fh
  9614  1764  05A1               	andwf	(___ftpack@arg+1),f
  9615  1765  30FF               	movlw	0FFh
  9616  1766  05A2               	andwf	(___ftpack@arg+2),f
  9617                           	
  9618  1767                     l3296:	
  9619                           	line	81
  9620  1767  1003               	clrc
  9621  1768  0CA3               	rrf	(___ftpack@exp),f
  9622                           
  9623                           	line	82
  9624                           	
  9625  1769                     l6747:	
  9626  1769  0823               	movf	(___ftpack@exp),w
  9627  176A  00F4               	movwf	((??___ftpack+0)+0)
  9628  176B  01F5               	clrf	((??___ftpack+0)+0+1)
  9629  176C  01F6               	clrf	((??___ftpack+0)+0+2)
  9630  176D  3010               	movlw	010h
  9631  176E                     u4465:
  9632  176E  1003               	clrc
  9633  176F  0DF4               	rlf	(??___ftpack+0)+0,f
  9634  1770  0DF5               	rlf	(??___ftpack+0)+1,f
  9635  1771  0DF6               	rlf	(??___ftpack+0)+2,f
  9636  1772                     u4460:
  9637  1772  3EFF               	addlw	-1
  9638  1773  1D03               	skipz
  9639  1774  2F6E               	goto	u4465
  9640  1775  0874               	movf	0+(??___ftpack+0)+0,w
  9641  1776  04A0               	iorwf	(___ftpack@arg),f
  9642  1777  0875               	movf	1+(??___ftpack+0)+0,w
  9643  1778  04A1               	iorwf	(___ftpack@arg+1),f
  9644  1779  0876               	movf	2+(??___ftpack+0)+0,w
  9645  177A  04A2               	iorwf	(___ftpack@arg+2),f
  9646                           	line	83
  9647                           	
  9648  177B                     l6749:	
  9649  177B  0824               	movf	(___ftpack@sign),w
  9650  177C  1D03               	skipz
  9651  177D  2F7F               	goto	u4470
  9652  177E  2F80               	goto	l3297
  9653  177F                     u4470:
  9654                           	line	84
  9655                           	
  9656  177F                     l6751:	
  9657  177F  17A2               	bsf	(___ftpack@arg)+(23/8),(23)&7
  9658                           	
  9659  1780                     l3297:	
  9660                           	line	85
  9661                           	line	86
  9662                           	
  9663  1780                     l3286:	
  9664  1780  0008               	return
  9665                           	opt stack 0
  9666                           GLOBAL	__end_of___ftpack
  9667  1781                     	__end_of___ftpack:
  9668 ;; =============== function ___ftpack ends ============
  9669                           
  9670                           	signat	___ftpack,12411
  9671                           	global	___lwmod
  9672                           psect	text1270,local,class=CODE,delta=2
  9673                           global __ptext1270
  9674  14BD                     __ptext1270:
  9675                           
  9676 ;; *************** function ___lwmod *****************
  9677 ;; Defined at:
  9678 ;;		line 5 in file "C:\Program Files (x86)\HI-TECH Software\PICC\9.83\sources\lwmod.c"
  9679 ;; Parameters:    Size  Location     Type
  9680 ;;  divisor         2    4[COMMON] unsigned int 
  9681 ;;  dividend        2    6[COMMON] unsigned int 
  9682 ;; Auto vars:     Size  Location     Type
  9683 ;;  counter         1    1[BANK0 ] unsigned char 
  9684 ;; Return value:  Size  Location     Type
  9685 ;;                  2    4[COMMON] unsigned int 
  9686 ;; Registers used:
  9687 ;;		wreg, status,2, status,0
  9688 ;; Tracked objects:
  9689 ;;		On entry : 0/0
  9690 ;;		On exit  : 0/0
  9691 ;;		Unchanged: 0/0
  9692 ;; Data sizes:     COMMON   BANK0   BANK1   BANK3   BANK2
  9693 ;;      Params:         4       0       0       0       0
  9694 ;;      Locals:         0       1       0       0       0
  9695 ;;      Temps:          0       1       0       0       0
  9696 ;;      Totals:         4       2       0       0       0
  9697 ;;Total ram usage:        6 bytes
  9698 ;; Hardware stack levels used:    1
  9699 ;; Hardware stack levels required when called:    1
  9700 ;; This function calls:
  9701 ;;		Nothing
  9702 ;; This function is called by:
  9703 ;;		_intToStr
  9704 ;; This function uses a non-reentrant model
  9705 ;;
  9706                           psect	text1270
  9707                           	file	"C:\Program Files (x86)\HI-TECH Software\PICC\9.83\sources\lwmod.c"
  9708                           	line	5
  9709                           	global	__size_of___lwmod
  9710  0046                     	__size_of___lwmod	equ	__end_of___lwmod-___lwmod
  9711                           	
  9712  14BD                     ___lwmod:	
  9713                           	opt	stack 4
  9714                           ; Regs used in ___lwmod: [wreg+status,2+status,0]
  9715                           	line	8
  9716                           	
  9717  14BD                     l6701:	
  9718  14BD  0875               	movf	(___lwmod@divisor+1),w
  9719  14BE  0474               	iorwf	(___lwmod@divisor),w
  9720  14BF  1903               	skipnz
  9721  14C0  2CC2               	goto	u4311
  9722  14C1  2CC3               	goto	u4310
  9723  14C2                     u4311:
  9724  14C2  2CFB               	goto	l6719
  9725  14C3                     u4310:
  9726                           	line	9
  9727                           	
  9728  14C3                     l6703:	
  9729  14C3  1283               	bcf	status, 5	;RP0=0, select bank0
  9730  14C4  1303               	bcf	status, 6	;RP1=0, select bank0
  9731  14C5  01A1               	clrf	(___lwmod@counter)
  9732  14C6  1403               	bsf	status,0
  9733  14C7  0DA1               	rlf	(___lwmod@counter),f
  9734                           	line	10
  9735  14C8  2CD5               	goto	l6709
  9736                           	
  9737  14C9                     l2893:	
  9738                           	line	11
  9739                           	
  9740  14C9                     l6705:	
  9741  14C9  3001               	movlw	01h
  9742                           	
  9743  14CA                     u4325:
  9744  14CA  1003               	clrc
  9745  14CB  0DF4               	rlf	(___lwmod@divisor),f
  9746  14CC  0DF5               	rlf	(___lwmod@divisor+1),f
  9747  14CD  3EFF               	addlw	-1
  9748  14CE  1D03               	skipz
  9749  14CF  2CCA               	goto	u4325
  9750                           	line	12
  9751                           	
  9752  14D0                     l6707:	
  9753  14D0  3001               	movlw	(01h)
  9754  14D1  00A0               	movwf	(??___lwmod+0)+0
  9755  14D2  0820               	movf	(??___lwmod+0)+0,w
  9756  14D3  07A1               	addwf	(___lwmod@counter),f
  9757  14D4  2CD5               	goto	l6709
  9758                           	line	13
  9759                           	
  9760  14D5                     l2892:	
  9761                           	line	10
  9762                           	
  9763  14D5                     l6709:	
  9764  14D5  1FF5               	btfss	(___lwmod@divisor+1),(15)&7
  9765  14D6  2CD8               	goto	u4331
  9766  14D7  2CD9               	goto	u4330
  9767  14D8                     u4331:
  9768  14D8  2CC9               	goto	l6705
  9769  14D9                     u4330:
  9770  14D9  2CDB               	goto	l6711
  9771                           	
  9772  14DA                     l2894:	
  9773  14DA  2CDB               	goto	l6711
  9774                           	line	14
  9775                           	
  9776  14DB                     l2895:	
  9777                           	line	15
  9778                           	
  9779  14DB                     l6711:	
  9780  14DB  0875               	movf	(___lwmod@divisor+1),w
  9781  14DC  0277               	subwf	(___lwmod@dividend+1),w
  9782  14DD  1D03               	skipz
  9783  14DE  2CE1               	goto	u4345
  9784  14DF  0874               	movf	(___lwmod@divisor),w
  9785  14E0  0276               	subwf	(___lwmod@dividend),w
  9786  14E1                     u4345:
  9787  14E1  1C03               	skipc
  9788  14E2  2CE4               	goto	u4341
  9789  14E3  2CE5               	goto	u4340
  9790  14E4                     u4341:
  9791  14E4  2CEC               	goto	l6715
  9792  14E5                     u4340:
  9793                           	line	16
  9794                           	
  9795  14E5                     l6713:	
  9796  14E5  0874               	movf	(___lwmod@divisor),w
  9797  14E6  02F6               	subwf	(___lwmod@dividend),f
  9798  14E7  0875               	movf	(___lwmod@divisor+1),w
  9799  14E8  1C03               	skipc
  9800  14E9  03F7               	decf	(___lwmod@dividend+1),f
  9801  14EA  02F7               	subwf	(___lwmod@dividend+1),f
  9802  14EB  2CEC               	goto	l6715
  9803                           	
  9804  14EC                     l2896:	
  9805                           	line	17
  9806                           	
  9807  14EC                     l6715:	
  9808  14EC  3001               	movlw	01h
  9809                           	
  9810  14ED                     u4355:
  9811  14ED  1003               	clrc
  9812  14EE  0CF5               	rrf	(___lwmod@divisor+1),f
  9813  14EF  0CF4               	rrf	(___lwmod@divisor),f
  9814  14F0  3EFF               	addlw	-1
  9815  14F1  1D03               	skipz
  9816  14F2  2CED               	goto	u4355
  9817                           	line	18
  9818                           	
  9819  14F3                     l6717:	
  9820  14F3  3001               	movlw	low(01h)
  9821  14F4  02A1               	subwf	(___lwmod@counter),f
  9822  14F5  1D03               	btfss	status,2
  9823  14F6  2CF8               	goto	u4361
  9824  14F7  2CF9               	goto	u4360
  9825  14F8                     u4361:
  9826  14F8  2CDB               	goto	l6711
  9827  14F9                     u4360:
  9828  14F9  2CFB               	goto	l6719
  9829                           	
  9830  14FA                     l2897:	
  9831  14FA  2CFB               	goto	l6719
  9832                           	line	19
  9833                           	
  9834  14FB                     l2891:	
  9835                           	line	20
  9836                           	
  9837  14FB                     l6719:	
  9838  14FB  0877               	movf	(___lwmod@dividend+1),w
  9839  14FC  01F5               	clrf	(?___lwmod+1)
  9840  14FD  07F5               	addwf	(?___lwmod+1)
  9841  14FE  0876               	movf	(___lwmod@dividend),w
  9842  14FF  01F4               	clrf	(?___lwmod)
  9843  1500  07F4               	addwf	(?___lwmod)
  9844                           
  9845  1501  2D02               	goto	l2898
  9846                           	
  9847  1502                     l6721:	
  9848                           	line	21
  9849                           	
  9850  1502                     l2898:	
  9851  1502  0008               	return
  9852                           	opt stack 0
  9853                           GLOBAL	__end_of___lwmod
  9854  1503                     	__end_of___lwmod:
  9855 ;; =============== function ___lwmod ends ============
  9856                           
  9857                           	signat	___lwmod,8314
  9858                           	global	___lwdiv
  9859                           psect	text1271,local,class=CODE,delta=2
  9860                           global __ptext1271
  9861  159C                     __ptext1271:
  9862                           
  9863 ;; *************** function ___lwdiv *****************
  9864 ;; Defined at:
  9865 ;;		line 5 in file "C:\Program Files (x86)\HI-TECH Software\PICC\9.83\sources\lwdiv.c"
  9866 ;; Parameters:    Size  Location     Type
  9867 ;;  divisor         2    4[COMMON] unsigned int 
  9868 ;;  dividend        2    6[COMMON] unsigned int 
  9869 ;; Auto vars:     Size  Location     Type
  9870 ;;  quotient        2    2[BANK0 ] unsigned int 
  9871 ;;  counter         1    1[BANK0 ] unsigned char 
  9872 ;; Return value:  Size  Location     Type
  9873 ;;                  2    4[COMMON] unsigned int 
  9874 ;; Registers used:
  9875 ;;		wreg, status,2, status,0
  9876 ;; Tracked objects:
  9877 ;;		On entry : 0/0
  9878 ;;		On exit  : 0/0
  9879 ;;		Unchanged: 0/0
  9880 ;; Data sizes:     COMMON   BANK0   BANK1   BANK3   BANK2
  9881 ;;      Params:         4       0       0       0       0
  9882 ;;      Locals:         0       3       0       0       0
  9883 ;;      Temps:          0       1       0       0       0
  9884 ;;      Totals:         4       4       0       0       0
  9885 ;;Total ram usage:        8 bytes
  9886 ;; Hardware stack levels used:    1
  9887 ;; Hardware stack levels required when called:    1
  9888 ;; This function calls:
  9889 ;;		Nothing
  9890 ;; This function is called by:
  9891 ;;		_intToStr
  9892 ;; This function uses a non-reentrant model
  9893 ;;
  9894                           psect	text1271
  9895                           	file	"C:\Program Files (x86)\HI-TECH Software\PICC\9.83\sources\lwdiv.c"
  9896                           	line	5
  9897                           	global	__size_of___lwdiv
  9898  0050                     	__size_of___lwdiv	equ	__end_of___lwdiv-___lwdiv
  9899                           	
  9900  159C                     ___lwdiv:	
  9901                           	opt	stack 4
  9902                           ; Regs used in ___lwdiv: [wreg+status,2+status,0]
  9903                           	line	9
  9904                           	
  9905  159C                     l6675:	
  9906  159C  1283               	bcf	status, 5	;RP0=0, select bank0
  9907  159D  1303               	bcf	status, 6	;RP1=0, select bank0
  9908  159E  01A2               	clrf	(___lwdiv@quotient)
  9909  159F  01A3               	clrf	(___lwdiv@quotient+1)
  9910                           	line	10
  9911                           	
  9912  15A0                     l6677:	
  9913  15A0  0875               	movf	(___lwdiv@divisor+1),w
  9914  15A1  0474               	iorwf	(___lwdiv@divisor),w
  9915  15A2  1903               	skipnz
  9916  15A3  2DA5               	goto	u4241
  9917  15A4  2DA6               	goto	u4240
  9918  15A5                     u4241:
  9919  15A5  2DE4               	goto	l6697
  9920  15A6                     u4240:
  9921                           	line	11
  9922                           	
  9923  15A6                     l6679:	
  9924  15A6  01A1               	clrf	(___lwdiv@counter)
  9925  15A7  1403               	bsf	status,0
  9926  15A8  0DA1               	rlf	(___lwdiv@counter),f
  9927                           	line	12
  9928  15A9  2DB6               	goto	l6685
  9929                           	
  9930  15AA                     l2883:	
  9931                           	line	13
  9932                           	
  9933  15AA                     l6681:	
  9934  15AA  3001               	movlw	01h
  9935                           	
  9936  15AB                     u4255:
  9937  15AB  1003               	clrc
  9938  15AC  0DF4               	rlf	(___lwdiv@divisor),f
  9939  15AD  0DF5               	rlf	(___lwdiv@divisor+1),f
  9940  15AE  3EFF               	addlw	-1
  9941  15AF  1D03               	skipz
  9942  15B0  2DAB               	goto	u4255
  9943                           	line	14
  9944                           	
  9945  15B1                     l6683:	
  9946  15B1  3001               	movlw	(01h)
  9947  15B2  00A0               	movwf	(??___lwdiv+0)+0
  9948  15B3  0820               	movf	(??___lwdiv+0)+0,w
  9949  15B4  07A1               	addwf	(___lwdiv@counter),f
  9950  15B5  2DB6               	goto	l6685
  9951                           	line	15
  9952                           	
  9953  15B6                     l2882:	
  9954                           	line	12
  9955                           	
  9956  15B6                     l6685:	
  9957  15B6  1FF5               	btfss	(___lwdiv@divisor+1),(15)&7
  9958  15B7  2DB9               	goto	u4261
  9959  15B8  2DBA               	goto	u4260
  9960  15B9                     u4261:
  9961  15B9  2DAA               	goto	l6681
  9962  15BA                     u4260:
  9963  15BA  2DBC               	goto	l6687
  9964                           	
  9965  15BB                     l2884:	
  9966  15BB  2DBC               	goto	l6687
  9967                           	line	16
  9968                           	
  9969  15BC                     l2885:	
  9970                           	line	17
  9971                           	
  9972  15BC                     l6687:	
  9973  15BC  3001               	movlw	01h
  9974                           	
  9975  15BD                     u4275:
  9976  15BD  1003               	clrc
  9977  15BE  0DA2               	rlf	(___lwdiv@quotient),f
  9978  15BF  0DA3               	rlf	(___lwdiv@quotient+1),f
  9979  15C0  3EFF               	addlw	-1
  9980  15C1  1D03               	skipz
  9981  15C2  2DBD               	goto	u4275
  9982                           	line	18
  9983  15C3  0875               	movf	(___lwdiv@divisor+1),w
  9984  15C4  0277               	subwf	(___lwdiv@dividend+1),w
  9985  15C5  1D03               	skipz
  9986  15C6  2DC9               	goto	u4285
  9987  15C7  0874               	movf	(___lwdiv@divisor),w
  9988  15C8  0276               	subwf	(___lwdiv@dividend),w
  9989  15C9                     u4285:
  9990  15C9  1C03               	skipc
  9991  15CA  2DCC               	goto	u4281
  9992  15CB  2DCD               	goto	u4280
  9993  15CC                     u4281:
  9994  15CC  2DD5               	goto	l6693
  9995  15CD                     u4280:
  9996                           	line	19
  9997                           	
  9998  15CD                     l6689:	
  9999  15CD  0874               	movf	(___lwdiv@divisor),w
 10000  15CE  02F6               	subwf	(___lwdiv@dividend),f
 10001  15CF  0875               	movf	(___lwdiv@divisor+1),w
 10002  15D0  1C03               	skipc
 10003  15D1  03F7               	decf	(___lwdiv@dividend+1),f
 10004  15D2  02F7               	subwf	(___lwdiv@dividend+1),f
 10005                           	line	20
 10006                           	
 10007  15D3                     l6691:	
 10008  15D3  1422               	bsf	(___lwdiv@quotient)+(0/8),(0)&7
 10009  15D4  2DD5               	goto	l6693
 10010                           	line	21
 10011                           	
 10012  15D5                     l2886:	
 10013                           	line	22
 10014                           	
 10015  15D5                     l6693:	
 10016  15D5  3001               	movlw	01h
 10017                           	
 10018  15D6                     u4295:
 10019  15D6  1003               	clrc
 10020  15D7  0CF5               	rrf	(___lwdiv@divisor+1),f
 10021  15D8  0CF4               	rrf	(___lwdiv@divisor),f
 10022  15D9  3EFF               	addlw	-1
 10023  15DA  1D03               	skipz
 10024  15DB  2DD6               	goto	u4295
 10025                           	line	23
 10026                           	
 10027  15DC                     l6695:	
 10028  15DC  3001               	movlw	low(01h)
 10029  15DD  02A1               	subwf	(___lwdiv@counter),f
 10030  15DE  1D03               	btfss	status,2
 10031  15DF  2DE1               	goto	u4301
 10032  15E0  2DE2               	goto	u4300
 10033  15E1                     u4301:
 10034  15E1  2DBC               	goto	l6687
 10035  15E2                     u4300:
 10036  15E2  2DE4               	goto	l6697
 10037                           	
 10038  15E3                     l2887:	
 10039  15E3  2DE4               	goto	l6697
 10040                           	line	24
 10041                           	
 10042  15E4                     l2881:	
 10043                           	line	25
 10044                           	
 10045  15E4                     l6697:	
 10046  15E4  0823               	movf	(___lwdiv@quotient+1),w
 10047  15E5  01F5               	clrf	(?___lwdiv+1)
 10048  15E6  07F5               	addwf	(?___lwdiv+1)
 10049  15E7  0822               	movf	(___lwdiv@quotient),w
 10050  15E8  01F4               	clrf	(?___lwdiv)
 10051  15E9  07F4               	addwf	(?___lwdiv)
 10052                           
 10053  15EA  2DEB               	goto	l2888
 10054                           	
 10055  15EB                     l6699:	
 10056                           	line	26
 10057                           	
 10058  15EB                     l2888:	
 10059  15EB  0008               	return
 10060                           	opt stack 0
 10061                           GLOBAL	__end_of___lwdiv
 10062  15EC                     	__end_of___lwdiv:
 10063 ;; =============== function ___lwdiv ends ============
 10064                           
 10065                           	signat	___lwdiv,8314
 10066                           	global	___bmul
 10067                           psect	text1272,local,class=CODE,delta=2
 10068                           global __ptext1272
 10069  1329                     __ptext1272:
 10070                           
 10071 ;; *************** function ___bmul *****************
 10072 ;; Defined at:
 10073 ;;		line 3 in file "C:\Program Files (x86)\HI-TECH Software\PICC\9.83\sources\bmul.c"
 10074 ;; Parameters:    Size  Location     Type
 10075 ;;  multiplier      1    wreg     unsigned char 
 10076 ;;  multiplicand    1    4[COMMON] unsigned char 
 10077 ;; Auto vars:     Size  Location     Type
 10078 ;;  multiplier      1    7[COMMON] unsigned char 
 10079 ;;  product         1    6[COMMON] unsigned char 
 10080 ;; Return value:  Size  Location     Type
 10081 ;;                  1    wreg      unsigned char 
 10082 ;; Registers used:
 10083 ;;		wreg, status,2, status,0
 10084 ;; Tracked objects:
 10085 ;;		On entry : 0/0
 10086 ;;		On exit  : 0/0
 10087 ;;		Unchanged: 0/0
 10088 ;; Data sizes:     COMMON   BANK0   BANK1   BANK3   BANK2
 10089 ;;      Params:         1       0       0       0       0
 10090 ;;      Locals:         2       0       0       0       0
 10091 ;;      Temps:          1       0       0       0       0
 10092 ;;      Totals:         4       0       0       0       0
 10093 ;;Total ram usage:        4 bytes
 10094 ;; Hardware stack levels used:    1
 10095 ;; Hardware stack levels required when called:    1
 10096 ;; This function calls:
 10097 ;;		Nothing
 10098 ;; This function is called by:
 10099 ;;		_eval_poly
 10100 ;; This function uses a non-reentrant model
 10101 ;;
 10102                           psect	text1272
 10103                           	file	"C:\Program Files (x86)\HI-TECH Software\PICC\9.83\sources\bmul.c"
 10104                           	line	3
 10105                           	global	__size_of___bmul
 10106  0018                     	__size_of___bmul	equ	__end_of___bmul-___bmul
 10107                           	
 10108  1329                     ___bmul:	
 10109                           	opt	stack 2
 10110                           ; Regs used in ___bmul: [wreg+status,2+status,0]
 10111                           ;___bmul@multiplier stored from wreg
 10112  1329  00F7               	movwf	(___bmul@multiplier)
 10113                           	line	4
 10114                           	
 10115  132A                     l5715:	
 10116  132A  01F6               	clrf	(___bmul@product)
 10117                           	line	6
 10118                           	
 10119  132B                     l2869:	
 10120                           	line	7
 10121  132B  1C77               	btfss	(___bmul@multiplier),(0)&7
 10122  132C  2B2E               	goto	u2841
 10123  132D  2B2F               	goto	u2840
 10124  132E                     u2841:
 10125  132E  2B34               	goto	l5719
 10126  132F                     u2840:
 10127                           	line	8
 10128                           	
 10129  132F                     l5717:	
 10130  132F  0874               	movf	(___bmul@multiplicand),w
 10131  1330  00F5               	movwf	(??___bmul+0)+0
 10132  1331  0875               	movf	(??___bmul+0)+0,w
 10133  1332  07F6               	addwf	(___bmul@product),f
 10134  1333  2B34               	goto	l5719
 10135                           	
 10136  1334                     l2870:	
 10137                           	line	9
 10138                           	
 10139  1334                     l5719:	
 10140  1334  1003               	clrc
 10141  1335  0DF4               	rlf	(___bmul@multiplicand),f
 10142                           
 10143                           	line	10
 10144                           	
 10145  1336                     l5721:	
 10146  1336  1003               	clrc
 10147  1337  0CF7               	rrf	(___bmul@multiplier),f
 10148                           
 10149                           	line	11
 10150                           	
 10151  1338                     l5723:	
 10152  1338  08F7               	movf	(___bmul@multiplier),f
 10153  1339  1D03               	skipz
 10154  133A  2B3C               	goto	u2851
 10155  133B  2B3D               	goto	u2850
 10156  133C                     u2851:
 10157  133C  2B2B               	goto	l2869
 10158  133D                     u2850:
 10159  133D  2B3E               	goto	l5725
 10160                           	
 10161  133E                     l2871:	
 10162                           	line	12
 10163                           	
 10164  133E                     l5725:	
 10165  133E  0876               	movf	(___bmul@product),w
 10166  133F  2B40               	goto	l2872
 10167                           	
 10168  1340                     l5727:	
 10169                           	line	13
 10170                           	
 10171  1340                     l2872:	
 10172  1340  0008               	return
 10173                           	opt stack 0
 10174                           GLOBAL	__end_of___bmul
 10175  1341                     	__end_of___bmul:
 10176 ;; =============== function ___bmul ends ============
 10177                           
 10178                           	signat	___bmul,8313
 10179                           	global	_reverse
 10180                           psect	text1273,local,class=CODE,delta=2
 10181                           global __ptext1273
 10182  15EC                     __ptext1273:
 10183                           
 10184 ;; *************** function _reverse *****************
 10185 ;; Defined at:
 10186 ;;		line 9 in file "C:\Users\USER\OneDrive\Desktop\Studying\Midterm\string.c"
 10187 ;; Parameters:    Size  Location     Type
 10188 ;;  str             1    wreg     PTR unsigned char 
 10189 ;;		 -> str(10), 
 10190 ;;  len             2    4[COMMON] int 
 10191 ;; Auto vars:     Size  Location     Type
 10192 ;;  str             1    9[BANK0 ] PTR unsigned char 
 10193 ;;		 -> str(10), 
 10194 ;;  j               2    7[BANK0 ] int 
 10195 ;;  i               2    5[BANK0 ] int 
 10196 ;;  temp            2    3[BANK0 ] int 
 10197 ;; Return value:  Size  Location     Type
 10198 ;;		None               void
 10199 ;; Registers used:
 10200 ;;		wreg, fsr0l, fsr0h, status,2, status,0
 10201 ;; Tracked objects:
 10202 ;;		On entry : 0/0
 10203 ;;		On exit  : 0/0
 10204 ;;		Unchanged: 0/0
 10205 ;; Data sizes:     COMMON   BANK0   BANK1   BANK3   BANK2
 10206 ;;      Params:         2       0       0       0       0
 10207 ;;      Locals:         0       7       0       0       0
 10208 ;;      Temps:          0       3       0       0       0
 10209 ;;      Totals:         2      10       0       0       0
 10210 ;;Total ram usage:       12 bytes
 10211 ;; Hardware stack levels used:    1
 10212 ;; Hardware stack levels required when called:    1
 10213 ;; This function calls:
 10214 ;;		Nothing
 10215 ;; This function is called by:
 10216 ;;		_intToStr
 10217 ;; This function uses a non-reentrant model
 10218 ;;
 10219                           psect	text1273
 10220                           	file	"C:\Users\USER\OneDrive\Desktop\Studying\Midterm\string.c"
 10221                           	line	9
 10222                           	global	__size_of_reverse
 10223  0051                     	__size_of_reverse	equ	__end_of_reverse-_reverse
 10224                           	
 10225  15EC                     _reverse:	
 10226                           	opt	stack 4
 10227                           ; Regs used in _reverse: [wreg-fsr0h+status,2+status,0]
 10228                           ;reverse@str stored from wreg
 10229  15EC  1283               	bcf	status, 5	;RP0=0, select bank0
 10230  15ED  1303               	bcf	status, 6	;RP1=0, select bank0
 10231  15EE  00A9               	movwf	(reverse@str)
 10232                           	line	10
 10233                           	
 10234  15EF                     l6663:	
 10235                           ;string.c: 10: int i=0, j=len-1, temp;
 10236  15EF  01A5               	clrf	(reverse@i)
 10237  15F0  01A6               	clrf	(reverse@i+1)
 10238                           	
 10239  15F1                     l6665:	
 10240  15F1  0874               	movf	(reverse@len),w
 10241  15F2  3EFF               	addlw	low(-1)
 10242  15F3  00A7               	movwf	(reverse@j)
 10243  15F4  0875               	movf	(reverse@len+1),w
 10244  15F5  1803               	skipnc
 10245  15F6  3E01               	addlw	1
 10246  15F7  3EFF               	addlw	high(-1)
 10247  15F8  00A8               	movwf	1+(reverse@j)
 10248                           	line	11
 10249                           ;string.c: 11: while (i<j)
 10250  15F9  2E2D               	goto	l6673
 10251                           	
 10252  15FA                     l2160:	
 10253                           	line	13
 10254                           	
 10255  15FA                     l6667:	
 10256                           ;string.c: 12: {
 10257                           ;string.c: 13: temp = str[i];
 10258  15FA  1283               	bcf	status, 5	;RP0=0, select bank0
 10259  15FB  1303               	bcf	status, 6	;RP1=0, select bank0
 10260  15FC  0825               	movf	(reverse@i),w
 10261  15FD  0729               	addwf	(reverse@str),w
 10262  15FE  00A0               	movwf	(??_reverse+0)+0
 10263  15FF  0820               	movf	0+(??_reverse+0)+0,w
 10264  1600  0084               	movwf	fsr0
 10265  1601  1783               	bsf	status, 7	;select IRP bank2
 10266  1602  0800               	movf	indf,w
 10267  1603  00A1               	movwf	(??_reverse+1)+0
 10268  1604  01A2               	clrf	(??_reverse+1)+0+1
 10269  1605  0821               	movf	0+(??_reverse+1)+0,w
 10270  1606  00A3               	movwf	(reverse@temp)
 10271  1607  0822               	movf	1+(??_reverse+1)+0,w
 10272  1608  00A4               	movwf	(reverse@temp+1)
 10273                           	line	14
 10274                           ;string.c: 14: str[i] = str[j];
 10275  1609  0827               	movf	(reverse@j),w
 10276  160A  0729               	addwf	(reverse@str),w
 10277  160B  00A0               	movwf	(??_reverse+0)+0
 10278  160C  0820               	movf	0+(??_reverse+0)+0,w
 10279  160D  0084               	movwf	fsr0
 10280  160E  0800               	movf	indf,w
 10281  160F  00A1               	movwf	(??_reverse+1)+0
 10282  1610  0825               	movf	(reverse@i),w
 10283  1611  0729               	addwf	(reverse@str),w
 10284  1612  00A2               	movwf	(??_reverse+2)+0
 10285  1613  0822               	movf	0+(??_reverse+2)+0,w
 10286  1614  0084               	movwf	fsr0
 10287  1615  0821               	movf	(??_reverse+1)+0,w
 10288  1616  0080               	movwf	indf
 10289                           	line	15
 10290                           ;string.c: 15: str[j] = temp;
 10291  1617  0823               	movf	(reverse@temp),w
 10292  1618  00A0               	movwf	(??_reverse+0)+0
 10293  1619  0827               	movf	(reverse@j),w
 10294  161A  0729               	addwf	(reverse@str),w
 10295  161B  00A1               	movwf	(??_reverse+1)+0
 10296  161C  0821               	movf	0+(??_reverse+1)+0,w
 10297  161D  0084               	movwf	fsr0
 10298  161E  0820               	movf	(??_reverse+0)+0,w
 10299  161F  0080               	movwf	indf
 10300                           	line	16
 10301                           	
 10302  1620                     l6669:	
 10303                           ;string.c: 16: i++; j--;
 10304  1620  3001               	movlw	low(01h)
 10305  1621  07A5               	addwf	(reverse@i),f
 10306  1622  1803               	skipnc
 10307  1623  0AA6               	incf	(reverse@i+1),f
 10308  1624  3000               	movlw	high(01h)
 10309  1625  07A6               	addwf	(reverse@i+1),f
 10310                           	
 10311  1626                     l6671:	
 10312  1626  30FF               	movlw	low(-1)
 10313  1627  07A7               	addwf	(reverse@j),f
 10314  1628  1803               	skipnc
 10315  1629  0AA8               	incf	(reverse@j+1),f
 10316  162A  30FF               	movlw	high(-1)
 10317  162B  07A8               	addwf	(reverse@j+1),f
 10318  162C  2E2D               	goto	l6673
 10319                           	line	17
 10320                           	
 10321  162D                     l2159:	
 10322                           	line	11
 10323                           	
 10324  162D                     l6673:	
 10325  162D  0826               	movf	(reverse@i+1),w
 10326  162E  3A80               	xorlw	80h
 10327  162F  00A0               	movwf	(??_reverse+0)+0
 10328  1630  0828               	movf	(reverse@j+1),w
 10329  1631  3A80               	xorlw	80h
 10330  1632  0220               	subwf	(??_reverse+0)+0,w
 10331  1633  1D03               	skipz
 10332  1634  2E37               	goto	u4235
 10333  1635  0827               	movf	(reverse@j),w
 10334  1636  0225               	subwf	(reverse@i),w
 10335  1637                     u4235:
 10336                           
 10337  1637  1C03               	skipc
 10338  1638  2E3A               	goto	u4231
 10339  1639  2E3B               	goto	u4230
 10340  163A                     u4231:
 10341  163A  2DFA               	goto	l6667
 10342  163B                     u4230:
 10343  163B  2E3C               	goto	l2162
 10344                           	
 10345  163C                     l2161:	
 10346                           	line	18
 10347                           	
 10348  163C                     l2162:	
 10349  163C  0008               	return
 10350                           	opt stack 0
 10351                           GLOBAL	__end_of_reverse
 10352  163D                     	__end_of_reverse:
 10353 ;; =============== function _reverse ends ============
 10354                           
 10355                           	signat	_reverse,8312
 10356                           	global	_lcd_write
 10357                           psect	text1274,local,class=CODE,delta=2
 10358                           global __ptext1274
 10359  13DA                     __ptext1274:
 10360                           
 10361 ;; *************** function _lcd_write *****************
 10362 ;; Defined at:
 10363 ;;		line 23 in file "C:\Users\USER\OneDrive\Desktop\Studying\Midterm\lcd.c"
 10364 ;; Parameters:    Size  Location     Type
 10365 ;;  c               1    wreg     unsigned char 
 10366 ;; Auto vars:     Size  Location     Type
 10367 ;;  c               1    6[COMMON] unsigned char 
 10368 ;;  _dcnt           1    5[COMMON] unsigned char 
 10369 ;; Return value:  Size  Location     Type
 10370 ;;		None               void
 10371 ;; Registers used:
 10372 ;;		wreg, status,2, status,0
 10373 ;; Tracked objects:
 10374 ;;		On entry : 0/0
 10375 ;;		On exit  : 0/0
 10376 ;;		Unchanged: 0/0
 10377 ;; Data sizes:     COMMON   BANK0   BANK1   BANK3   BANK2
 10378 ;;      Params:         0       0       0       0       0
 10379 ;;      Locals:         2       0       0       0       0
 10380 ;;      Temps:          1       0       0       0       0
 10381 ;;      Totals:         3       0       0       0       0
 10382 ;;Total ram usage:        3 bytes
 10383 ;; Hardware stack levels used:    1
 10384 ;; Hardware stack levels required when called:    1
 10385 ;; This function calls:
 10386 ;;		Nothing
 10387 ;; This function is called by:
 10388 ;;		_lcd_clear
 10389 ;;		_lcd_puts
 10390 ;;		_lcd_goto
 10391 ;;		_lcd_init
 10392 ;; This function uses a non-reentrant model
 10393 ;;
 10394                           psect	text1274
 10395                           	file	"C:\Users\USER\OneDrive\Desktop\Studying\Midterm\lcd.c"
 10396                           	line	23
 10397                           	global	__size_of_lcd_write
 10398  0025                     	__size_of_lcd_write	equ	__end_of_lcd_write-_lcd_write
 10399                           	
 10400  13DA                     _lcd_write:	
 10401                           	opt	stack 5
 10402                           ; Regs used in _lcd_write: [wreg+status,2+status,0]
 10403                           ;lcd_write@c stored from wreg
 10404  13DA  00F6               	movwf	(lcd_write@c)
 10405                           	line	24
 10406                           	
 10407  13DB                     l5689:	
 10408                           ;lcd.c: 24: PORTD = (PORTD & 0x0F) | (c);
 10409  13DB  1283               	bcf	status, 5	;RP0=0, select bank0
 10410  13DC  1303               	bcf	status, 6	;RP1=0, select bank0
 10411  13DD  0808               	movf	(8),w
 10412  13DE  390F               	andlw	0Fh
 10413  13DF  0476               	iorwf	(lcd_write@c),w
 10414  13E0  0088               	movwf	(8)	;volatile
 10415                           	line	25
 10416                           	
 10417  13E1                     l5691:	
 10418                           ;lcd.c: 25: ((RE1 = 1),(RE1=0));
 10419  13E1  1489               	bsf	(73/8),(73)&7
 10420                           	
 10421  13E2                     l5693:	
 10422  13E2  1089               	bcf	(73/8),(73)&7
 10423                           	line	26
 10424                           ;lcd.c: 26: PORTD = (PORTD & 0x0F) | (c << 4);
 10425  13E3  0876               	movf	(lcd_write@c),w
 10426  13E4  00F4               	movwf	(??_lcd_write+0)+0
 10427  13E5  3004               	movlw	04h
 10428  13E6                     u2815:
 10429  13E6  1003               	clrc
 10430  13E7  0DF4               	rlf	(??_lcd_write+0)+0,f
 10431  13E8  3EFF               	addlw	-1
 10432  13E9  1D03               	skipz
 10433  13EA  2BE6               	goto	u2815
 10434  13EB  0808               	movf	(8),w
 10435  13EC  390F               	andlw	0Fh
 10436  13ED  0474               	iorwf	0+(??_lcd_write+0)+0,w
 10437  13EE  0088               	movwf	(8)	;volatile
 10438                           	line	27
 10439                           	
 10440  13EF                     l5695:	
 10441                           ;lcd.c: 27: ((RE1 = 1),(RE1=0));
 10442  13EF  1489               	bsf	(73/8),(73)&7
 10443                           	
 10444  13F0                     l5697:	
 10445  13F0  1089               	bcf	(73/8),(73)&7
 10446                           	line	28
 10447                           	
 10448  13F1                     l5699:	
 10449                           ;lcd.c: 28: { unsigned char _dcnt; _dcnt = (40)/((12*1000L)/(4*1000L))|1; while(--_dcnt 
                                 != 0) continue; };
 10450  13F1  300D               	movlw	(0Dh)
 10451  13F2  00F4               	movwf	(??_lcd_write+0)+0
 10452  13F3  0874               	movf	(??_lcd_write+0)+0,w
 10453  13F4  00F5               	movwf	(lcd_write@_dcnt)
 10454  13F5  2BF7               	goto	l5701
 10455                           	
 10456  13F6                     l1443:	
 10457  13F6  2BF7               	goto	l5701
 10458                           	
 10459  13F7                     l1442:	
 10460                           	
 10461  13F7                     l5701:	
 10462  13F7  3001               	movlw	low(01h)
 10463  13F8  02F5               	subwf	(lcd_write@_dcnt),f
 10464  13F9  1D03               	btfss	status,2
 10465  13FA  2BFC               	goto	u2821
 10466  13FB  2BFD               	goto	u2820
 10467  13FC                     u2821:
 10468  13FC  2BF7               	goto	l5701
 10469  13FD                     u2820:
 10470  13FD  2BFE               	goto	l1445
 10471                           	
 10472  13FE                     l1444:	
 10473                           	line	29
 10474                           	
 10475  13FE                     l1445:	
 10476  13FE  0008               	return
 10477                           	opt stack 0
 10478                           GLOBAL	__end_of_lcd_write
 10479  13FF                     	__end_of_lcd_write:
 10480 ;; =============== function _lcd_write ends ============
 10481                           
 10482                           	signat	_lcd_write,4216
 10483                           	global	_DelayMs
 10484                           psect	text1275,local,class=CODE,delta=2
 10485                           global __ptext1275
 10486  1398                     __ptext1275:
 10487                           
 10488 ;; *************** function _DelayMs *****************
 10489 ;; Defined at:
 10490 ;;		line 11 in file "C:\Users\USER\OneDrive\Desktop\Studying\Midterm\delay.c"
 10491 ;; Parameters:    Size  Location     Type
 10492 ;;  cnt             1    wreg     unsigned char 
 10493 ;; Auto vars:     Size  Location     Type
 10494 ;;  cnt             1    5[COMMON] unsigned char 
 10495 ;;  _dcnt           1    7[COMMON] unsigned char 
 10496 ;;  i               1    6[COMMON] unsigned char 
 10497 ;; Return value:  Size  Location     Type
 10498 ;;		None               void
 10499 ;; Registers used:
 10500 ;;		wreg, status,2, status,0
 10501 ;; Tracked objects:
 10502 ;;		On entry : 0/0
 10503 ;;		On exit  : 0/0
 10504 ;;		Unchanged: 0/0
 10505 ;; Data sizes:     COMMON   BANK0   BANK1   BANK3   BANK2
 10506 ;;      Params:         0       0       0       0       0
 10507 ;;      Locals:         3       0       0       0       0
 10508 ;;      Temps:          1       0       0       0       0
 10509 ;;      Totals:         4       0       0       0       0
 10510 ;;Total ram usage:        4 bytes
 10511 ;; Hardware stack levels used:    1
 10512 ;; Hardware stack levels required when called:    1
 10513 ;; This function calls:
 10514 ;;		Nothing
 10515 ;; This function is called by:
 10516 ;;		_InitMain
 10517 ;;		_main
 10518 ;;		_read_a2d
 10519 ;;		_lcd_clear
 10520 ;;		_lcd_init
 10521 ;; This function uses a non-reentrant model
 10522 ;;
 10523                           psect	text1275
 10524                           	file	"C:\Users\USER\OneDrive\Desktop\Studying\Midterm\delay.c"
 10525                           	line	11
 10526                           	global	__size_of_DelayMs
 10527  0021                     	__size_of_DelayMs	equ	__end_of_DelayMs-_DelayMs
 10528                           	
 10529  1398                     _DelayMs:	
 10530                           	opt	stack 6
 10531                           ; Regs used in _DelayMs: [wreg+status,2+status,0]
 10532                           ;DelayMs@cnt stored from wreg
 10533  1398  00F5               	movwf	(DelayMs@cnt)
 10534                           	line	20
 10535                           ;delay.c: 19: unsigned char i;
 10536                           ;delay.c: 20: do {
 10537                           	
 10538  1399                     l748:	
 10539                           	line	21
 10540                           	
 10541  1399                     l5673:	
 10542                           ;delay.c: 21: i = 4;
 10543  1399  3004               	movlw	(04h)
 10544  139A  00F4               	movwf	(??_DelayMs+0)+0
 10545  139B  0874               	movf	(??_DelayMs+0)+0,w
 10546  139C  00F6               	movwf	(DelayMs@i)
 10547                           	line	22
 10548                           ;delay.c: 22: do {
 10549                           	
 10550  139D                     l749:	
 10551                           	line	23
 10552                           ;delay.c: 23: { unsigned char _dcnt; _dcnt = (250)/((12*1000L)/(4*1000L))|1; while(--_dc
                                 nt != 0) continue; };
 10553  139D  3053               	movlw	(053h)
 10554  139E  00F4               	movwf	(??_DelayMs+0)+0
 10555  139F  0874               	movf	(??_DelayMs+0)+0,w
 10556  13A0  00F7               	movwf	(DelayMs@_dcnt)
 10557  13A1  2BA3               	goto	l5675
 10558                           	
 10559  13A2                     l751:	
 10560  13A2  2BA3               	goto	l5675
 10561                           	
 10562  13A3                     l750:	
 10563                           	
 10564  13A3                     l5675:	
 10565  13A3  3001               	movlw	low(01h)
 10566  13A4  02F7               	subwf	(DelayMs@_dcnt),f
 10567  13A5  1D03               	btfss	status,2
 10568  13A6  2BA8               	goto	u2761
 10569  13A7  2BA9               	goto	u2760
 10570  13A8                     u2761:
 10571  13A8  2BA3               	goto	l5675
 10572  13A9                     u2760:
 10573  13A9  2BAA               	goto	l5677
 10574                           	
 10575  13AA                     l752:	
 10576                           	line	24
 10577                           	
 10578  13AA                     l5677:	
 10579                           ;delay.c: 24: } while(--i);
 10580  13AA  3001               	movlw	low(01h)
 10581  13AB  02F6               	subwf	(DelayMs@i),f
 10582  13AC  1D03               	btfss	status,2
 10583  13AD  2BAF               	goto	u2771
 10584  13AE  2BB0               	goto	u2770
 10585  13AF                     u2771:
 10586  13AF  2B9D               	goto	l749
 10587  13B0                     u2770:
 10588  13B0  2BB1               	goto	l5679
 10589                           	
 10590  13B1                     l753:	
 10591                           	line	25
 10592                           	
 10593  13B1                     l5679:	
 10594                           ;delay.c: 25: } while(--cnt);
 10595  13B1  3001               	movlw	low(01h)
 10596  13B2  02F5               	subwf	(DelayMs@cnt),f
 10597  13B3  1D03               	btfss	status,2
 10598  13B4  2BB6               	goto	u2781
 10599  13B5  2BB7               	goto	u2780
 10600  13B6                     u2781:
 10601  13B6  2B99               	goto	l748
 10602  13B7                     u2780:
 10603  13B7  2BB8               	goto	l755
 10604                           	
 10605  13B8                     l754:	
 10606                           	line	27
 10607                           	
 10608  13B8                     l755:	
 10609  13B8  0008               	return
 10610                           	opt stack 0
 10611                           GLOBAL	__end_of_DelayMs
 10612  13B9                     	__end_of_DelayMs:
 10613 ;; =============== function _DelayMs ends ============
 10614                           
 10615                           	signat	_DelayMs,4216
 10616                           	global	_init_a2d
 10617                           psect	text1276,local,class=CODE,delta=2
 10618                           global __ptext1276
 10619  12F3                     __ptext1276:
 10620                           
 10621 ;; *************** function _init_a2d *****************
 10622 ;; Defined at:
 10623 ;;		line 127 in file "C:\Users\USER\OneDrive\Desktop\Studying\Midterm\Code.c"
 10624 ;; Parameters:    Size  Location     Type
 10625 ;;		None
 10626 ;; Auto vars:     Size  Location     Type
 10627 ;;		None
 10628 ;; Return value:  Size  Location     Type
 10629 ;;		None               void
 10630 ;; Registers used:
 10631 ;;		wreg
 10632 ;; Tracked objects:
 10633 ;;		On entry : 0/0
 10634 ;;		On exit  : 0/0
 10635 ;;		Unchanged: 0/0
 10636 ;; Data sizes:     COMMON   BANK0   BANK1   BANK3   BANK2
 10637 ;;      Params:         0       0       0       0       0
 10638 ;;      Locals:         0       0       0       0       0
 10639 ;;      Temps:          0       0       0       0       0
 10640 ;;      Totals:         0       0       0       0       0
 10641 ;;Total ram usage:        0 bytes
 10642 ;; Hardware stack levels used:    1
 10643 ;; Hardware stack levels required when called:    1
 10644 ;; This function calls:
 10645 ;;		Nothing
 10646 ;; This function is called by:
 10647 ;;		_InitMain
 10648 ;; This function uses a non-reentrant model
 10649 ;;
 10650                           psect	text1276
 10651                           	file	"C:\Users\USER\OneDrive\Desktop\Studying\Midterm\Code.c"
 10652                           	line	127
 10653                           	global	__size_of_init_a2d
 10654  000C                     	__size_of_init_a2d	equ	__end_of_init_a2d-_init_a2d
 10655                           	
 10656  12F3                     _init_a2d:	
 10657                           	opt	stack 5
 10658                           ; Regs used in _init_a2d: [wreg]
 10659                           	line	128
 10660                           	
 10661  12F3                     l5669:	
 10662                           ;Code.c: 128: ADCON0 = 0x41;
 10663  12F3  3041               	movlw	(041h)
 10664  12F4  1283               	bcf	status, 5	;RP0=0, select bank0
 10665  12F5  1303               	bcf	status, 6	;RP1=0, select bank0
 10666  12F6  009F               	movwf	(31)	;volatile
 10667                           	line	129
 10668                           ;Code.c: 129: ADCON1 = 0x0E;
 10669  12F7  300E               	movlw	(0Eh)
 10670  12F8  1683               	bsf	status, 5	;RP0=1, select bank1
 10671  12F9  1303               	bcf	status, 6	;RP1=0, select bank1
 10672  12FA  009F               	movwf	(159)^080h	;volatile
 10673                           	line	130
 10674                           	
 10675  12FB                     l5671:	
 10676                           ;Code.c: 130: ADON=1;
 10677  12FB  1283               	bcf	status, 5	;RP0=0, select bank0
 10678  12FC  1303               	bcf	status, 6	;RP1=0, select bank0
 10679  12FD  141F               	bsf	(248/8),(248)&7
 10680                           	line	131
 10681                           	
 10682  12FE                     l735:	
 10683  12FE  0008               	return
 10684                           	opt stack 0
 10685                           GLOBAL	__end_of_init_a2d
 10686  12FF                     	__end_of_init_a2d:
 10687 ;; =============== function _init_a2d ends ============
 10688                           
 10689                           	signat	_init_a2d,88
 10690                           	global	_IntVector
 10691                           psect	text1277,local,class=CODE,delta=2
 10692                           global __ptext1277
 10693  1378                     __ptext1277:
 10694                           
 10695 ;; *************** function _IntVector *****************
 10696 ;; Defined at:
 10697 ;;		line 147 in file "C:\Users\USER\OneDrive\Desktop\Studying\Midterm\Code.c"
 10698 ;; Parameters:    Size  Location     Type
 10699 ;;		None
 10700 ;; Auto vars:     Size  Location     Type
 10701 ;;		None
 10702 ;; Return value:  Size  Location     Type
 10703 ;;		None               void
 10704 ;; Registers used:
 10705 ;;		wreg
 10706 ;; Tracked objects:
 10707 ;;		On entry : 0/0
 10708 ;;		On exit  : 0/0
 10709 ;;		Unchanged: 0/0
 10710 ;; Data sizes:     COMMON   BANK0   BANK1   BANK3   BANK2
 10711 ;;      Params:         0       0       0       0       0
 10712 ;;      Locals:         0       0       0       0       0
 10713 ;;      Temps:          4       0       0       0       0
 10714 ;;      Totals:         4       0       0       0       0
 10715 ;;Total ram usage:        4 bytes
 10716 ;; Hardware stack levels used:    1
 10717 ;; This function calls:
 10718 ;;		Nothing
 10719 ;; This function is called by:
 10720 ;;		Interrupt level 1
 10721 ;; This function uses a non-reentrant model
 10722 ;;
 10723                           psect	text1277
 10724                           	file	"C:\Users\USER\OneDrive\Desktop\Studying\Midterm\Code.c"
 10725                           	line	147
 10726                           	global	__size_of_IntVector
 10727  0020                     	__size_of_IntVector	equ	__end_of_IntVector-_IntVector
 10728                           	
 10729  1378                     _IntVector:	
 10730                           	opt	stack 1
 10731                           ; Regs used in _IntVector: [wreg]
 10732                           psect	intentry,class=CODE,delta=2
 10733                           global __pintentry
 10734  0004                     __pintentry:
 10735                           global interrupt_function
 10736  0004                     interrupt_function:
 10737                           	global saved_w
 10738  007E                     	saved_w	set	btemp+0
 10739  0004  00FE               	movwf	saved_w
 10740  0005  0E03               	swapf	status,w
 10741  0006  00F0               	movwf	(??_IntVector+0)
 10742  0007  0804               	movf	fsr0,w
 10743  0008  00F1               	movwf	(??_IntVector+1)
 10744  0009  080A               	movf	pclath,w
 10745  000A  00F2               	movwf	(??_IntVector+2)
 10746  000B  1283               	bcf	status, 5	;RP0=0, select bank0
 10747  000C  1303               	bcf	status, 6	;RP1=0, select bank0
 10748  000D  087F               	movf	btemp+1,w
 10749  000E  00F3               	movwf	(??_IntVector+3)
 10750  000F  160A  118A  2B78   	ljmp	_IntVector
 10751                           psect	text1277
 10752                           	line	148
 10753                           	
 10754  1378                     i1l5681:	
 10755                           ;Code.c: 148: if (T0IE && T0IF)
 10756  1378  1E8B               	btfss	(93/8),(93)&7
 10757  1379  2B7B               	goto	u279_21
 10758  137A  2B7C               	goto	u279_20
 10759  137B                     u279_21:
 10760  137B  2B8C               	goto	i1l745
 10761  137C                     u279_20:
 10762                           	
 10763  137C                     i1l5683:	
 10764  137C  1D0B               	btfss	(90/8),(90)&7
 10765  137D  2B7F               	goto	u280_21
 10766  137E  2B80               	goto	u280_20
 10767  137F                     u280_21:
 10768  137F  2B8C               	goto	i1l745
 10769  1380                     u280_20:
 10770                           	line	150
 10771                           	
 10772  1380                     i1l5685:	
 10773                           ;Code.c: 149: {
 10774                           ;Code.c: 150: T0IF = 0;
 10775  1380  110B               	bcf	(90/8),(90)&7
 10776                           	line	151
 10777                           	
 10778  1381                     i1l5687:	
 10779                           ;Code.c: 151: TMR0 =61;
 10780  1381  303D               	movlw	(03Dh)
 10781  1382  0081               	movwf	(1)	;volatile
 10782                           	line	154
 10783                           ;Code.c: 154: Counter++;
 10784  1383  3001               	movlw	low(01h)
 10785  1384  1683               	bsf	status, 5	;RP0=1, select bank1
 10786  1385  1303               	bcf	status, 6	;RP1=0, select bank1
 10787  1386  07E8               	addwf	(_Counter)^080h,f
 10788  1387  1803               	skipnc
 10789  1388  0AE9               	incf	(_Counter+1)^080h,f
 10790  1389  3000               	movlw	high(01h)
 10791  138A  07E9               	addwf	(_Counter+1)^080h,f
 10792  138B  2B8C               	goto	i1l745
 10793                           	line	157
 10794                           	
 10795  138C                     i1l744:	
 10796                           	line	158
 10797                           	
 10798  138C                     i1l745:	
 10799  138C  0873               	movf	(??_IntVector+3),w
 10800  138D  1283               	bcf	status, 5	;RP0=0, select bank0
 10801  138E  00FF               	movwf	btemp+1
 10802  138F  0872               	movf	(??_IntVector+2),w
 10803  1390  008A               	movwf	pclath
 10804  1391  0871               	movf	(??_IntVector+1),w
 10805  1392  0084               	movwf	fsr0
 10806  1393  0E70               	swapf	(??_IntVector+0)^0FFFFFF80h,w
 10807  1394  0083               	movwf	status
 10808  1395  0EFE               	swapf	saved_w,f
 10809  1396  0E7E               	swapf	saved_w,w
 10810  1397  0009               	retfie
 10811                           	opt stack 0
 10812                           GLOBAL	__end_of_IntVector
 10813  1398                     	__end_of_IntVector:
 10814 ;; =============== function _IntVector ends ============
 10815                           
 10816                           	signat	_IntVector,88
 10817                           psect	text1278,local,class=CODE,delta=2
 10818                           global __ptext1278
 10819  0000                     __ptext1278:
 10820                           	global	btemp
 10821  007E                     	btemp set 07Eh
 10822                           
 10823                           	DABS	1,126,2	;btemp
 10824                           	global	wtemp0
 10825  007E                     	wtemp0 set btemp


HI-TECH Software PICC Macro Assembler V9.83 build 10920 
Symbol Table                                                                                   Tue Oct 26 16:41:18 2021

         ___altoft@exp 0030                      pc 0002         ___bmul@product 0076          ___altoft@sign 0031  
                   _RD 0C60                     _WR 0C61                     _s1 00D9                     _s2 00DC  
                   _s3 00DF                     _s4 00E2                     fsr 0004           ___ftadd@exp1 0039  
         ___ftadd@exp2 0038           ___ftadd@sign 0037                    l720 0023                    l721 0280  
                  l730 03CB                    l722 03CA                    l731 03CC                    l723 0310  
                  l740 08AD                    l732 03CC                    l724 02F0                    l717 1486  
                  l741 08BC                    l725 030F                    l750 13A3                    l726 03C9  
                  l735 12FE                    l751 13A2                    l727 037C                    l752 13AA  
                  l728 03C8                    l753 13B1                    l729 03C7                    l754 13B8  
                  l738 08A8                    l755 13B8                    l739 08A8                    l748 1399  
                  l749 139D                    _GIE 005F                    _RE0 0048                    _RE1 0049  
                  _avg 00D6                    _exp 03CF                    _log 0C5F                    _pow 05DE  
                  fsr0 0004                    _str 0190                    indf 0000            lcd_goto@pos 0077  
         ___ftdiv@cntr 0044           ___ftdiv@sign 0049                   l3000 13D9                   l3011 143A  
                 l3012 1455                   l3103 1569                   l2160 15FA                   l3104 1578  
                 l3112 149C                   l2161 163C                   l3105 156A                   l3113 148E  
                 l1442 13F7                   l2162 163C                   l3042 16C2                   l2170 0920  
                 l3106 157F                   l3114 14A3                   l1443 13F6                   l3043 16EC  
                 l1451 141A                   l2171 093C                   l3107 159B                   l3115 14BC  
                 l1444 13FE                   l3044 1703                   l1452 1403                   l3300 17F1  
                 l1445 13FE                   l1453 1429                   l2165 08FC                   l3301 17A4  
                 l3221 0411                   l3038 1317                   l1470 1675                   l1454 1429  
                 l2166 08C2                   l3302 17F8                   l2174 0EB9                   l2159 162D  
                 l3039 1318                   l1471 167D                   l1463 130A                   l2167 0903  
                 l3303 17FF                   l3231 0598                   l3223 041A                   l2175 0EB9  
                 l1472 1695                   l1448 1328                   l2168 0915                   l3240 09DB  
                 l3224 044B                   l2169 0904                   l3225 049E                   l3217 03E0  
                 l1466 165C                   l3226 05DD                   l3218 05DD                   l1467 165B  
                 l3251 0C8E                   l3227 05AE                   l3219 041C                   l1468 1662  
                 l3236 097D                   l3252 0D79                   l3261 151A                   l1469 1676  
                 l3237 0973                   l3253 0CA3                   l3229 0592                   l3262 154E  
                 l3270 0A75                   l3238 09E4                   l3239 0987                   l3280 0AA6  
                 l3272 0A56                   l3265 09F6                   l3290 1746                   l3274 0A5F  
                 l3266 0AA8                   l3291 1730                   l3283 171A                   l3275 0A88  
                 l3267 0A23                   l3292 174D                   l3268 0AA7                   l3293 1759  
                 l3285 1712                   l3269 0A89                   l3277 0A7D                   l3294 174E  
                 l3286 1780                   l3295 175D                   l3287 1728                   l3279 0A86  
                 l3296 1767                   l3288 171B                   l3297 1780                   l3289 172F  
                 l2921 0EE9                   l7001 0B70                   l2922 0FFF                   l2931 0F42  
                 l2923 0F06                   l7011 0B9D                   l7003 0B71                   l2940 0F79  
                 l2932 0F43                   l2860 0758                   l2941 0F7A                   l2933 0F51  
                 l2925 0F05                   l7021 0BD4                   l7013 0BA4                   l7005 0B84  
                 l7101 0A07                   l2861 0628                   l2870 1334                   l2942 0F88  
                 l2934 0F44                   l2926 0F0F                   l2862 06D0                   l2871 133E  
                 l2943 0F7B                   l2935 0F58                   l2927 0F14                   l2919 0EF1  
                 l7031 0BFA                   l7023 0BDA                   l7015 0BA5                   l7007 0B8B  
                 l7111 0A23                   l7103 0A12                   l2863 06A1                   l2872 1340  
                 l2944 0F8F                   l2928 0F59                   l2936 0F90                   l2864 0758  
                 l2881 15E4                   l2945 0FA5                   l2937 0F90                   l2929 0F29  
                 l7041 0C1A                   l7033 0C02                   l7025 0BE0                   l7017 0BD2  
                 l7009 0B8C                   l7121 0A56                   l7113 0A30                   l7105 0A16  
                 l7201 09BE                   l2882 15B6                   l2946 0FBA                   l2938 0F60  
                 l2858 0619                   l2883 15AA                   l2891 14FB                   l2947 0FE3  
                 l2963 0AC4                   l7051 0C5E                   l7043 0C2B                   l7035 0C0A  
                 l7027 0BE5                   l7019 0BD3                   l7123 0A5F                   l7131 0A7D  
                 l7115 0A34                   l7107 0A21                   l7203 09DA                   l7211 17A4  
                 l2859 060F                   l2884 15BB                   l2892 14D5                   l2964 0B70  
                 l2980 0C2B                   l5701 13F7                   l2869 132B                   l2885 15BC  
                 l2893 14C9                   l2965 0ADD                   l2981 0C42                   l7045 0C33  
                 l7037 0C11                   l7029 0BE9                   l2973 0B8C                   l7053 13BA  
                 l7061 143A                   l7141 0AA8                   l7133 0A87                   l7125 0A73  
                 l7117 0A4C                   l7109 0A22                   l7205 09DB                   l7213 17F1  
                 l7221 0C80                   l7301 0618                   l2886 15D5                   l2894 14DA  
                 l2990 07E5                   l2966 0B23                   l2974 0C5E                   l2958 1377  
                 l2887 15E3                   l2895 14DB                   l2991 07D1                   l2967 0B45  
                 l7047 0C3B                   l7039 0C16                   l2975 0BA5                   l7055 13D9  
                 l7063 1455                   l7071 155A                   l7127 0A74                   l7119 0A4D  
                 l7135 0A89                   l7151 1461                   l7143 1456                   l7207 09E4  
                 l7215 17F8                   l7231 0CA3                   l7223 0C8D                   l7311 0647  
                 l7303 0619                   l2888 15EB                   l2896 14EC                   l2992 07DE  
                 l2984 0776                   l2968 0B54                   l2976 0BE5                   l5721 1336  
                 l2897 14FA                   l2993 07D2                   l2985 07FE                   l7049 0C42  
                 l2977 0BFA                   l7057 142A                   l7081 159B                   l7073 1565  
                 l7065 154F                   l7137 0A9B                   l7129 0A76                   l7161 1481  
                 l7153 1466                   l7145 1459                   l7217 17FF                   l7209 1781  
                 l7233 0CEE                   l7225 0C8E                   l7241 03CF                   l7313 0693  
                 l7321 06D0                   l7305 0620                   l7401 02F0                   l2898 1502  
                 l2994 07E4                   l2986 07C1                   l2978 0C11                   l5723 1338  
                 l5715 132A                   l2995 07F5                   l2987 07AD                   l5811 0775  
                 l2979 0C16                   l7059 1431                   l7075 156A                   l7067 1552  
                 l7091 14BC                   l7083 1487                   l7139 0AA7                   l7155 146B  
                 l7147 145D                   l7171 08AD                   l7163 0887                   l7235 0CF4  
                 l7227 0C97                   l7219 0C5F                   l7251 0408                   l7243 03D8  
                 l7323 06E5                   l7315 06A0                   l7307 0627                   l7331 0D7A  
                 l7411 0333                   l7403 02F9                   l2988 07AE                   ?_exp 00A5  
                 l5725 133E                   l5717 132F                   l6701 14BD                   l2989 07C0  
                 l5821 0796                   l5813 0776                   l7077 1578                   l7069 1556  
                 l7085 148E                   l7093 09E5                   l7157 1470                   l7149 145F  
                 l7173 08BC                   l7165 0891                   l7181 093D                   l7237 0D23  
                 l7229 0CA2                   l7261 044A                   l7253 0411                   l7245 03DF  
                 l7325 072B                   l7317 06A1                   l7309 0628                   l7341 0E4F  
                 l7333 0DDE                   l7421 039F                   l7413 0354                   l7405 02FF  
                 ?_log 00A0                   l5671 12FB                   l5727 1340                   l5719 1334  
                 l6711 14DB                   l6703 14C3                   l5831 07AE                   l5823 0798  
                 l5815 0788                   l5807 0759                   l7079 157F                   l7087 149C  
                 l7095 09EE                   l7159 147B                   l7167 0897                   l7175 1359  
                 l7191 0973                   l7183 094E                   l7239 0D79                   l7271 04CF  
                 l7263 044B                   l7255 041B                   l7247 03E0                   l7327 072F  
                 l7319 06A8                   l7343 0E88                   l7335 0E09                   l7423 03AA  
                 l7415 035F                   l7407 030A                   l7351 0023                   l5673 1399  
                 l6721 1502                   l6713 14E5                   l6705 14C9                   l5841 07DE  
                 l5825 079C                   l5833 07C1                   l5817 0789                   l5809 076C  
                 l6801 150A                   l7089 14A3                   l7097 09F5                   l7169 08A6  
                 l7177 135D                   l7193 097C                   l7185 0954                   l7281 058B  
                 l7273 04F9                   l7265 0472                   l7249 0403                   l7257 041C  
                 l7329 0757                   l7337 0E0F                   l7425 03B5                   l7417 036A  
                 l7409 0310                   l7361 00CD                   l7353 003B                   l7345 0015  
                 l5675 13A3                   l5691 13E1                   l6715 14EC                   l6707 14D0  
                 l6731 171B                   l6723 1704                   l5835 07C7                   l5843 07E5  
                 l5827 07A3                   l5819 078F                   l6811 153B                   l6803 1512  
                 l7099 09F6                   l7179 1377                   l7187 0969                   l7195 097D  
                 l7291 05DC                   l7283 0592                   l7275 053B                   l7267 0476  
                 l7259 043D                   l7339 0E19                   l7419 037C                   l7371 01B9  
                 l7363 00FE                   l7355 006C                   l7347 001A                   l5669 12F3  
                 l5677 13AA                   l5693 13E2                   l6717 14F3                   l6709 14D5  
                 l6741 174E                   l6733 1728                   l6725 170A                   l5845 07E9  
                 l5837 07D0                   l5829 07AC                   l5861 1314                   l6813 1548  
                 l6805 1519                   l6901 0EF0                   l7197 0986                   l7189 0972  
                 l7285 05A6                   l7277 0585                   l7269 049E                   l7293 05DE  
                 l7381 025D                   l7373 021C                   l7365 0116                   l7357 0084  
                 l7349 001E                   l5679 13B1                   l5695 13EF                   l6671 1626  
                 l6663 15EF                   l6719 14FB                   l6751 177F                   l6743 1759  
                 l6735 1730                   l6727 1712                   l5847 07F5                   l5839 07D2  
                 l5863 1317                   l6655 1700                   l6815 154C                   l6807 151A  
                 l6831 1646                   l6911 0F0A                   l6903 0EF1                   l7199 0987  
                 l7287 05AD                   l7279 058A                   l7295 05E1                   l7391 02C4  
                 l7383 0268                   l7375 022F                   l7367 0147                   l7359 00B5  
                 l5697 13F0                   l5689 13DB                   l6673 162D                   l6665 15F1  
                 l6681 15AA                   l6745 1761                   l6737 1734                   l6729 1719  
                 l5849 07FE                   l5865 1318                   l6657 1702                   l6761 1696  
                 l6817 154D                   l6809 152F                   l6841 1655                   l6833 164A  
                 l6921 0F29                   l6913 0F0E                   l6905 0EF5                   l7289 05AE  
                 l7297 05E8                   l7393 02CA                   l7385 0279                   l7377 0230  
                 l7369 0180                   l5699 13F1                   l6667 15FA                   l6691 15D3  
                 l6683 15B1                   l6675 159C                   l6747 1769                   l6739 173E  
                 l5859 130B                   l6771 16EE                   l6763 169C                   l6819 154E  
                 l6851 166F                   l6843 165C                   l6835 164B                   l6827 163D  
                 l6923 0F33                   l6931 0F59                   l6915 0F13                   l6907 0EFB  
                 l7299 060B                   l7395 02D5                   l7379 0252                   l7387 0280  
                 l6669 1620                   l6693 15D5                   l6685 15B6                   l6677 15A0  
                 l6749 177B                   l6773 16F0                   l6765 16C2                   l6853 1670  
                 l6845 1664                   l6837 164C                   l6829 1640                   l5965 1319  
                 l6861 1403                   l6941 0F88                   l6933 0F60                   l6925 0F39  
                 l6917 0F15                   l6909 0F06                   l7397 02DE                   l7389 02A3  
                 l6695 15DC                   l6687 15BC                   l6679 15A6                   l6775 16FE  
                 l6767 16C6                   l6855 1676                   l6847 166A                   l6839 1652  
                 l5967 131C                   l6863 1411                   l6871 08DE                   l6951 0FCB  
                 l6943 0F94                   l6935 0F6A                   l6927 0F44                   l6919 0F1B  
                 l7399 02E4                   l6689 15CD                   l6697 15E4                   l6777 1700  
                 l6769 16EC                   l6857 167D                   l6849 166E                   l6865 141A  
                 l5977 1300                   l6881 0915                   l6873 08E4                   l6953 0FCF  
                 l6945 0FA5                   l6937 0F70                   l6929 0F51                   l6961 0AA9  
                 l6699 15EB                   l6779 1703                   l6859 13FF                   l5979 1303  
                 l6883 0920                   l6875 08FC                   l6867 08BD                   l6955 0FDF  
                 l6947 0FA9                   l6939 0F7B                   l6891 0EBA                   l6971 0ADC  
                 l6963 0ABC                   _ADON 00F8                   l6885 092C                   l6877 0904  
                 l6869 08C2                   l6957 0FE3                   l6949 0FBA                   l6893 0ED4  
                 l6981 0B0C                   l6973 0ADD                   l6965 0AC3                   l6799 1503  
                 l6887 0935                   l6879 090E                   l6959 0FFF                   l6895 0ED8  
                 l6991 0B39                   l6983 0B10                   l6975 0AE3                   l6967 0AC4  
                 l6889 093C                   l6897 0EDE                   l6993 0B43                   l6985 0B17  
                 l6977 0AE8                   l6969 0AD5                   l6899 0EE9                   l6995 0B45  
                 l6987 0B23                   l6979 0AFA                   l6997 0B4D                   l6989 0B2B  
                 ?_pow 00AE                   l6999 0B54                   STR_1 0856                   STR_2 0849  
                 STR_3 0878                   STR_4 086E                   STR_5 0867                   STR_6 0862  
                 _T0IE 005D                   _T0IF 005A                   u3100 076C                   u3101 076B  
                 u3110 0781                   u3120 079C                   u3121 079B                   u3130 07A3  
                 u3210 1314                   u3131 07A2                   u3115 077D                   u3211 1313  
                 u3150 07BF                   u3151 07BE                   u3160 07C7                   u3161 07C6  
                 u3145 07AF                   u4300 15E2                   u3180 07E3                   u5020 0C10  
                 u4301 15E1                   u3181 07E2                   u5021 0C0F                   u5005 0BFB  
                 u4230 163B                   u4310 14C3                   u3190 07E9                   u5030 0C1A  
                 u5110 157E                   u4231 163A                   u4311 14C2                   u3175 07D4  
                 u5031 0C19                   u5015 0C03                   u5111 157D                   u4240 15A6  
                 u4400 172E                   u4241 15A5                   u4401 172D                   u5041 0C23  
                 u5105 156B                   u4330 14D9                   u5042 0C2A                   u5130 14A2  
                 u5210 08AC                   u4235 1637                   u4331 14D8                   u5131 14A1  
                 u5211 08AB                   u2820 13FD                   u4260 15BA                   u4340 14E5  
                 u4420 174C                   u5140 09EE                   u5220 0954                   u5300 0403  
                 u2821 13FC                   u4261 15B9                   u4341 14E4                   u4325 14CA  
                 u4421 174B                   u4501 16B4                   u5125 148F                   u5141 09ED  
                 u5205 089C                   u5221 0953                   u5301 0402                   u4510 16C6  
                 u4502 16B5                   u5070 0C41                   u5230 0969                   u5310 043D  
                 u2815 13E6                   u4255 15AB                   u4415 173F                   u4511 16C5  
                 u4503 16BA                   u5071 0C40                   u5055 0C2C                   u5231 0968  
                 u5311 043C                   u2760 13A9                   u2840 132F                   u4280 15CD  
                 u4360 14F9                   u4440 175D                   u4504 16BB                   u4600 0902  
                 u5080 1431                   u5160 0A16                   u5240 0986                   u5320 0476  
                 u5400 072F                   u2761 13A8                   u2841 132E                   u4281 15CC  
                 u4361 14F8                   u4345 14E1                   u4441 175C                   u4521 16DE  
                 u4601 0901                   u5065 0C34                   u5081 1430                   u5161 0A15  
                 u5241 0985                   u2770 13B0                   u2850 133D                   u4450 1761  
                 u4370 170A                   u4530 16FE                   u4522 16DF                   u4610 091F  
                 u5090 155A                   u5170 0A30                   u5250 09BE                   u5330 0589  
                 u5410 0E0F                   u2771 13AF                   u2851 133C                   u4275 15BD  
                 u4355 14ED                   u4451 1760                   u4435 1751                   u4531 16FD  
                 u4523 16E4                   u4611 091E                   u5091 1559                   u5171 0A2F  
                 u5155 09FC                   u5251 09BD                   u5411 0E0E                   u2780 13B7  
                 u4460 1772                   u4380 1711                   u4524 16E5                   u4700 0F28  
                 u4620 0ED8                   u5180 0A4B                   u5260 17F7                   u5340 05A6  
                 u5420 0252                   u2781 13B6                   u4285 15C9                   u4381 1710  
                 u4701 0F27                   u5181 0A4A                   u5261 17F6                   u5341 05A5  
                 u5421 0251                   u4470 177F                   u4550 150A                   u4630 0EDE  
                 u5270 0C80                   u5350 05E8                   u5430 02A3                   u4295 15D6  
                 u4535 16FA                   u4551 1509                   u4615 091B                   u4631 0EDD  
                 u5175 0A2C                   u5271 0C7F                   u5351 05E7                   u5431 02A2  
                 u4720 0F39                   u4640 0EE8                   u5280 0C97                   u5360 060B  
                 u5440 02C4                   u4465 176E                   u4721 0F38                   u4641 0EE7  
                 u5281 0C96                   u5345 05A2                   u5361 060A                   u5441 02C3  
                 u4490 169C                   u4570 1662                   u4810 0F8E                   u4730 0F41  
                 u4650 0EF5                   u5290 03D8                   u5370 0620                   u5450 02DE  
                 u4395 1720                   u4491 169B                   u4571 1661                   u4811 0F8D  
                 u4731 0F40                   u4715 0F2A                   u5195 0A91                   u5291 03D7  
                 u5371 061F                   u5451 02DD                   u4580 167C                   u4820 0F94  
                 u4660 0EFB                   u5380 0647                   u5460 02F9                   u4565 1522  
                 u4581 167B                   u4821 0F93                   u4805 0F7C                   u4661 0EFA  
                 u5381 0646                   u5461 02F8                   u4590 1428                   u4830 0FA9  
                 u4750 0F57                   u4670 0F05                   u4910 0B39                   u5390 0693  
                 u5470 0333                   u4591 1427                   u4831 0FA8                   u4751 0F56  
                 u4671 0F04                   u4911 0B38                   u5391 0692                   u5471 0332  
                 u4760 0F5F                   u4680 0F0E                   u5480 0354                   u4841 0FC4  
                 u4761 0F5E                   u4745 0F45                   u4681 0F0D                   u4905 0B24  
                 u5481 0353                   u4850 0FCF                   u4842 0FCB                   u4690 0F13  
                 u4930 0B53                   u5490 039F                   u4851 0FCE                   u4691 0F12  
                 u4931 0B52                   u4915 0B35                   u5395 068F                   u5491 039E  
                 u4780 0F70                   u4860 0ABC                   u4940 0B84                   u4781 0F6F  
                 u4925 0B46                   u4861 0ABB                   u4941 0B83                   u4790 0F78  
                 u4870 0AD5                   u4950 0B9D                   u4791 0F77                   u4775 0F61  
                 u4871 0AD4                   u4951 0B9C                   u4880 0AF3                   u4960 0BB5  
                 u4890 0B05                   u4970 0BC7                   u4980 0BE9                   u4885 0AEF  
                 u4981 0BE8                   u4965 0BB1                   u4895 0B01                   u4991 0BF2  
                 u4975 0BC3                   u4992 0BF9                   _TMR0 0001                   _WREN 0C62  
                 _main 0015                   _ftoa 0D7A           ___ftpack@arg 0020           ___ftpack@exp 0023  
                 btemp 007E                   exp@x 00A5                   log@x 00A0                   pow@x 00AE  
                 pow@y 00B1                   start 0012        __end_of_DelayMs 13B9      ___bmul@multiplier 0077  
         ___ftmul@cntr 0058        read_a2d@channel 0031           ___ftmul@sign 0059           ___fttol@exp1 0029  
                ??_exp 006F                  ??_log 006E           ___fttol@lval 0025                  ??_pow 00B4  
                ?_main 0070                  ?_ftoa 00BD                  _EEADR 010D        __end_of___ftadd 1000  
                _CARRY 0018        __end_of___ftdiv 0B71        __end_of___ftneg 1319        __end_of___ftmul 0C5F  
      __end_of___ftsub 1378        __end_of___fttol 07FF        __end_of___lwdiv 15EC        __end_of___lwmod 1503  
                i1l744 138C                  i1l745 138C                  _PORTD 0008                  _TRISA 0085  
                _TRISB 0086                  _TRISC 0087                  _TRISD 0088                  _TRISE 0089  
         ___lltoft@exp 0029                  _nRBPU 040F          ___awtoft@sign 0077                  _floor 093D  
                _ldexp 09E5                  _frexp 1503                  _errno 0078          lcd_init@_dcnt 0021  
        ___ftpack@sign 0024                  ftoa@i 00CA                  ftoa@n 00BD                  pclath 000A  
      __end_of_reverse 163D                  pow@yi 00B9                  status 0003                  wtemp0 007E  
          ldexp@newexp 005D           __end_of_main 03CF           __end_of_ftoa 0EBA       __end_of_InitMain 1487  
               ??_main 00CF          ___fttol@sign1 0024                 ??_ftoa 00C3                 _ADCON0 001F  
               _ADCON1 009F                 ?_floor 003A                 ?_ldexp 005A                 ?_frexp 0074  
     __end_of___altoft 159C                 _ADRESH 001E                 _EEDATA 010C                 _EECON1 018C  
               _EECON2 018D       __end_of___awtoft 1456       __end_of___ftpack 1781       __end_of___lbtoft 13DA  
     __end_of___lltoft 14BD                 i1l5681 1378                 i1l5683 137C                 i1l5685 1380  
               i1l5687 1381              ??_DelayMs 0074                 u280_20 1380                 u280_21 137F  
               u279_20 137C                 u279_21 137B     __size_of_IntVector 0020            intToStr@str 002C  
     __end_of_lcd_init 1696       __end_of_lcd_goto 130B                 ___bmul 1329       __end_of_lcd_puts 142A  
               ___ftge 1696              ??___ftadd 0033              ??___ftdiv 0040              ??___ftneg 0077  
            ??___ftmul 0050              ??___ftsub 0078              ??___fttol 0020              ??___lwdiv 0020  
            ??___lwmod 0020       __end_of_init_a2d 12FF       __end_of_intToStr 093D       __end_of_read_a2d 08BD  
               clrloop 12EC                 floor@i 003E                 floor@x 003A                 exp@exp 00AB  
___ftmul@f3_as_product 0055                 log@exp 00A3                 saved_w 007E              ??_reverse 0020  
           ___altoft@c 002A             ___ftadd@f1 002D             ___ftadd@f2 0030             ___ftge@ff1 0020  
           ___ftge@ff2 0023           eval_poly@res 006B             ___ftdiv@f1 003D             ___ftdiv@f2 003A  
           ___ftdiv@f3 0045             ___ftneg@f1 0025             ___awtoft@c 0028             ___lbtoft@c 0077  
  ___bmul@multiplicand 0074             ___ftmul@f1 004A             ___ftmul@f2 004D             ___ftsub@f1 003D  
           ___ftsub@f2 003A             ___fttol@f1 0074         __pcstackCOMMON 0070             ___lltoft@c 0025  
        __end_of_floor 09E5          __end_of_ldexp 0AA9          __end_of_frexp 154F      __end_of_IntVector 1398  
   __size_of_lcd_clear 0010                ??_floor 003D     __size_of_lcd_write 0025                ??_ldexp 005F  
              ??_frexp 0020             __pbssBANK1 00D6             __pbssBANK3 0190     __size_of_eval_poly 007F  
            ?_InitMain 0070             __pmaintext 0015                ?___bmul 0074                ?___ftge 0020  
           __pintentry 0004              ?___altoft 002A             __ptext1250 0884             __ptext1251 1456  
           __ptext1243 0D7A             __ptext1260 08BD             __ptext1252 09E5             __ptext1244 05DE  
           __ptext1261 12FF             __ptext1253 1487             __ptext1245 03CF             __ptext1270 14BD  
           __ptext1262 13FF             __ptext1254 154F             __ptext1246 0C5F             __ptext1271 159C  
           __ptext1263 1319             __ptext1255 142A             __ptext1247 1781             __ptext1272 1329  
           __ptext1264 163D             __ptext1256 13B9             __ptext1248 093D             __ptext1273 15EC  
           __ptext1265 1503             __ptext1257 0B71             __ptext1249 1359             __ptext1274 13DA  
           __ptext1266 1696             __ptext1258 0AA9             __ptext1275 1398             __ptext1267 130B  
           __ptext1259 0EBA             __ptext1276 12F3             __ptext1268 0759             __ptext1277 1378  
           __ptext1269 1704             __ptext1278 0000              ?___awtoft 0028              ?___ftpack 0020  
            ?___lbtoft 0025              ?___lltoft 0025             _ldexp$3587 0061              ?_lcd_init 0070  
            ?_lcd_goto 0070              ?_lcd_puts 0020                _DelayMs 1398             ??_InitMain 0078  
            ?_init_a2d 0070              ?_intToStr 002A              ?_read_a2d 002C                _Counter 00E8  
    __end_of_lcd_clear 1329        __size_of___bmul 0018        __size_of___ftge 006E                ___ftadd 0EBA  
              ___ftdiv 0AA9      __end_of_lcd_write 13FF                ___ftneg 130B                ___ftmul 0B71  
              ___ftsub 1359                ___fttol 0759                ___lwdiv 159C                ___lwmod 14BD  
           ??___altoft 002E             ??___awtoft 002B             ??___ftpack 0074             ??___lbtoft 0028  
    __end_of_eval_poly 1800             ??___lltoft 0077     lcd_init@_dcnt_2128 0022           __size_of_exp 020F  
         __size_of_log 011B           __size_of_pow 017B                _reverse 15EC             ??_lcd_init 0020  
           ??_lcd_goto 0077             ??_lcd_puts 0077   end_of_initialization 1355                ftoa@res 00C0  
              exp@sign 00AD             ??_init_a2d 0074             ??_intToStr 002F             ??_read_a2d 002F  
          reverse@temp 0023                pow@sign 00B8             _tempreture 00E5         lcd_write@_dcnt 0075  
          ___ftdiv@exp 0048             lcd_write@c 0076            ___ftmul@exp 0054         __end_of___bmul 1341  
       __end_of___ftge 1704           DelayMs@_dcnt 0077             floor@expon 0041    start_initialization 1341  
           eval_poly@d 0067             eval_poly@n 0068             eval_poly@x 0064             ldexp@value 005A  
            _IntVector 1378            __end_of_exp 05DE            __end_of_log 0D7A            __end_of_pow 0759  
           frexp@value 0074      __size_of_InitMain 0031               ??___bmul 0075               ??___ftge 0026  
    __size_of___altoft 004D      __size_of___awtoft 002C      __size_of___ftpack 007D      __size_of___lbtoft 0021  
    __size_of___lltoft 0036            __pbssCOMMON 0078          __pcstackBANK0 0020          __pcstackBANK1 00A0  
           ?_IntVector 0070               ?_DelayMs 0070      __size_of_lcd_init 0059      __size_of_lcd_goto 000C  
    __size_of_lcd_puts 002B      __size_of_init_a2d 000C      __size_of_intToStr 0080      __size_of_read_a2d 0039  
            _main$3827 00D0              _main$3828 00D3       ___lwdiv@dividend 0076               ?___ftadd 002D  
            _ftoa$3829 00C5               ?___ftdiv 003A               ?___ftneg 0025               ?___ftmul 004A  
             ?___ftsub 003A               ?___fttol 0074               ?___lwdiv 0074               ?___lwmod 0074  
            _lcd_clear 1319              __pstrings 0800              _lcd_write 13DA              _eval_poly 1781  
             ?_reverse 0074       ___lwdiv@quotient 0022         __size_of_floor 00A8         __size_of_ldexp 00C4  
       __size_of_frexp 004C      interrupt_function 0004               DelayMs@i 0076             reverse@len 0074  
           reverse@str 0029               _GO_nDONE 00FA             ?_lcd_clear 0070            __stringbase 080F  
           ?_lcd_write 0070             ?_eval_poly 0064              lcd_puts@s 0020            ??_IntVector 0070  
            ftoa@fpart 00CC              ftoa@ipart 00C8               _InitMain 1456       __size_of_DelayMs 0021  
            frexp@eptr 0077              intToStr@d 002D              intToStr@i 0031              intToStr@x 002A  
     __size_of___ftadd 0146       __size_of___ftdiv 00C8       __size_of___ftneg 000E               ___altoft 154F  
     __size_of___ftmul 00EE       __size_of___ftsub 001F       __size_of___fttol 00A6       __size_of___lwdiv 0050  
     __size_of___lwmod 0046               ___awtoft 142A               ___ftpack 1704               ___lbtoft 13B9  
             ___lltoft 1487               _exp$3541 00A8        ___lwdiv@divisor 0074        ___lwdiv@counter 0021  
     __size_of_reverse 0051               _lcd_init 163D               _lcd_goto 12FF               _lcd_puts 13FF  
             _pow$3830 00B5               _init_a2d 12F3               _intToStr 08BD               _read_a2d 0884  
        __size_of_main 03BA          __size_of_ftoa 0140               clear_ram 12EB            ??_lcd_clear 0078  
          ??_lcd_write 0074               exp@coeff 0810               log@coeff 082E             DelayMs@cnt 0075  
          ??_eval_poly 006A               intlevel1 0000       ___lwmod@dividend 0076              stringcode 080A  
             reverse@i 0025               reverse@j 0027         ftoa@afterpoint 00C1             _OPTION_REG 0081  
      ___lwmod@divisor 0074        ___lwmod@counter 0021               stringdir 080A               stringtab 0800  
