HI-TECH Software C Compiler 

Linker command line:

--edf=C:\Program Files (x86)\HI-TECH Software\PICC\9.83\dat\en_msgs.txt -cs \
  -h+lab3 serial.sym -z -Q16F877A -ol.obj -Mlab3 serial.map -E1 \
  -ACONST=00h-0FFhx32 -ACODE=00h-07FFhx4 -ASTRCODE=00h-01FFFh \
  -AENTRY=00h-0FFhx32 -ASTRING=00h-0FFhx32 -ABANK0=020h-06Fh \
  -ABANK1=0A0h-0EFh -ABANK2=0110h-016Fh -ABANK3=0190h-01EFh \
  -ARAM=020h-06Fh,0A0h-0EFh,0110h-016Fh,0190h-01EFh \
  -AABS1=020h-07Fh,0A0h-0EFh,0110h-016Fh,0190h-01EFh -ACOMMON=070h-07Fh \
  -ASFR0=00h-01Fh -ASFR1=080h-09Fh -ASFR2=0100h-010Fh -ASFR3=0180h-018Fh \
  -preset_vec=00h,intentry,init,end_init -ppowerup=CODE -pfunctab=CODE \
  -ACONFIG=02007h-02007h -pconfig=CONFIG -DCONFIG=2 -AIDLOC=02000h-02003h \
  -pidloc=IDLOC -DIDLOC=2 -AEEDATA=00h-0FFh/02100h -peeprom_data=EEDATA \
  -DEEDATA=2 -DCODE=2 -DSTRCODE=2 -DSTRING=2 -DCONST=2 -DENTRY=2 -k \
  startup.obj lab3 serial.obj 

Object code version is 3.10

Machine type is 16F877A



                Name                               Link     Load   Length Selector   Space Scale
startup.obj     end_init                              0        0        3        0       0
lab3 serial.obj config                             2007     2007        1     400E       0
                text826                            1744     1744       21     2E88       0
                text825                            1786     1786       25     2F0C       0
                text824                             936      936       4D     126C       0
                text823                            1698     1698        C     2D30       0
                text822                            16A4     16A4        C     2D48       0
                text821                            16C8     16C8        E     2D90       0
                text820                             869      869       18     10D2       0
                text819                             B71      B71       7B     16E2       0
                text818                             CF3      CF3       A4     19E6       0
                text817                             AFD      AFD       74     15FA       0
                text816                            16B0     16B0        C     2D60       0
                text815                             A91      A91       6C     1522       0
                text814                             A2B      A2B       66     1456       0
                text813                             8EC      8EC       4A     11D8       0
                text812                            16D6     16D6       10     2DAC       0
                text811                            17D5     17D5       2B     2FAA       0
                text810                            16BC     16BC        C     2D78       0
                text809                             9D0      9D0       5B     13A0       0
                text808                             C6B      C6B       88     18D6       0
                text807                            1724     1724       20     2E48       0
                text806                             406      406      146      80C       0
                text805                             D97      D97       C6     1B2E       0
                text804                              B3       B3       EE      166       0
                text803                            16E6     16E6       1F     2DCC       0
                text802                            17AB     17AB       2A     2F56       0
                text801                             983      983       4D     1306       0
                text800                             881      881       32     1102       0
                text799                             E5D      E5D       CA     1CBA       0
                text798                             8B3      8B3       39     1166       0
                text797                            1705     1705       1F     2E0A       0
                text796                               B        B       A8       16       0
                text795                             BEC      BEC       7F     17D8       0
                text794                             F27      F27       D9     1E4E       0
                text793                             694      694      16C      D28       0
                text792                             1A1      1A1      12B      342       0
                text791                             2CC      2CC      13A      598       0
                maintext                            54C      54C      148      A98       0
                cstackBANK0                          20       20       4F       20       1
                cstackCOMMON                         70       70        E       70       1
                cstackBANK1                          A0       A0       18       A0       1
                dataBANK1                            C7       C7        2       A0       1
                bssBANK1                             B8       B8        F       A0       1
                cinit                              1765     1765       21     2ECA       0
                strings                             800      800       67     1000       0
                idataBANK1                            9        9        2       12       0

TOTAL           Name                               Link     Load   Length     Space
        CLASS   CONST          

        CLASS   CODE           
                end_init                              0        0        3         0
                text826                            1744     1744       21         0
                text825                            1786     1786       25         0
                text824                             936      936       4D         0
                text823                            1698     1698        C         0
                text822                            16A4     16A4        C         0
                text821                            16C8     16C8        E         0
                text820                             869      869       18         0
                text819                             B71      B71       7B         0
                text818                             CF3      CF3       A4         0
                text817                             AFD      AFD       74         0
                text816                            16B0     16B0        C         0
                text815                             A91      A91       6C         0
                text814                             A2B      A2B       66         0
                text813                             8EC      8EC       4A         0
                text812                            16D6     16D6       10         0
                text811                            17D5     17D5       2B         0
                text810                            16BC     16BC        C         0
                text809                             9D0      9D0       5B         0
                text808                             C6B      C6B       88         0
                text807                            1724     1724       20         0
                text806                             406      406      146         0
                text805                             D97      D97       C6         0
                text804                              B3       B3       EE         0
                text803                            16E6     16E6       1F         0
                text802                            17AB     17AB       2A         0
                text801                             983      983       4D         0
                text800                             881      881       32         0
                text799                             E5D      E5D       CA         0
                text798                             8B3      8B3       39         0
                text797                            1705     1705       1F         0
                text796                               B        B       A8         0
                text795                             BEC      BEC       7F         0
                text794                             F27      F27       D9         0
                text793                             694      694      16C         0
                text792                             1A1      1A1      12B         0
                text791                             2CC      2CC      13A         0
                maintext                            54C      54C      148         0
                cinit                              1765     1765       21         0
                idataBANK1                            9        9        2         0

        CLASS   STRCODE        

        CLASS   ENTRY          

        CLASS   STRING         
                strings                             800      800       67         0

        CLASS   BANK0          
                cstackBANK0                          20       20       4F         1

        CLASS   BANK1          
                cstackBANK1                          A0       A0       18         1
                dataBANK1                            C7       C7        2         1
                bssBANK1                             B8       B8        F         1

        CLASS   BANK2          

        CLASS   BANK3          

        CLASS   RAM            

        CLASS   ABS1           
                abs_s1                               7E       7E        2         1

        CLASS   COMMON         
                cstackCOMMON                         70       70        E         1

        CLASS   SFR0           

        CLASS   SFR1           

        CLASS   SFR2           

        CLASS   SFR3           

        CLASS   CONFIG         
                config                             2007     2007        1         0

        CLASS   IDLOC          

        CLASS   EEDATA         



SEGMENTS        Name                           Load    Length   Top    Selector   Space  Class     Delta

                reset_vec                      000000  000003  000003         0       0  CODE        2
                idataBANK1                     000009  000002  00000B        12       0  CODE        2
                text796                        00000B  0000A8  0000B3        16       0  CODE        2
                cstackBANK0                    000020  00004F  00006F        20       1  BANK0       1
                cstackCOMMON                   000070  00000E  00007E        70       1  COMMON      1
                cstackBANK1                    0000A0  000029  0000C9        A0       1  BANK1       1
                text804                        0000B3  0000EE  0001A1       166       0  CODE        2
                text792                        0001A1  00012B  0002CC       342       0  CODE        2
                text791                        0002CC  00013A  000406       598       0  CODE        2
                text806                        000406  000146  00054C       80C       0  CODE        2
                maintext                       00054C  000148  000694       A98       0  CODE        2
                text793                        000694  00016C  000800       D28       0  CODE        2
                strings                        000800  000067  000867      1000       0  STRING      2
                text820                        000869  000018  000881      10D2       0  CODE        2
                text800                        000881  000032  0008B3      1102       0  CODE        2
                text798                        0008B3  000039  0008EC      1166       0  CODE        2
                text813                        0008EC  00004A  000936      11D8       0  CODE        2
                text824                        000936  00004D  000983      126C       0  CODE        2
                text801                        000983  00004D  0009D0      1306       0  CODE        2
                text809                        0009D0  00005B  000A2B      13A0       0  CODE        2
                text814                        000A2B  000066  000A91      1456       0  CODE        2
                text815                        000A91  00006C  000AFD      1522       0  CODE        2
                text817                        000AFD  000074  000B71      15FA       0  CODE        2
                text819                        000B71  00007B  000BEC      16E2       0  CODE        2
                text795                        000BEC  00007F  000C6B      17D8       0  CODE        2
                text808                        000C6B  000088  000CF3      18D6       0  CODE        2
                text818                        000CF3  0000A4  000D97      19E6       0  CODE        2
                text805                        000D97  0000C6  000E5D      1B2E       0  CODE        2
                text799                        000E5D  0000CA  000F27      1CBA       0  CODE        2
                text794                        000F27  0000D9  001000      1E4E       0  CODE        2
                text823                        001698  00000C  0016A4      2D30       0  CODE        2
                text822                        0016A4  00000C  0016B0      2D48       0  CODE        2
                text816                        0016B0  00000C  0016BC      2D60       0  CODE        2
                text810                        0016BC  00000C  0016C8      2D78       0  CODE        2
                text821                        0016C8  00000E  0016D6      2D90       0  CODE        2
                text812                        0016D6  000010  0016E6      2DAC       0  CODE        2
                text803                        0016E6  00001F  001705      2DCC       0  CODE        2
                text797                        001705  00001F  001724      2E0A       0  CODE        2
                text807                        001724  000020  001744      2E48       0  CODE        2
                text826                        001744  000021  001765      2E88       0  CODE        2
                cinit                          001765  000021  001786      2ECA       0  CODE        2
                text825                        001786  000025  0017AB      2F0C       0  CODE        2
                text802                        0017AB  00002A  0017D5      2F56       0  CODE        2
                text811                        0017D5  00002B  001800      2FAA       0  CODE        2
                config                         002007  000001  002008      400E       0  CONFIG      2


UNUSED ADDRESS RANGES

        Name                Unused          Largest block    Delta
        BANK0            006F-006F              1           1
        BANK1            00C9-00EF             27           1
        BANK2            0110-016F             60           1
        BANK3            0190-01EF             60           1
        CODE             0003-0008              6           2
                         0867-0868              2
                         1000-1697            698
                         1800-1FFF            800
        CONST            0003-0008              6           2
                         0867-0868              2
                         1000-1697            100
                         1800-1FFF            100
        EEDATA           2100-21FF            100           2
        ENTRY            0003-0008              6           2
                         0867-0868              2
                         1000-1697            100
                         1800-1FFF            100
        IDLOC            2000-2003              4           2
        RAM              006F-006F              1           1
                         00C9-00EF             27
                         0110-016F             60
                         0190-01EF             60
        SFR0             0000-001F             20           1
        SFR1             0080-009F             20           1
        SFR2             0100-010F             10           1
        SFR3             0180-018F             10           1
        STRCODE          0003-0008              6           2
                         0867-0868              2
                         1000-1697            698
                         1800-1FFF            800
        STRING           0003-0008              6           2
                         0867-0868              2
                         1000-1697            100
                         1800-1FFF            100

                                  Symbol Table

??_DelayMs              cstackCOMMON 0070
??_DelaySec             cstackCOMMON 0076
??___altoft             cstackBANK0  0024
??___awdiv              cstackCOMMON 0074
??___awmod              cstackCOMMON 0074
??___awtoft             cstackBANK0  0020
??___bmul               cstackCOMMON 0071
??___ftadd              cstackBANK0  0039
??___ftdiv              cstackBANK0  0020
??___ftge               cstackCOMMON 0076
??___ftmul              cstackBANK0  0029
??___ftneg              cstackCOMMON 007B
??___ftpack             cstackCOMMON 0075
??___ftsub              cstackCOMMON 007E
??___fttol              cstackCOMMON 0074
??___lbtoft             cstackBANK0  0020
??___lltoft             cstackCOMMON 007C
??_eval_poly            cstackBANK0  0050
??_exp                  cstackBANK0  005D
??_floor                cstackBANK0  0043
??_frexp                cstackCOMMON 0074
??_ftoa                 cstackBANK0  006B
??_getch                cstackCOMMON 0070
??_init_a2d             cstackCOMMON 0070
??_intToStr             cstackBANK0  0025
??_lcd_clear            cstackCOMMON 0074
??_lcd_goto             cstackCOMMON 0073
??_lcd_init             cstackCOMMON 0074
??_lcd_puts             cstackCOMMON 0075
??_lcd_write            cstackCOMMON 0070
??_ldexp                cstackBANK0  0045
??_log                  cstackBANK0  0057
??_main                 cstackBANK0  006D
??_pow                  cstackBANK0  006A
??_putchOnSerial        cstackCOMMON 0070
??_read_a2d             cstackCOMMON 007C
??_reverse              cstackCOMMON 0072
?_DelayMs               cstackCOMMON 0070
?_DelaySec              cstackCOMMON 0074
?___altoft              cstackBANK0  0020
?___awdiv               cstackCOMMON 0070
?___awmod               cstackCOMMON 0070
?___awtoft              cstackCOMMON 007B
?___bmul                cstackCOMMON 0070
?___ftadd               cstackBANK0  0033
?___ftdiv               cstackCOMMON 0078
?___ftge                cstackCOMMON 0070
?___ftmul               cstackBANK0  0023
?___ftneg               cstackCOMMON 0078
?___ftpack              cstackCOMMON 0070
?___ftsub               cstackBANK0  0040
?___fttol               cstackCOMMON 0070
?___lbtoft              cstackCOMMON 0078
?___lltoft              cstackCOMMON 0078
?_eval_poly             cstackBANK0  004A
?_exp                   cstackBANK0  005A
?_floor                 cstackBANK0  0040
?_frexp                 cstackCOMMON 0070
?_ftoa                  cstackBANK1  00A8
?_getch                 cstackCOMMON 0070
?_init_a2d              cstackCOMMON 0070
?_intToStr              cstackBANK0  0020
?_lcd_clear             cstackCOMMON 0070
?_lcd_goto              cstackCOMMON 0070
?_lcd_init              cstackCOMMON 0070
?_lcd_puts              cstackCOMMON 0073
?_lcd_write             cstackCOMMON 0070
?_ldexp                 cstackBANK0  0040
?_log                   cstackBANK0  0054
?_main                  cstackCOMMON 0070
?_pow                   cstackBANK0  0064
?_putchOnSerial         cstackCOMMON 0070
?_read_a2d              cstackBANK0  0024
?_reverse               cstackCOMMON 0070
DelayMs@_dcnt           cstackCOMMON 0073
DelayMs@cnt             cstackCOMMON 0071
DelayMs@i               cstackCOMMON 0072
DelaySec@i              cstackCOMMON 0077
DelaySec@sec            cstackCOMMON 0074
_ADCON0                 (abs)        001F
_ADCON1                 (abs)        009F
_ADON                   (abs)        00F8
_ADRESH                 (abs)        001E
_CARRY                  (abs)        0018
_DelayMs                text826      1744
_DelaySec               text807      1724
_EEADR                  (abs)        010D
_EECON1                 (abs)        018C
_EECON2                 (abs)        018D
_EEDATA                 (abs)        010C
_GIE                    (abs)        005F
_GO_nDONE               (abs)        00FA
_PORTD                  (abs)        0008
_RB1                    (abs)        0031
_RCIF                   (abs)        0065
_RCREG                  (abs)        001A
_RCSTA                  (abs)        0018
_RD                     (abs)        0C60
_RE0                    (abs)        0048
_RE1                    (abs)        0049
_SPBRG                  (abs)        0099
_TRISA                  (abs)        0085
_TRISB                  (abs)        0086
_TRISC6                 (abs)        043E
_TRISC7                 (abs)        043F
_TRISD                  (abs)        0088
_TRISE                  (abs)        0089
_TXIF                   (abs)        0064
_TXREG                  (abs)        0019
_TXSTA                  (abs)        0098
_WR                     (abs)        0C61
_WREN                   (abs)        0C62
__Habs1                 abs1         0000
__Hbank0                bank0        0000
__Hbank1                bank1        0000
__Hbank2                bank2        0000
__Hbank3                bank3        0000
__HbssBANK1             bssBANK1     0000
__Hcinit                cinit        0000
__Hclrtext              clrtext      0000
__Hcode                 code         0000
__Hcommon               common       0000
__Hconfig               config       2008
__HcstackBANK0          cstackBANK0  0000
__HcstackBANK1          cstackBANK1  0000
__HcstackCOMMON         cstackCOMMON 0000
__HdataBANK1            dataBANK1    0000
__Heeprom_data          eeprom_data  0000
__Hend_init             end_init     0003
__Hfunctab              functab      0000
__HidataBANK1           idataBANK1   0000
__Hidloc                idloc        0000
__Hinit                 init         0000
__Hintentry             intentry     0000
__Hmaintext             maintext     0000
__Hpowerup              powerup      0000
__Hram                  ram          0000
__Hreset_vec            reset_vec    0000
__Hsfr0                 sfr0         0000
__Hsfr1                 sfr1         0000
__Hsfr2                 sfr2         0000
__Hsfr3                 sfr3         0000
__Hstrings              strings      0000
__Htext                 text         0000
__Labs1                 abs1         0000
__Lbank0                bank0        0000
__Lbank1                bank1        0000
__Lbank2                bank2        0000
__Lbank3                bank3        0000
__LbssBANK1             bssBANK1     0000
__Lcinit                cinit        0000
__Lclrtext              clrtext      0000
__Lcode                 code         0000
__Lcommon               common       0000
__Lconfig               config       2007
__LcstackBANK0          cstackBANK0  0000
__LcstackBANK1          cstackBANK1  0000
__LcstackCOMMON         cstackCOMMON 0000
__LdataBANK1            dataBANK1    0000
__Leeprom_data          eeprom_data  0000
__Lend_init             end_init     0000
__Lfunctab              functab      0000
__LidataBANK1           idataBANK1   0000
__Lidloc                idloc        0000
__Linit                 init         0000
__Lintentry             intentry     0000
__Lmaintext             maintext     0000
__Lpowerup              powerup      0000
__Lram                  ram          0000
__Lreset_vec            reset_vec    0000
__Lsfr0                 sfr0         0000
__Lsfr1                 sfr1         0000
__Lsfr2                 sfr2         0000
__Lsfr3                 sfr3         0000
__Lstrings              strings      0000
__Ltext                 text         0000
__S0                    (abs)        2008
__S1                    (abs)        00C9
__S2                    (abs)        0000
___altoft               text801      0983
___altoft@c             cstackBANK0  0020
___altoft@exp           cstackBANK0  0026
___altoft@sign          cstackBANK0  0027
___awdiv                text817      0AFD
___awdiv@counter        cstackCOMMON 0075
___awdiv@dividend       cstackCOMMON 0072
___awdiv@divisor        cstackCOMMON 0070
___awdiv@quotient       cstackCOMMON 0077
___awdiv@sign           cstackCOMMON 0076
___awmod                text814      0A2B
___awmod@counter        cstackCOMMON 0075
___awmod@dividend       cstackCOMMON 0072
___awmod@divisor        cstackCOMMON 0070
___awmod@sign           cstackCOMMON 0076
___awtoft               text802      17AB
___awtoft@c             cstackCOMMON 007B
___awtoft@sign          cstackBANK0  0022
___bmul                 text820      0869
___bmul@multiplicand    cstackCOMMON 0070
___bmul@multiplier      cstackCOMMON 0073
___bmul@product         cstackCOMMON 0072
___ftadd                text806      0406
___ftadd@exp1           cstackBANK0  003F
___ftadd@exp2           cstackBANK0  003E
___ftadd@f1             cstackBANK0  0033
___ftadd@f2             cstackBANK0  0036
___ftadd@sign           cstackBANK0  003D
___ftdiv                text805      0D97
___ftdiv@cntr           cstackBANK0  0024
___ftdiv@exp            cstackBANK0  0028
___ftdiv@f1             cstackCOMMON 007B
___ftdiv@f2             cstackCOMMON 0078
___ftdiv@f3             cstackBANK0  0025
___ftdiv@sign           cstackBANK0  0029
___ftge                 text815      0A91
___ftge@ff1             cstackCOMMON 0070
___ftge@ff2             cstackCOMMON 0073
___ftmul                text804      00B3
___ftmul@cntr           cstackBANK0  0031
___ftmul@exp            cstackBANK0  002D
___ftmul@f1             cstackBANK0  0023
___ftmul@f2             cstackBANK0  0026
___ftmul@f3_as_product  cstackBANK0  002E
___ftmul@sign           cstackBANK0  0032
___ftneg                text816      16B0
___ftneg@f1             cstackCOMMON 0078
___ftpack               text819      0B71
___ftpack@arg           cstackCOMMON 0070
___ftpack@exp           cstackCOMMON 0073
___ftpack@sign          cstackCOMMON 0074
___ftsub                text797      1705
___ftsub@f1             cstackBANK0  0043
___ftsub@f2             cstackBANK0  0040
___fttol                text818      0CF3
___fttol@exp1           cstackCOMMON 007D
___fttol@f1             cstackCOMMON 0070
___fttol@lval           cstackCOMMON 0079
___fttol@sign1          cstackCOMMON 0078
___lbtoft               text803      16E6
___lbtoft@c             cstackCOMMON 007B
___lltoft               text800      0881
___lltoft@c             cstackCOMMON 0078
___lltoft@exp           cstackCOMMON 007D
__end_of_DelayMs        text826      1765
__end_of_DelaySec       text807      1744
__end_of___altoft       text801      09D0
__end_of___awdiv        text817      0B71
__end_of___awmod        text814      0A91
__end_of___awtoft       text802      17D5
__end_of___bmul         text820      0881
__end_of___ftadd        text806      054C
__end_of___ftdiv        text805      0E5D
__end_of___ftge         text815      0AFD
__end_of___ftmul        text804      01A1
__end_of___ftneg        text816      16BC
__end_of___ftpack       text819      0BEC
__end_of___ftsub        text797      1724
__end_of___fttol        text818      0D97
__end_of___lbtoft       text803      1705
__end_of___lltoft       text800      08B3
__end_of_eval_poly      text795      0C6B
__end_of_exp            text793      0800
__end_of_floor          text796      00B3
__end_of_frexp          text813      0936
__end_of_ftoa           text791      0406
__end_of_getch          text821      16D6
__end_of_init_a2d       text823      16A4
__end_of_intToStr       text808      0CF3
__end_of_lcd_clear      text812      16E6
__end_of_lcd_goto       text810      16C8
__end_of_lcd_init       text809      0A2B
__end_of_lcd_puts       text811      1800
__end_of_lcd_write      text825      17AB
__end_of_ldexp          text799      0F27
__end_of_log            text794      1000
__end_of_main           maintext     0694
__end_of_pow            text792      02CC
__end_of_putchOnSerial  text822      16B0
__end_of_read_a2d       text798      08EC
__end_of_reverse        text824      0983
__pbssBANK1             bssBANK1     00B8
__pcstackBANK0          cstackBANK0  0020
__pcstackBANK1          cstackBANK1  00A0
__pcstackCOMMON         cstackCOMMON 0070
__pdataBANK1            dataBANK1    00C7
__pidataBANK1           idataBANK1   0009
__pmaintext             maintext     054C
__pstrings              strings      0800
__ptext791              text791      02CC
__ptext792              text792      01A1
__ptext793              text793      0694
__ptext794              text794      0F27
__ptext795              text795      0BEC
__ptext796              text796      000B
__ptext797              text797      1705
__ptext798              text798      08B3
__ptext799              text799      0E5D
__ptext800              text800      0881
__ptext801              text801      0983
__ptext802              text802      17AB
__ptext803              text803      16E6
__ptext804              text804      00B3
__ptext805              text805      0D97
__ptext806              text806      0406
__ptext807              text807      1724
__ptext808              text808      0C6B
__ptext809              text809      09D0
__ptext810              text810      16BC
__ptext811              text811      17D5
__ptext812              text812      16D6
__ptext813              text813      08EC
__ptext814              text814      0A2B
__ptext815              text815      0A91
__ptext816              text816      16B0
__ptext817              text817      0AFD
__ptext818              text818      0CF3
__ptext819              text819      0B71
__ptext820              text820      0869
__ptext821              text821      16C8
__ptext822              text822      16A4
__ptext823              text823      1698
__ptext824              text824      0936
__ptext825              text825      1786
__ptext826              text826      1744
__ptext827              text827      0000
__size_of_DelayMs       (abs)        0000
__size_of_DelaySec      (abs)        0000
__size_of___altoft      (abs)        0000
__size_of___awdiv       (abs)        0000
__size_of___awmod       (abs)        0000
__size_of___awtoft      (abs)        0000
__size_of___bmul        (abs)        0000
__size_of___ftadd       (abs)        0000
__size_of___ftdiv       (abs)        0000
__size_of___ftge        (abs)        0000
__size_of___ftmul       (abs)        0000
__size_of___ftneg       (abs)        0000
__size_of___ftpack      (abs)        0000
__size_of___ftsub       (abs)        0000
__size_of___fttol       (abs)        0000
__size_of___lbtoft      (abs)        0000
__size_of___lltoft      (abs)        0000
__size_of_eval_poly     (abs)        0000
__size_of_exp           (abs)        0000
__size_of_floor         (abs)        0000
__size_of_frexp         (abs)        0000
__size_of_ftoa          (abs)        0000
__size_of_getch         (abs)        0000
__size_of_init_a2d      (abs)        0000
__size_of_intToStr      (abs)        0000
__size_of_lcd_clear     (abs)        0000
__size_of_lcd_goto      (abs)        0000
__size_of_lcd_init      (abs)        0000
__size_of_lcd_puts      (abs)        0000
__size_of_lcd_write     (abs)        0000
__size_of_ldexp         (abs)        0000
__size_of_log           (abs)        0000
__size_of_main          (abs)        0000
__size_of_pow           (abs)        0000
__size_of_putchOnSerial (abs)        0000
__size_of_read_a2d      (abs)        0000
__size_of_reverse       (abs)        0000
_errno                  bssBANK1     00BB
_eval_poly              text795      0BEC
_exit                   init         0000
_exp                    text793      0694
_exp$3527               cstackBANK0  005E
_floor                  text796      000B
_frexp                  text813      08EC
_ftoa                   text791      02CC
_ftoa$3812              cstackBANK1  00AE
_getch                  text821      16C8
_init_a2d               text823      1698
_intToStr               text808      0C6B
_lcd_clear              text812      16D6
_lcd_goto               text810      16BC
_lcd_init               text809      09D0
_lcd_puts               text811      17D5
_lcd_write              text825      1786
_ldexp                  text799      0E5D
_ldexp$3573             cstackBANK0  0047
_log                    text794      0F27
_main                   maintext     054C
_nRBPU                  (abs)        040F
_pow                    text792      01A1
_pow$3813               cstackBANK1  00A0
_putchOnSerial          text822      16A4
_read_a2d               text798      08B3
_reverse                text824      0936
_send                   dataBANK1    00C7
_str                    bssBANK1     00BD
_x                      bssBANK1     00B8
btemp                   (abs)        007E
end_of_initialization   cinit        1782
eval_poly@d             cstackBANK0  004D
eval_poly@n             cstackBANK0  004E
eval_poly@res           cstackBANK0  0051
eval_poly@x             cstackBANK0  004A
exp@coeff               strings      0810
exp@exp                 cstackBANK0  0061
exp@sign                cstackBANK0  0063
exp@x                   cstackBANK0  005A
floor@expon             cstackBANK0  0047
floor@i                 cstackBANK0  0044
floor@x                 cstackBANK0  0040
frexp@eptr              cstackCOMMON 0073
frexp@value             cstackCOMMON 0070
ftoa@afterpoint         cstackBANK1  00AC
ftoa@fpart              cstackBANK1  00B5
ftoa@i                  cstackBANK1  00B3
ftoa@ipart              cstackBANK1  00B1
ftoa@n                  cstackBANK1  00A8
ftoa@res                cstackBANK1  00AB
intToStr@d              cstackBANK0  0023
intToStr@i              cstackBANK0  0027
intToStr@str            cstackBANK0  0022
intToStr@x              cstackBANK0  0020
intlevel0               functab      0000
intlevel1               functab      0000
intlevel2               functab      0000
intlevel3               functab      0000
intlevel4               functab      0000
intlevel5               functab      0000
lcd_goto@pos            cstackCOMMON 0073
lcd_init@_dcnt          cstackCOMMON 0075
lcd_init@_dcnt_1244     cstackCOMMON 0076
lcd_puts@s              cstackCOMMON 0073
lcd_write@_dcnt         cstackCOMMON 0071
lcd_write@c             cstackCOMMON 0072
ldexp@newexp            cstackBANK0  0043
ldexp@value             cstackBANK0  0040
log@coeff               strings      082E
log@exp                 cstackBANK0  0058
log@x                   cstackBANK0  0054
main@rec                cstackBANK0  006E
pow@sign                cstackBANK1  00A3
pow@x                   cstackBANK0  0064
pow@y                   cstackBANK0  0067
pow@yi                  cstackBANK1  00A4
putchOnSerial@byte      cstackCOMMON 0070
read_a2d@channel        cstackBANK0  0027
reset_vec               reset_vec    0000
reverse@i               cstackCOMMON 0077
reverse@j               cstackCOMMON 0079
reverse@len             cstackCOMMON 0070
reverse@str             cstackCOMMON 007B
reverse@temp            cstackCOMMON 0075
start                   init         0000
start_initialization    cinit        1765
wtemp0                  (abs)        007E
