

HI-TECH Software PIC LITE Macro Assembler V9.83 build 10920 
                                                                                               Mon Apr 04 08:58:01 2022

HI-TECH Software Omniscient Code Generator (Lite mode) build 10920
     1  0000                     opt subtitle "HI-TECH Software Omniscient Code Generator (Lite mode) build 10920"
     2                           
     3                           opt pagewidth 120
     4                           
     5                           	opt lm
     6                           
     7                           	processor	16F877A
     8                           clrc	macro
     9                           	bcf	3,0
    10  0000                     	endm
    11                           clrz	macro
    12                           	bcf	3,2
    13  0000                     	endm
    14                           setc	macro
    15                           	bsf	3,0
    16  0000                     	endm
    17                           setz	macro
    18                           	bsf	3,2
    19  0000                     	endm
    20                           skipc	macro
    21                           	btfss	3,0
    22  0000                     	endm
    23                           skipz	macro
    24                           	btfss	3,2
    25  0000                     	endm
    26                           skipnc	macro
    27                           	btfsc	3,0
    28  0000                     	endm
    29                           skipnz	macro
    30                           	btfsc	3,2
    31  0000                     	endm
    32  0000                     indf	equ	0
    33  0000                     indf0	equ	0
    34  0002                     pc	equ	2
    35  0002                     pcl	equ	2
    36  0003                     status	equ	3
    37  0004                     fsr	equ	4
    38  0004                     fsr0	equ	4
    39  0001                     c	equ	1
    40  0000                     z	equ	0
    41  000A                     pclath	equ	10
    42                           # 13 "C:\Users\abdal\Desktop\University\Year 4\Second Semester\Real Time Lab\Experiments
                                  and Codes\exp3\ADC (motors and LCD)\ADC_EXMAPLE.c"
    43                           	psect config,class=CONFIG,delta=2 ;#
    44                           # 13 "C:\Users\abdal\Desktop\University\Year 4\Second Semester\Real Time Lab\Experiments
                                  and Codes\exp3\ADC (motors and LCD)\ADC_EXMAPLE.c"
    45  2007  FF7A               	dw 0xFFFF & 0xFFFB & 0xFF7F & 0xFFFE & 0xFFFF ;#
    46                           	FNCALL	_main,_DelaySec
    47                           	FNCALL	_main,_lcd_init
    48                           	FNCALL	_main,_lcd_clear
    49                           	FNCALL	_main,_lcd_puts
    50                           	FNCALL	_main,_DelayMs
    51                           	FNCALL	_main,_init_a2d
    52                           	FNCALL	_main,_lcd_goto
    53                           	FNCALL	_main,_read_a2d
    54                           	FNCALL	_main,___ftdiv
    55                           	FNCALL	_main,_ftoa
    56                           	FNCALL	_main,___ftge
    57                           	FNCALL	_ftoa,___fttol
    58                           	FNCALL	_ftoa,___awtoft
    59                           	FNCALL	_ftoa,___ftneg
    60                           	FNCALL	_ftoa,___ftadd
    61                           	FNCALL	_ftoa,_intToStr
    62                           	FNCALL	_ftoa,_pow
    63                           	FNCALL	_ftoa,___ftmul
    64                           	FNCALL	_pow,___ftge
    65                           	FNCALL	_pow,___fttol
    66                           	FNCALL	_pow,___lltoft
    67                           	FNCALL	_pow,___ftneg
    68                           	FNCALL	_pow,_log
    69                           	FNCALL	_pow,___ftmul
    70                           	FNCALL	_pow,_exp
    71                           	FNCALL	_exp,___ftge
    72                           	FNCALL	_exp,___ftneg
    73                           	FNCALL	_exp,___ftmul
    74                           	FNCALL	_exp,_floor
    75                           	FNCALL	_exp,___fttol
    76                           	FNCALL	_exp,___awtoft
    77                           	FNCALL	_exp,___ftsub
    78                           	FNCALL	_exp,_eval_poly
    79                           	FNCALL	_exp,_ldexp
    80                           	FNCALL	_exp,___ftdiv
    81                           	FNCALL	_log,___ftge
    82                           	FNCALL	_log,_frexp
    83                           	FNCALL	_log,___ftmul
    84                           	FNCALL	_log,___ftadd
    85                           	FNCALL	_log,_eval_poly
    86                           	FNCALL	_log,___awtoft
    87                           	FNCALL	_eval_poly,___bmul
    88                           	FNCALL	_eval_poly,___ftmul
    89                           	FNCALL	_eval_poly,___ftadd
    90                           	FNCALL	_floor,_frexp
    91                           	FNCALL	_floor,___ftge
    92                           	FNCALL	_floor,___fttol
    93                           	FNCALL	_floor,___altoft
    94                           	FNCALL	_floor,___ftadd
    95                           	FNCALL	___ftsub,___ftadd
    96                           	FNCALL	_read_a2d,_DelayMs
    97                           	FNCALL	_read_a2d,___lbtoft
    98                           	FNCALL	_ldexp,___ftge
    99                           	FNCALL	_ldexp,___ftneg
   100                           	FNCALL	___lltoft,___ftpack
   101                           	FNCALL	___altoft,___ftpack
   102                           	FNCALL	___awtoft,___ftpack
   103                           	FNCALL	___lbtoft,___ftpack
   104                           	FNCALL	___ftmul,___ftpack
   105                           	FNCALL	___ftdiv,___ftpack
   106                           	FNCALL	___ftadd,___ftpack
   107                           	FNCALL	_intToStr,___awmod
   108                           	FNCALL	_intToStr,___awdiv
   109                           	FNCALL	_intToStr,_reverse
   110                           	FNCALL	_lcd_goto,_lcd_write
   111                           	FNCALL	_lcd_puts,_lcd_write
   112                           	FNCALL	_lcd_clear,_lcd_write
   113                           	FNCALL	_lcd_clear,_DelayMs
   114                           	FNCALL	_lcd_init,_DelayMs
   115                           	FNCALL	_lcd_init,_lcd_write
   116                           	FNCALL	_DelaySec,_DelayMs
   117                           	FNROOT	_main
   118                           	global	exp@coeff
   119                           psect	strings,class=STRING,delta=2
   120                           global __pstrings
   121  0800                     __pstrings:
   122                           ;	global	stringdir,stringtab,__stringbase
   123  0800                     stringtab:
   124                           ;	String table - string pointers are 1 byte each
   125  0800  1BFF               	btfsc	(btemp+1),7
   126  0801  280A               	ljmp	stringcode
   127  0802  1383               	bcf	status,7
   128  0803  187F               	btfsc	(btemp+1),0
   129  0804  1783               	bsf	status,7
   130  0805  0800               	movf	indf,w
   131  0806  0A84               	incf fsr
   132  0807  1903               skipnz
   133  0808  0AFF               incf btemp+1
   134  0809  0008               	return
   135  080A                     stringcode:stringdir:
      + 080A                     stringdir:	
   136  080A  3008               movlw high(stringdir)
   137  080B  008A               movwf pclath
   138  080C  0804               movf fsr,w
   139  080D  0A84               incf fsr
   140  080E  0782               	addwf pc
   141  080F                     __stringbase:
   142  080F  3400               	retlw	0
   143                           psect	strings
   144                           	file	"C:\Program Files (x86)\HI-TECH Software\PICC\9.83\sources\exp.c"
   145                           	line	17
   146  0810                     exp@coeff:
   147  0810  3400               	retlw	0x0
   148  0811  3480               	retlw	0x80
   149  0812  343F               	retlw	0x3f
   150                           
   151  0813  3472               	retlw	0x72
   152  0814  3431               	retlw	0x31
   153  0815  343F               	retlw	0x3f
   154                           
   155  0816  34FE               	retlw	0xfe
   156  0817  3475               	retlw	0x75
   157  0818  343E               	retlw	0x3e
   158                           
   159  0819  3458               	retlw	0x58
   160  081A  3463               	retlw	0x63
   161  081B  343D               	retlw	0x3d
   162                           
   163  081C  3495               	retlw	0x95
   164  081D  341D               	retlw	0x1d
   165  081E  343C               	retlw	0x3c
   166                           
   167  081F  34C5               	retlw	0xc5
   168  0820  34AE               	retlw	0xae
   169  0821  343A               	retlw	0x3a
   170                           
   171  0822  3479               	retlw	0x79
   172  0823  3421               	retlw	0x21
   173  0824  3439               	retlw	0x39
   174                           
   175  0825  3494               	retlw	0x94
   176  0826  3480               	retlw	0x80
   177  0827  3437               	retlw	0x37
   178                           
   179  0828  3493               	retlw	0x93
   180  0829  34A7               	retlw	0xa7
   181  082A  3435               	retlw	0x35
   182                           
   183  082B  3456               	retlw	0x56
   184  082C  3415               	retlw	0x15
   185  082D  3434               	retlw	0x34
   186                           
   187                           	global	log@coeff
   188                           psect	strings
   189                           	file	"C:\Program Files (x86)\HI-TECH Software\PICC\9.83\sources\log.c"
   190                           	line	9
   191  082E                     log@coeff:
   192  082E  3400               	retlw	0x0
   193  082F  3400               	retlw	0x0
   194  0830  3400               	retlw	0x0
   195                           
   196  0831  3400               	retlw	0x0
   197  0832  3480               	retlw	0x80
   198  0833  343F               	retlw	0x3f
   199                           
   200  0834  34F0               	retlw	0xf0
   201  0835  34FF               	retlw	0xff
   202  0836  34BE               	retlw	0xbe
   203                           
   204  0837  34E2               	retlw	0xe2
   205  0838  34A9               	retlw	0xa9
   206  0839  343E               	retlw	0x3e
   207                           
   208  083A  3483               	retlw	0x83
   209  083B  3476               	retlw	0x76
   210  083C  34BE               	retlw	0xbe
   211                           
   212  083D  34AE               	retlw	0xae
   213  083E  342B               	retlw	0x2b
   214  083F  343E               	retlw	0x3e
   215                           
   216  0840  343C               	retlw	0x3c
   217  0841  34C3               	retlw	0xc3
   218  0842  34BD               	retlw	0xbd
   219                           
   220  0843  34D2               	retlw	0xd2
   221  0844  3413               	retlw	0x13
   222  0845  343D               	retlw	0x3d
   223                           
   224  0846  3478               	retlw	0x78
   225  0847  34D3               	retlw	0xd3
   226  0848  34BB               	retlw	0xbb
   227                           
   228                           	global	exp@coeff
   229                           	global	log@coeff
   230                           	global	_errno
   231                           	global	_x
   232                           	global	_str
   233                           	global	_ADCON0
   234  001F                     _ADCON0	set	31
   235                           	global	_ADRESH
   236  001E                     _ADRESH	set	30
   237                           	global	_PORTD
   238  0008                     _PORTD	set	8
   239                           	global	_ADON
   240  00F8                     _ADON	set	248
   241                           	global	_CARRY
   242  0018                     _CARRY	set	24
   243                           	global	_GIE
   244  005F                     _GIE	set	95
   245                           	global	_GO_nDONE
   246  00FA                     _GO_nDONE	set	250
   247                           	global	_RB1
   248  0031                     _RB1	set	49
   249                           	global	_RE0
   250  0048                     _RE0	set	72
   251                           	global	_RE1
   252  0049                     _RE1	set	73
   253                           	global	_ADCON1
   254  009F                     _ADCON1	set	159
   255                           	global	_TRISA
   256  0085                     _TRISA	set	133
   257                           	global	_TRISB
   258  0086                     _TRISB	set	134
   259                           	global	_TRISD
   260  0088                     _TRISD	set	136
   261                           	global	_TRISE
   262  0089                     _TRISE	set	137
   263                           	global	_TRISC6
   264  043E                     _TRISC6	set	1086
   265                           	global	_TRISC7
   266  043F                     _TRISC7	set	1087
   267                           	global	_nRBPU
   268  040F                     _nRBPU	set	1039
   269                           	global	_EEADR
   270  010D                     _EEADR	set	269
   271                           	global	_EEDATA
   272  010C                     _EEDATA	set	268
   273                           	global	_EECON1
   274  018C                     _EECON1	set	396
   275                           	global	_EECON2
   276  018D                     _EECON2	set	397
   277                           	global	_RD
   278  0C60                     _RD	set	3168
   279                           	global	_WR
   280  0C61                     _WR	set	3169
   281                           	global	_WREN
   282  0C62                     _WREN	set	3170
   283                           	
   284  0849                     STR_3:	
   285  0849  346C               	retlw	108	;'l'
   286  084A  3465               	retlw	101	;'e'
   287  084B  3473               	retlw	115	;'s'
   288  084C  3473               	retlw	115	;'s'
   289  084D  3420               	retlw	32	;' '
   290  084E  3474               	retlw	116	;'t'
   291  084F  3468               	retlw	104	;'h'
   292  0850  3461               	retlw	97	;'a'
   293  0851  346E               	retlw	110	;'n'
   294  0852  3420               	retlw	32	;' '
   295  0853  3432               	retlw	50	;'2'
   296  0854  342E               	retlw	46	;'.'
   297  0855  3430               	retlw	48	;'0'
   298  0856  3400               	retlw	0
   299                           psect	strings
   300                           	
   301  0857                     STR_1:	
   302  0857  3453               	retlw	83	;'S'
   303  0858  3474               	retlw	116	;'t'
   304  0859  3461               	retlw	97	;'a'
   305  085A  3472               	retlw	114	;'r'
   306  085B  3474               	retlw	116	;'t'
   307  085C  3469               	retlw	105	;'i'
   308  085D  346E               	retlw	110	;'n'
   309  085E  3467               	retlw	103	;'g'
   310  085F  342E               	retlw	46	;'.'
   311  0860  342E               	retlw	46	;'.'
   312  0861  342E               	retlw	46	;'.'
   313  0862  3400               	retlw	0
   314                           psect	strings
   315                           	
   316  0863                     STR_2:	
   317  0863  3462               	retlw	98	;'b'
   318  0864  3469               	retlw	105	;'i'
   319  0865  3467               	retlw	103	;'g'
   320  0866  3467               	retlw	103	;'g'
   321  0867  3465               	retlw	101	;'e'
   322  0868  3472               	retlw	114	;'r'
   323  0869  3420               	retlw	32	;' '
   324  086A  3432               	retlw	50	;'2'
   325  086B  342E               	retlw	46	;'.'
   326  086C  3430               	retlw	48	;'0'
   327  086D  3400               	retlw	0
   328                           psect	strings
   329                           	file	"lab3 part 1.as"
   330                           	line	#
   331                           psect cinit,class=CODE,delta=2
   332                           global start_initialization
   333  1754                     start_initialization:
   334                           
   335                           psect	bssBANK0,class=BANK0,space=1
   336                           global __pbssBANK0
   337  006E                     __pbssBANK0:
   338  006E                     _errno:
   339  006E                            ds      2
   340                           
   341                           psect	bssBANK1,class=BANK1,space=1
   342                           global __pbssBANK1
   343  00B8                     __pbssBANK1:
   344  00B8                     _x:
   345  00B8                            ds      3
   346                           
   347  00BB                     _str:
   348  00BB                            ds      10
   349                           
   350                           ; Clear objects allocated to BANK0
   351                           psect cinit,class=CODE,delta=2
   352  1754  01EE               	clrf	((__pbssBANK0)+0)&07Fh
   353  1755  01EF               	clrf	((__pbssBANK0)+1)&07Fh
   354                           ; Clear objects allocated to BANK1
   355                           psect cinit,class=CODE,delta=2
   356  1756  1683               	bsf	status, 5	;RP0=1, select bank1
   357  1757  1303               	bcf	status, 6	;RP1=0, select bank1
   358  1758  01B8               	clrf	((__pbssBANK1)+0)&07Fh
   359  1759  01B9               	clrf	((__pbssBANK1)+1)&07Fh
   360  175A  01BA               	clrf	((__pbssBANK1)+2)&07Fh
   361  175B  01BB               	clrf	((__pbssBANK1)+3)&07Fh
   362  175C  01BC               	clrf	((__pbssBANK1)+4)&07Fh
   363  175D  01BD               	clrf	((__pbssBANK1)+5)&07Fh
   364  175E  01BE               	clrf	((__pbssBANK1)+6)&07Fh
   365  175F  01BF               	clrf	((__pbssBANK1)+7)&07Fh
   366  1760  01C0               	clrf	((__pbssBANK1)+8)&07Fh
   367  1761  01C1               	clrf	((__pbssBANK1)+9)&07Fh
   368  1762  01C2               	clrf	((__pbssBANK1)+10)&07Fh
   369  1763  01C3               	clrf	((__pbssBANK1)+11)&07Fh
   370  1764  01C4               	clrf	((__pbssBANK1)+12)&07Fh
   371                           psect cinit,class=CODE,delta=2
   372                           global end_of_initialization
   373                           
   374                           ;End of C runtime variable initialization code
   375                           
   376  1765                     end_of_initialization:
   377  1765  0183               clrf status
   378  1766  120A  118A  291E   ljmp _main	;jump to C main() function
   379                           psect	cstackBANK1,class=BANK1,space=1
   380                           global __pcstackBANK1
   381  00A0                     __pcstackBANK1:
   382                           	global	_pow$3806
   383  00A0                     _pow$3806:	; 3 bytes @ 0x0
   384  00A0                     	ds	3
   385                           	global	pow@sign
   386  00A3                     pow@sign:	; 1 bytes @ 0x3
   387  00A3                     	ds	1
   388                           	global	pow@yi
   389  00A4                     pow@yi:	; 4 bytes @ 0x4
   390  00A4                     	ds	4
   391                           	global	?_ftoa
   392  00A8                     ?_ftoa:	; 0 bytes @ 0x8
   393                           	global	ftoa@n
   394  00A8                     ftoa@n:	; 3 bytes @ 0x8
   395  00A8                     	ds	3
   396                           	global	ftoa@res
   397  00AB                     ftoa@res:	; 1 bytes @ 0xB
   398  00AB                     	ds	1
   399                           	global	ftoa@afterpoint
   400  00AC                     ftoa@afterpoint:	; 2 bytes @ 0xC
   401  00AC                     	ds	2
   402                           	global	_ftoa$3805
   403  00AE                     _ftoa$3805:	; 3 bytes @ 0xE
   404  00AE                     	ds	3
   405                           	global	ftoa@ipart
   406  00B1                     ftoa@ipart:	; 2 bytes @ 0x11
   407  00B1                     	ds	2
   408                           	global	ftoa@i
   409  00B3                     ftoa@i:	; 2 bytes @ 0x13
   410  00B3                     	ds	2
   411                           	global	ftoa@fpart
   412  00B5                     ftoa@fpart:	; 3 bytes @ 0x15
   413  00B5                     	ds	3
   414                           psect	cstackCOMMON,class=COMMON,space=1
   415                           global __pcstackCOMMON
   416  0070                     __pcstackCOMMON:
   417                           	global	?_lcd_init
   418  0070                     ?_lcd_init:	; 0 bytes @ 0x0
   419                           	global	?_lcd_clear
   420  0070                     ?_lcd_clear:	; 0 bytes @ 0x0
   421                           	global	?_DelayMs
   422  0070                     ?_DelayMs:	; 0 bytes @ 0x0
   423                           	global	??_DelayMs
   424  0070                     ??_DelayMs:	; 0 bytes @ 0x0
   425                           	global	?_init_a2d
   426  0070                     ?_init_a2d:	; 0 bytes @ 0x0
   427                           	global	??_init_a2d
   428  0070                     ??_init_a2d:	; 0 bytes @ 0x0
   429                           	global	?_lcd_goto
   430  0070                     ?_lcd_goto:	; 0 bytes @ 0x0
   431                           	global	?_main
   432  0070                     ?_main:	; 0 bytes @ 0x0
   433                           	global	?_lcd_write
   434  0070                     ?_lcd_write:	; 0 bytes @ 0x0
   435                           	global	??_lcd_write
   436  0070                     ??_lcd_write:	; 0 bytes @ 0x0
   437                           	global	?_reverse
   438  0070                     ?_reverse:	; 0 bytes @ 0x0
   439                           	global	?___ftge
   440  0070                     ?___ftge:	; 1 bit 
   441                           	global	?___bmul
   442  0070                     ?___bmul:	; 1 bytes @ 0x0
   443                           	global	?___awdiv
   444  0070                     ?___awdiv:	; 2 bytes @ 0x0
   445                           	global	?___awmod
   446  0070                     ?___awmod:	; 2 bytes @ 0x0
   447                           	global	?___ftpack
   448  0070                     ?___ftpack:	; 3 bytes @ 0x0
   449                           	global	?_frexp
   450  0070                     ?_frexp:	; 3 bytes @ 0x0
   451                           	global	?___fttol
   452  0070                     ?___fttol:	; 4 bytes @ 0x0
   453                           	global	___bmul@multiplicand
   454  0070                     ___bmul@multiplicand:	; 1 bytes @ 0x0
   455                           	global	reverse@len
   456  0070                     reverse@len:	; 2 bytes @ 0x0
   457                           	global	___awdiv@divisor
   458  0070                     ___awdiv@divisor:	; 2 bytes @ 0x0
   459                           	global	___awmod@divisor
   460  0070                     ___awmod@divisor:	; 2 bytes @ 0x0
   461                           	global	___fttol@f1
   462  0070                     ___fttol@f1:	; 3 bytes @ 0x0
   463                           	global	___ftge@ff1
   464  0070                     ___ftge@ff1:	; 3 bytes @ 0x0
   465                           	global	frexp@value
   466  0070                     frexp@value:	; 3 bytes @ 0x0
   467                           	global	___ftpack@arg
   468  0070                     ___ftpack@arg:	; 3 bytes @ 0x0
   469  0070                     	ds	1
   470                           	global	??___bmul
   471  0071                     ??___bmul:	; 0 bytes @ 0x1
   472                           	global	DelayMs@cnt
   473  0071                     DelayMs@cnt:	; 1 bytes @ 0x1
   474                           	global	lcd_write@_dcnt
   475  0071                     lcd_write@_dcnt:	; 1 bytes @ 0x1
   476  0071                     	ds	1
   477                           	global	??_reverse
   478  0072                     ??_reverse:	; 0 bytes @ 0x2
   479                           	global	DelayMs@i
   480  0072                     DelayMs@i:	; 1 bytes @ 0x2
   481                           	global	lcd_write@c
   482  0072                     lcd_write@c:	; 1 bytes @ 0x2
   483                           	global	___bmul@product
   484  0072                     ___bmul@product:	; 1 bytes @ 0x2
   485                           	global	___awdiv@dividend
   486  0072                     ___awdiv@dividend:	; 2 bytes @ 0x2
   487                           	global	___awmod@dividend
   488  0072                     ___awmod@dividend:	; 2 bytes @ 0x2
   489  0072                     	ds	1
   490                           	global	?_lcd_puts
   491  0073                     ?_lcd_puts:	; 0 bytes @ 0x3
   492                           	global	??_lcd_goto
   493  0073                     ??_lcd_goto:	; 0 bytes @ 0x3
   494                           	global	DelayMs@_dcnt
   495  0073                     DelayMs@_dcnt:	; 1 bytes @ 0x3
   496                           	global	lcd_goto@pos
   497  0073                     lcd_goto@pos:	; 1 bytes @ 0x3
   498                           	global	___bmul@multiplier
   499  0073                     ___bmul@multiplier:	; 1 bytes @ 0x3
   500                           	global	frexp@eptr
   501  0073                     frexp@eptr:	; 1 bytes @ 0x3
   502                           	global	___ftpack@exp
   503  0073                     ___ftpack@exp:	; 1 bytes @ 0x3
   504                           	global	lcd_puts@s
   505  0073                     lcd_puts@s:	; 2 bytes @ 0x3
   506                           	global	___ftge@ff2
   507  0073                     ___ftge@ff2:	; 3 bytes @ 0x3
   508  0073                     	ds	1
   509                           	global	?_DelaySec
   510  0074                     ?_DelaySec:	; 0 bytes @ 0x4
   511                           	global	??_lcd_init
   512  0074                     ??_lcd_init:	; 0 bytes @ 0x4
   513                           	global	??_lcd_clear
   514  0074                     ??_lcd_clear:	; 0 bytes @ 0x4
   515                           	global	??_frexp
   516  0074                     ??_frexp:	; 0 bytes @ 0x4
   517                           	global	??___fttol
   518  0074                     ??___fttol:	; 0 bytes @ 0x4
   519                           	global	??___awdiv
   520  0074                     ??___awdiv:	; 0 bytes @ 0x4
   521                           	global	??___awmod
   522  0074                     ??___awmod:	; 0 bytes @ 0x4
   523                           	global	___ftpack@sign
   524  0074                     ___ftpack@sign:	; 1 bytes @ 0x4
   525                           	global	DelaySec@sec
   526  0074                     DelaySec@sec:	; 2 bytes @ 0x4
   527  0074                     	ds	1
   528                           	global	??_lcd_puts
   529  0075                     ??_lcd_puts:	; 0 bytes @ 0x5
   530                           	global	??___ftpack
   531  0075                     ??___ftpack:	; 0 bytes @ 0x5
   532                           	global	lcd_init@_dcnt
   533  0075                     lcd_init@_dcnt:	; 1 bytes @ 0x5
   534                           	global	___awdiv@counter
   535  0075                     ___awdiv@counter:	; 1 bytes @ 0x5
   536                           	global	___awmod@counter
   537  0075                     ___awmod@counter:	; 1 bytes @ 0x5
   538                           	global	reverse@temp
   539  0075                     reverse@temp:	; 2 bytes @ 0x5
   540  0075                     	ds	1
   541                           	global	??_DelaySec
   542  0076                     ??_DelaySec:	; 0 bytes @ 0x6
   543                           	global	??___ftge
   544  0076                     ??___ftge:	; 0 bytes @ 0x6
   545                           	global	lcd_init@_dcnt_2125
   546  0076                     lcd_init@_dcnt_2125:	; 1 bytes @ 0x6
   547                           	global	___awdiv@sign
   548  0076                     ___awdiv@sign:	; 1 bytes @ 0x6
   549                           	global	___awmod@sign
   550  0076                     ___awmod@sign:	; 1 bytes @ 0x6
   551  0076                     	ds	1
   552                           	global	DelaySec@i
   553  0077                     DelaySec@i:	; 2 bytes @ 0x7
   554                           	global	reverse@i
   555  0077                     reverse@i:	; 2 bytes @ 0x7
   556                           	global	___awdiv@quotient
   557  0077                     ___awdiv@quotient:	; 2 bytes @ 0x7
   558  0077                     	ds	1
   559                           	global	?___ftdiv
   560  0078                     ?___ftdiv:	; 3 bytes @ 0x8
   561                           	global	?___lbtoft
   562  0078                     ?___lbtoft:	; 3 bytes @ 0x8
   563                           	global	?___ftneg
   564  0078                     ?___ftneg:	; 3 bytes @ 0x8
   565                           	global	?___lltoft
   566  0078                     ?___lltoft:	; 3 bytes @ 0x8
   567                           	global	___fttol@sign1
   568  0078                     ___fttol@sign1:	; 1 bytes @ 0x8
   569                           	global	___ftdiv@f2
   570  0078                     ___ftdiv@f2:	; 3 bytes @ 0x8
   571                           	global	___ftneg@f1
   572  0078                     ___ftneg@f1:	; 3 bytes @ 0x8
   573                           	global	___lltoft@c
   574  0078                     ___lltoft@c:	; 4 bytes @ 0x8
   575  0078                     	ds	1
   576                           	global	reverse@j
   577  0079                     reverse@j:	; 2 bytes @ 0x9
   578                           	global	___fttol@lval
   579  0079                     ___fttol@lval:	; 4 bytes @ 0x9
   580  0079                     	ds	2
   581                           	global	??___ftneg
   582  007B                     ??___ftneg:	; 0 bytes @ 0xB
   583                           	global	?___awtoft
   584  007B                     ?___awtoft:	; 3 bytes @ 0xB
   585                           	global	reverse@str
   586  007B                     reverse@str:	; 1 bytes @ 0xB
   587                           	global	___lbtoft@c
   588  007B                     ___lbtoft@c:	; 1 bytes @ 0xB
   589                           	global	___awtoft@c
   590  007B                     ___awtoft@c:	; 2 bytes @ 0xB
   591                           	global	___ftdiv@f1
   592  007B                     ___ftdiv@f1:	; 3 bytes @ 0xB
   593  007B                     	ds	1
   594                           	global	??_read_a2d
   595  007C                     ??_read_a2d:	; 0 bytes @ 0xC
   596                           	global	??___lltoft
   597  007C                     ??___lltoft:	; 0 bytes @ 0xC
   598  007C                     	ds	1
   599                           	global	___fttol@exp1
   600  007D                     ___fttol@exp1:	; 1 bytes @ 0xD
   601                           	global	___lltoft@exp
   602  007D                     ___lltoft@exp:	; 1 bytes @ 0xD
   603  007D                     	ds	1
   604                           	global	??___ftsub
   605  007E                     ??___ftsub:	; 0 bytes @ 0xE
   606                           psect	cstackBANK0,class=BANK0,space=1
   607                           global __pcstackBANK0
   608  0020                     __pcstackBANK0:
   609                           	global	??___ftdiv
   610  0020                     ??___ftdiv:	; 0 bytes @ 0x0
   611                           	global	??___lbtoft
   612  0020                     ??___lbtoft:	; 0 bytes @ 0x0
   613                           	global	??___awtoft
   614  0020                     ??___awtoft:	; 0 bytes @ 0x0
   615                           	global	?_intToStr
   616  0020                     ?_intToStr:	; 2 bytes @ 0x0
   617                           	global	?___altoft
   618  0020                     ?___altoft:	; 3 bytes @ 0x0
   619                           	global	intToStr@x
   620  0020                     intToStr@x:	; 2 bytes @ 0x0
   621                           	global	___altoft@c
   622  0020                     ___altoft@c:	; 4 bytes @ 0x0
   623  0020                     	ds	2
   624                           	global	intToStr@str
   625  0022                     intToStr@str:	; 1 bytes @ 0x2
   626                           	global	___awtoft@sign
   627  0022                     ___awtoft@sign:	; 1 bytes @ 0x2
   628  0022                     	ds	1
   629                           	global	?___ftmul
   630  0023                     ?___ftmul:	; 3 bytes @ 0x3
   631                           	global	intToStr@d
   632  0023                     intToStr@d:	; 2 bytes @ 0x3
   633                           	global	___ftmul@f1
   634  0023                     ___ftmul@f1:	; 3 bytes @ 0x3
   635  0023                     	ds	1
   636                           	global	??___altoft
   637  0024                     ??___altoft:	; 0 bytes @ 0x4
   638                           	global	?_read_a2d
   639  0024                     ?_read_a2d:	; 3 bytes @ 0x4
   640                           	global	___ftdiv@cntr
   641  0024                     ___ftdiv@cntr:	; 1 bytes @ 0x4
   642  0024                     	ds	1
   643                           	global	??_intToStr
   644  0025                     ??_intToStr:	; 0 bytes @ 0x5
   645                           	global	___ftdiv@f3
   646  0025                     ___ftdiv@f3:	; 3 bytes @ 0x5
   647  0025                     	ds	1
   648                           	global	___altoft@exp
   649  0026                     ___altoft@exp:	; 1 bytes @ 0x6
   650                           	global	___ftmul@f2
   651  0026                     ___ftmul@f2:	; 3 bytes @ 0x6
   652  0026                     	ds	1
   653                           	global	read_a2d@channel
   654  0027                     read_a2d@channel:	; 1 bytes @ 0x7
   655                           	global	___altoft@sign
   656  0027                     ___altoft@sign:	; 1 bytes @ 0x7
   657                           	global	intToStr@i
   658  0027                     intToStr@i:	; 2 bytes @ 0x7
   659  0027                     	ds	1
   660                           	global	___ftdiv@exp
   661  0028                     ___ftdiv@exp:	; 1 bytes @ 0x8
   662  0028                     	ds	1
   663                           	global	??___ftmul
   664  0029                     ??___ftmul:	; 0 bytes @ 0x9
   665                           	global	___ftdiv@sign
   666  0029                     ___ftdiv@sign:	; 1 bytes @ 0x9
   667  0029                     	ds	4
   668                           	global	___ftmul@exp
   669  002D                     ___ftmul@exp:	; 1 bytes @ 0xD
   670  002D                     	ds	1
   671                           	global	___ftmul@f3_as_product
   672  002E                     ___ftmul@f3_as_product:	; 3 bytes @ 0xE
   673  002E                     	ds	3
   674                           	global	___ftmul@cntr
   675  0031                     ___ftmul@cntr:	; 1 bytes @ 0x11
   676  0031                     	ds	1
   677                           	global	___ftmul@sign
   678  0032                     ___ftmul@sign:	; 1 bytes @ 0x12
   679  0032                     	ds	1
   680                           	global	?___ftadd
   681  0033                     ?___ftadd:	; 3 bytes @ 0x13
   682                           	global	___ftadd@f1
   683  0033                     ___ftadd@f1:	; 3 bytes @ 0x13
   684  0033                     	ds	3
   685                           	global	___ftadd@f2
   686  0036                     ___ftadd@f2:	; 3 bytes @ 0x16
   687  0036                     	ds	3
   688                           	global	??___ftadd
   689  0039                     ??___ftadd:	; 0 bytes @ 0x19
   690  0039                     	ds	4
   691                           	global	___ftadd@sign
   692  003D                     ___ftadd@sign:	; 1 bytes @ 0x1D
   693  003D                     	ds	1
   694                           	global	___ftadd@exp2
   695  003E                     ___ftadd@exp2:	; 1 bytes @ 0x1E
   696  003E                     	ds	1
   697                           	global	___ftadd@exp1
   698  003F                     ___ftadd@exp1:	; 1 bytes @ 0x1F
   699  003F                     	ds	1
   700                           	global	?_floor
   701  0040                     ?_floor:	; 3 bytes @ 0x20
   702                           	global	?_ldexp
   703  0040                     ?_ldexp:	; 3 bytes @ 0x20
   704                           	global	?___ftsub
   705  0040                     ?___ftsub:	; 3 bytes @ 0x20
   706                           	global	___ftsub@f2
   707  0040                     ___ftsub@f2:	; 3 bytes @ 0x20
   708                           	global	floor@x
   709  0040                     floor@x:	; 3 bytes @ 0x20
   710                           	global	ldexp@value
   711  0040                     ldexp@value:	; 3 bytes @ 0x20
   712  0040                     	ds	3
   713                           	global	??_floor
   714  0043                     ??_floor:	; 0 bytes @ 0x23
   715                           	global	ldexp@newexp
   716  0043                     ldexp@newexp:	; 2 bytes @ 0x23
   717                           	global	___ftsub@f1
   718  0043                     ___ftsub@f1:	; 3 bytes @ 0x23
   719  0043                     	ds	1
   720                           	global	floor@i
   721  0044                     floor@i:	; 3 bytes @ 0x24
   722  0044                     	ds	1
   723                           	global	??_ldexp
   724  0045                     ??_ldexp:	; 0 bytes @ 0x25
   725  0045                     	ds	2
   726                           	global	floor@expon
   727  0047                     floor@expon:	; 2 bytes @ 0x27
   728                           	global	_ldexp$3584
   729  0047                     _ldexp$3584:	; 3 bytes @ 0x27
   730  0047                     	ds	3
   731                           	global	?_eval_poly
   732  004A                     ?_eval_poly:	; 3 bytes @ 0x2A
   733                           	global	eval_poly@x
   734  004A                     eval_poly@x:	; 3 bytes @ 0x2A
   735  004A                     	ds	3
   736                           	global	eval_poly@d
   737  004D                     eval_poly@d:	; 1 bytes @ 0x2D
   738  004D                     	ds	1
   739                           	global	eval_poly@n
   740  004E                     eval_poly@n:	; 2 bytes @ 0x2E
   741  004E                     	ds	2
   742                           	global	??_eval_poly
   743  0050                     ??_eval_poly:	; 0 bytes @ 0x30
   744  0050                     	ds	1
   745                           	global	eval_poly@res
   746  0051                     eval_poly@res:	; 3 bytes @ 0x31
   747  0051                     	ds	3
   748                           	global	?_log
   749  0054                     ?_log:	; 3 bytes @ 0x34
   750                           	global	log@x
   751  0054                     log@x:	; 3 bytes @ 0x34
   752  0054                     	ds	3
   753                           	global	??_log
   754  0057                     ??_log:	; 0 bytes @ 0x37
   755  0057                     	ds	1
   756                           	global	log@exp
   757  0058                     log@exp:	; 2 bytes @ 0x38
   758  0058                     	ds	2
   759                           	global	?_exp
   760  005A                     ?_exp:	; 3 bytes @ 0x3A
   761                           	global	exp@x
   762  005A                     exp@x:	; 3 bytes @ 0x3A
   763  005A                     	ds	3
   764                           	global	??_exp
   765  005D                     ??_exp:	; 0 bytes @ 0x3D
   766  005D                     	ds	1
   767                           	global	_exp$3538
   768  005E                     _exp$3538:	; 3 bytes @ 0x3E
   769  005E                     	ds	3
   770                           	global	exp@exp
   771  0061                     exp@exp:	; 2 bytes @ 0x41
   772  0061                     	ds	2
   773                           	global	exp@sign
   774  0063                     exp@sign:	; 1 bytes @ 0x43
   775  0063                     	ds	1
   776                           	global	?_pow
   777  0064                     ?_pow:	; 3 bytes @ 0x44
   778                           	global	pow@x
   779  0064                     pow@x:	; 3 bytes @ 0x44
   780  0064                     	ds	3
   781                           	global	pow@y
   782  0067                     pow@y:	; 3 bytes @ 0x47
   783  0067                     	ds	3
   784                           	global	??_pow
   785  006A                     ??_pow:	; 0 bytes @ 0x4A
   786  006A                     	ds	1
   787                           	global	??_ftoa
   788  006B                     ??_ftoa:	; 0 bytes @ 0x4B
   789  006B                     	ds	2
   790                           	global	??_main
   791  006D                     ??_main:	; 0 bytes @ 0x4D
   792  006D                     	ds	1
   793 ;;Data sizes: Strings 37, constant 57, data 0, bss 15, persistent 0 stack 0
   794 ;;Auto spaces:   Size  Autos    Used
   795 ;; COMMON          14     14      14
   796 ;; BANK0           80     78      80
   797 ;; BANK1           80     24      37
   798 ;; BANK3           96      0       0
   799 ;; BANK2           96      0       0
   800                           
   801 ;;
   802 ;; Pointer list with targets:
   803                           
   804 ;; ?_frexp	 size(1) Largest target is 0
   805 ;;
   806 ;; ?_ldexp	 size(1) Largest target is 0
   807 ;;
   808 ;; ?_eval_poly	 size(1) Largest target is 0
   809 ;;
   810 ;; ?_floor	 size(1) Largest target is 0
   811 ;;
   812 ;; ?___altoft	float  size(1) Largest target is 0
   813 ;;
   814 ;; ?___lbtoft	float  size(1) Largest target is 0
   815 ;;
   816 ;; ?___ftsub	float  size(1) Largest target is 0
   817 ;;
   818 ;; ?___ftpack	float  size(1) Largest target is 0
   819 ;;
   820 ;; ?_exp	float  size(1) Largest target is 0
   821 ;;
   822 ;; ?_log	float  size(1) Largest target is 0
   823 ;;
   824 ;; ?___lltoft	float  size(1) Largest target is 0
   825 ;;
   826 ;; ?___ftmul	float  size(1) Largest target is 0
   827 ;;
   828 ;; ?_pow	float  size(1) Largest target is 0
   829 ;;
   830 ;; ?___ftadd	float  size(1) Largest target is 0
   831 ;;
   832 ;; ?___ftneg	float  size(1) Largest target is 0
   833 ;;
   834 ;; ?___awtoft	float  size(1) Largest target is 0
   835 ;;
   836 ;; ?___fttol	long  size(1) Largest target is 0
   837 ;;
   838 ;; ?_intToStr	int  size(1) Largest target is 0
   839 ;;
   840 ;; ?___awdiv	int  size(1) Largest target is 0
   841 ;;
   842 ;; ?___awmod	int  size(1) Largest target is 0
   843 ;;
   844 ;; ?_read_a2d	float  size(1) Largest target is 0
   845 ;;
   846 ;; ?___ftdiv	float  size(1) Largest target is 0
   847 ;;
   848 ;; eval_poly@d	PTR const  size(1) Largest target is 30
   849 ;;		 -> log@coeff(CODE[27]), exp@coeff(CODE[30]), 
   850 ;;
   851 ;; frexp@eptr	PTR int  size(1) Largest target is 2
   852 ;;		 -> log@exp(BANK0[2]), floor@expon(BANK0[2]), 
   853 ;;
   854 ;; ftoa@res	PTR unsigned char  size(1) Largest target is 10
   855 ;;		 -> str(BANK1[10]), 
   856 ;;
   857 ;; intToStr@str	PTR unsigned char  size(1) Largest target is 10
   858 ;;		 -> str(BANK1[10]), 
   859 ;;
   860 ;; reverse@str	PTR unsigned char  size(1) Largest target is 10
   861 ;;		 -> str(BANK1[10]), 
   862 ;;
   863 ;; lcd_puts@s	PTR const unsigned char  size(2) Largest target is 14
   864 ;;		 -> STR_3(CODE[14]), STR_2(CODE[11]), str(BANK1[10]), STR_1(CODE[12]), 
   865 ;;
   866                           
   867                           
   868 ;;
   869 ;; Critical Paths under _main in COMMON
   870 ;;
   871 ;;   _main->_read_a2d
   872 ;;   _main->___ftdiv
   873 ;;   _ftoa->___fttol
   874 ;;   _ftoa->___awtoft
   875 ;;   _pow->___fttol
   876 ;;   _pow->___lltoft
   877 ;;   _exp->___fttol
   878 ;;   _exp->___awtoft
   879 ;;   _exp->___ftdiv
   880 ;;   _log->___awtoft
   881 ;;   _floor->___fttol
   882 ;;   ___ftsub->___awtoft
   883 ;;   _read_a2d->___lbtoft
   884 ;;   ___lltoft->___ftpack
   885 ;;   ___altoft->___fttol
   886 ;;   ___awtoft->___ftneg
   887 ;;   ___lbtoft->___ftpack
   888 ;;   ___ftmul->___awtoft
   889 ;;   ___ftdiv->___ftpack
   890 ;;   ___ftadd->___awtoft
   891 ;;   _intToStr->___fttol
   892 ;;   _lcd_goto->_lcd_write
   893 ;;   _lcd_puts->_lcd_write
   894 ;;   _lcd_clear->_DelayMs
   895 ;;   _lcd_init->_DelayMs
   896 ;;   _DelaySec->_DelayMs
   897 ;;   ___ftneg->___ftpack
   898 ;;
   899 ;; Critical Paths under _main in BANK0
   900 ;;
   901 ;;   _main->_ftoa
   902 ;;   _ftoa->_pow
   903 ;;   _pow->_exp
   904 ;;   _exp->_log
   905 ;;   _log->_eval_poly
   906 ;;   _eval_poly->_ldexp
   907 ;;   _floor->___ftadd
   908 ;;   ___ftsub->___ftadd
   909 ;;   _read_a2d->___lbtoft
   910 ;;   _ldexp->___ftadd
   911 ;;   ___ftmul->___awtoft
   912 ;;   ___ftadd->___ftmul
   913 ;;
   914 ;; Critical Paths under _main in BANK1
   915 ;;
   916 ;;   _main->_ftoa
   917 ;;   _ftoa->_pow
   918 ;;
   919 ;; Critical Paths under _main in BANK3
   920 ;;
   921 ;;   None.
   922 ;;
   923 ;; Critical Paths under _main in BANK2
   924 ;;
   925 ;;   None.
   926                           
   927 ;;
   928 ;;Main: autosize = 0, tempsize = 1, incstack = 0, save=0
   929 ;;
   930                           
   931 ;;
   932 ;;Call Graph Tables:
   933 ;;
   934 ;; ---------------------------------------------------------------------------------
   935 ;; (Depth) Function   	        Calls       Base Space   Used Autos Params    Refs
   936 ;; ---------------------------------------------------------------------------------
   937 ;; (0) _main                                                 2     2      0   18983
   938 ;;                                             77 BANK0      1     1      0
   939 ;;                           _DelaySec
   940 ;;                           _lcd_init
   941 ;;                          _lcd_clear
   942 ;;                           _lcd_puts
   943 ;;                            _DelayMs
   944 ;;                           _init_a2d
   945 ;;                           _lcd_goto
   946 ;;                           _read_a2d
   947 ;;                            ___ftdiv
   948 ;;                               _ftoa
   949 ;;                             ___ftge
   950 ;; ---------------------------------------------------------------------------------
   951 ;; (1) _ftoa                                                18    12      6   17337
   952 ;;                                             75 BANK0      2     2      0
   953 ;;                                              8 BANK1     16    10      6
   954 ;;                            ___fttol
   955 ;;                           ___awtoft
   956 ;;                            ___ftneg
   957 ;;                            ___ftadd
   958 ;;                           _intToStr
   959 ;;                                _pow
   960 ;;                            ___ftmul
   961 ;; ---------------------------------------------------------------------------------
   962 ;; (2) _pow                                                 15     9      6   13644
   963 ;;                                             68 BANK0      7     1      6
   964 ;;                                              0 BANK1      8     8      0
   965 ;;                             ___ftge
   966 ;;                            ___fttol
   967 ;;                           ___lltoft
   968 ;;                            ___ftneg
   969 ;;                                _log
   970 ;;                            ___ftmul
   971 ;;                                _exp
   972 ;; ---------------------------------------------------------------------------------
   973 ;; (3) _exp                                                 10     7      3    7799
   974 ;;                                             58 BANK0     10     7      3
   975 ;;                             ___ftge
   976 ;;                            ___ftneg
   977 ;;                            ___ftmul
   978 ;;                              _floor
   979 ;;                            ___fttol
   980 ;;                           ___awtoft
   981 ;;                            ___ftsub
   982 ;;                          _eval_poly
   983 ;;                              _ldexp
   984 ;;                            ___ftdiv
   985 ;;                                _log (ARG)
   986 ;; ---------------------------------------------------------------------------------
   987 ;; (3) _log                                                  6     3      3    4263
   988 ;;                                             52 BANK0      6     3      3
   989 ;;                             ___ftge
   990 ;;                              _frexp
   991 ;;                            ___ftmul
   992 ;;                            ___ftadd
   993 ;;                          _eval_poly
   994 ;;                           ___awtoft
   995 ;; ---------------------------------------------------------------------------------
   996 ;; (4) _eval_poly                                           10     4      6    1854
   997 ;;                                             42 BANK0     10     4      6
   998 ;;                             ___bmul
   999 ;;                            ___ftmul
  1000 ;;                            ___ftadd
  1001 ;;                              _ldexp (ARG)
  1002 ;; ---------------------------------------------------------------------------------
  1003 ;; (4) _floor                                                9     6      3    2259
  1004 ;;                                             32 BANK0      9     6      3
  1005 ;;                              _frexp
  1006 ;;                             ___ftge
  1007 ;;                            ___fttol
  1008 ;;                           ___altoft
  1009 ;;                            ___ftadd
  1010 ;; ---------------------------------------------------------------------------------
  1011 ;; (4) ___ftsub                                              6     0      6    1094
  1012 ;;                                             32 BANK0      6     0      6
  1013 ;;                            ___ftadd
  1014 ;;                           ___awtoft (ARG)
  1015 ;; ---------------------------------------------------------------------------------
  1016 ;; (1) _read_a2d                                             6     3      3     322
  1017 ;;                                             12 COMMON     2     2      0
  1018 ;;                                              4 BANK0      4     1      3
  1019 ;;                            _DelayMs
  1020 ;;                           ___lbtoft
  1021 ;; ---------------------------------------------------------------------------------
  1022 ;; (4) _ldexp                                               10     5      5     453
  1023 ;;                                             32 BANK0     10     5      5
  1024 ;;                             ___ftge
  1025 ;;                            ___ftneg
  1026 ;;                             ___bmul (ARG)
  1027 ;;                            ___ftmul (ARG)
  1028 ;;                            ___ftadd (ARG)
  1029 ;; ---------------------------------------------------------------------------------
  1030 ;; (3) ___lltoft                                             6     2      4     278
  1031 ;;                                              8 COMMON     6     2      4
  1032 ;;                           ___ftpack
  1033 ;; ---------------------------------------------------------------------------------
  1034 ;; (5) ___altoft                                             8     4      4     347
  1035 ;;                                              0 BANK0      8     4      4
  1036 ;;                           ___ftpack
  1037 ;;                            ___fttol (ARG)
  1038 ;; ---------------------------------------------------------------------------------
  1039 ;; (4) ___awtoft                                             6     3      3     300
  1040 ;;                                             11 COMMON     3     0      3
  1041 ;;                                              0 BANK0      3     3      0
  1042 ;;                           ___ftpack
  1043 ;;                            ___ftneg (ARG)
  1044 ;; ---------------------------------------------------------------------------------
  1045 ;; (2) ___lbtoft                                             8     5      3     231
  1046 ;;                                              8 COMMON     4     1      3
  1047 ;;                                              0 BANK0      4     4      0
  1048 ;;                           ___ftpack
  1049 ;; ---------------------------------------------------------------------------------
  1050 ;; (2) ___ftmul                                             16    10      6     535
  1051 ;;                                              3 BANK0     16    10      6
  1052 ;;                           ___ftpack
  1053 ;;                           ___awtoft (ARG)
  1054 ;;                              _frexp (ARG)
  1055 ;; ---------------------------------------------------------------------------------
  1056 ;; (4) ___ftdiv                                             16    10      6     489
  1057 ;;                                              8 COMMON     6     0      6
  1058 ;;                                              0 BANK0     10    10      0
  1059 ;;                           ___ftpack
  1060 ;; ---------------------------------------------------------------------------------
  1061 ;; (5) ___ftadd                                             13     7      6    1049
  1062 ;;                                             19 BANK0     13     7      6
  1063 ;;                           ___ftpack
  1064 ;;                            ___ftneg (ARG)
  1065 ;;                           ___awtoft (ARG)
  1066 ;;                            ___ftmul (ARG)
  1067 ;;                              _frexp (ARG)
  1068 ;;                             ___bmul (ARG)
  1069 ;; ---------------------------------------------------------------------------------
  1070 ;; (2) _intToStr                                             9     4      5    1177
  1071 ;;                                              0 BANK0      9     4      5
  1072 ;;                            ___awmod
  1073 ;;                            ___awdiv
  1074 ;;                            _reverse
  1075 ;;                            ___fttol (ARG)
  1076 ;; ---------------------------------------------------------------------------------
  1077 ;; (1) _lcd_goto                                             1     1      0      89
  1078 ;;                                              3 COMMON     1     1      0
  1079 ;;                          _lcd_write
  1080 ;; ---------------------------------------------------------------------------------
  1081 ;; (1) _lcd_puts                                             2     0      2     112
  1082 ;;                                              3 COMMON     2     0      2
  1083 ;;                          _lcd_write
  1084 ;; ---------------------------------------------------------------------------------
  1085 ;; (1) _lcd_clear                                            0     0      0     135
  1086 ;;                          _lcd_write
  1087 ;;                            _DelayMs
  1088 ;; ---------------------------------------------------------------------------------
  1089 ;; (1) _lcd_init                                             3     3      0     181
  1090 ;;                                              4 COMMON     3     3      0
  1091 ;;                            _DelayMs
  1092 ;;                          _lcd_write
  1093 ;; ---------------------------------------------------------------------------------
  1094 ;; (1) _DelaySec                                             5     3      2     114
  1095 ;;                                              4 COMMON     5     3      2
  1096 ;;                            _DelayMs
  1097 ;; ---------------------------------------------------------------------------------
  1098 ;; (5) _frexp                                                6     2      4     224
  1099 ;;                                              0 COMMON     6     2      4
  1100 ;; ---------------------------------------------------------------------------------
  1101 ;; (3) ___awmod                                              7     3      4     296
  1102 ;;                                              0 COMMON     7     3      4
  1103 ;; ---------------------------------------------------------------------------------
  1104 ;; (1) ___ftge                                              12     6      6     136
  1105 ;;                                              0 COMMON    12     6      6
  1106 ;; ---------------------------------------------------------------------------------
  1107 ;; (5) ___ftneg                                              3     0      3      45
  1108 ;;                                              8 COMMON     3     0      3
  1109 ;;                           ___ftpack (ARG)
  1110 ;; ---------------------------------------------------------------------------------
  1111 ;; (3) ___awdiv                                              9     5      4     300
  1112 ;;                                              0 COMMON     9     5      4
  1113 ;; ---------------------------------------------------------------------------------
  1114 ;; (4) ___fttol                                             14    10      4     252
  1115 ;;                                              0 COMMON    14    10      4
  1116 ;; ---------------------------------------------------------------------------------
  1117 ;; (3) ___ftpack                                             8     3      5     209
  1118 ;;                                              0 COMMON     8     3      5
  1119 ;; ---------------------------------------------------------------------------------
  1120 ;; (5) ___bmul                                               4     3      1      92
  1121 ;;                                              0 COMMON     4     3      1
  1122 ;; ---------------------------------------------------------------------------------
  1123 ;; (3) _reverse                                             12    10      2     269
  1124 ;;                                              0 COMMON    12    10      2
  1125 ;; ---------------------------------------------------------------------------------
  1126 ;; (2) _lcd_write                                            3     3      0      67
  1127 ;;                                              0 COMMON     3     3      0
  1128 ;; ---------------------------------------------------------------------------------
  1129 ;; (1) _init_a2d                                             0     0      0       0
  1130 ;; ---------------------------------------------------------------------------------
  1131 ;; (2) _DelayMs                                              4     4      0      68
  1132 ;;                                              0 COMMON     4     4      0
  1133 ;; ---------------------------------------------------------------------------------
  1134 ;; Estimated maximum stack depth 5
  1135 ;; ---------------------------------------------------------------------------------
  1136                           
  1137 ;; Call Graph Graphs:
  1138                           
  1139 ;; _main (ROOT)
  1140 ;;   _DelaySec
  1141 ;;     _DelayMs
  1142 ;;   _lcd_init
  1143 ;;     _DelayMs
  1144 ;;     _lcd_write
  1145 ;;   _lcd_clear
  1146 ;;     _lcd_write
  1147 ;;     _DelayMs
  1148 ;;   _lcd_puts
  1149 ;;     _lcd_write
  1150 ;;   _DelayMs
  1151 ;;   _init_a2d
  1152 ;;   _lcd_goto
  1153 ;;     _lcd_write
  1154 ;;   _read_a2d
  1155 ;;     _DelayMs
  1156 ;;     ___lbtoft
  1157 ;;       ___ftpack
  1158 ;;   ___ftdiv
  1159 ;;     ___ftpack
  1160 ;;   _ftoa
  1161 ;;     ___fttol
  1162 ;;     ___awtoft
  1163 ;;       ___ftpack
  1164 ;;       ___ftneg (ARG)
  1165 ;;         ___ftpack (ARG)
  1166 ;;     ___ftneg
  1167 ;;       ___ftpack (ARG)
  1168 ;;     ___ftadd
  1169 ;;       ___ftpack
  1170 ;;       ___ftneg (ARG)
  1171 ;;         ___ftpack (ARG)
  1172 ;;       ___awtoft (ARG)
  1173 ;;         ___ftpack
  1174 ;;         ___ftneg (ARG)
  1175 ;;           ___ftpack (ARG)
  1176 ;;       ___ftmul (ARG)
  1177 ;;         ___ftpack
  1178 ;;         ___awtoft (ARG)
  1179 ;;           ___ftpack
  1180 ;;           ___ftneg (ARG)
  1181 ;;             ___ftpack (ARG)
  1182 ;;         _frexp (ARG)
  1183 ;;       _frexp (ARG)
  1184 ;;       ___bmul (ARG)
  1185 ;;     _intToStr
  1186 ;;       ___awmod
  1187 ;;       ___awdiv
  1188 ;;       _reverse
  1189 ;;       ___fttol (ARG)
  1190 ;;     _pow
  1191 ;;       ___ftge
  1192 ;;       ___fttol
  1193 ;;       ___lltoft
  1194 ;;         ___ftpack
  1195 ;;       ___ftneg
  1196 ;;         ___ftpack (ARG)
  1197 ;;       _log
  1198 ;;         ___ftge
  1199 ;;         _frexp
  1200 ;;         ___ftmul
  1201 ;;           ___ftpack
  1202 ;;           ___awtoft (ARG)
  1203 ;;             ___ftpack
  1204 ;;             ___ftneg (ARG)
  1205 ;;               ___ftpack (ARG)
  1206 ;;           _frexp (ARG)
  1207 ;;         ___ftadd
  1208 ;;           ___ftpack
  1209 ;;           ___ftneg (ARG)
  1210 ;;             ___ftpack (ARG)
  1211 ;;           ___awtoft (ARG)
  1212 ;;             ___ftpack
  1213 ;;             ___ftneg (ARG)
  1214 ;;               ___ftpack (ARG)
  1215 ;;           ___ftmul (ARG)
  1216 ;;             ___ftpack
  1217 ;;             ___awtoft (ARG)
  1218 ;;               ___ftpack
  1219 ;;               ___ftneg (ARG)
  1220 ;;                 ___ftpack (ARG)
  1221 ;;             _frexp (ARG)
  1222 ;;           _frexp (ARG)
  1223 ;;           ___bmul (ARG)
  1224 ;;         _eval_poly
  1225 ;;           ___bmul
  1226 ;;           ___ftmul
  1227 ;;             ___ftpack
  1228 ;;             ___awtoft (ARG)
  1229 ;;               ___ftpack
  1230 ;;               ___ftneg (ARG)
  1231 ;;                 ___ftpack (ARG)
  1232 ;;             _frexp (ARG)
  1233 ;;           ___ftadd
  1234 ;;             ___ftpack
  1235 ;;             ___ftneg (ARG)
  1236 ;;               ___ftpack (ARG)
  1237 ;;             ___awtoft (ARG)
  1238 ;;               ___ftpack
  1239 ;;               ___ftneg (ARG)
  1240 ;;                 ___ftpack (ARG)
  1241 ;;             ___ftmul (ARG)
  1242 ;;               ___ftpack
  1243 ;;               ___awtoft (ARG)
  1244 ;;                 ___ftpack
  1245 ;;                 ___ftneg (ARG)
  1246 ;;                   ___ftpack (ARG)
  1247 ;;               _frexp (ARG)
  1248 ;;             _frexp (ARG)
  1249 ;;             ___bmul (ARG)
  1250 ;;           _ldexp (ARG)
  1251 ;;             ___ftge
  1252 ;;             ___ftneg
  1253 ;;               ___ftpack (ARG)
  1254 ;;             ___bmul (ARG)
  1255 ;;             ___ftmul (ARG)
  1256 ;;               ___ftpack
  1257 ;;               ___awtoft (ARG)
  1258 ;;                 ___ftpack
  1259 ;;                 ___ftneg (ARG)
  1260 ;;                   ___ftpack (ARG)
  1261 ;;               _frexp (ARG)
  1262 ;;             ___ftadd (ARG)
  1263 ;;               ___ftpack
  1264 ;;               ___ftneg (ARG)
  1265 ;;                 ___ftpack (ARG)
  1266 ;;               ___awtoft (ARG)
  1267 ;;                 ___ftpack
  1268 ;;                 ___ftneg (ARG)
  1269 ;;                   ___ftpack (ARG)
  1270 ;;               ___ftmul (ARG)
  1271 ;;                 ___ftpack
  1272 ;;                 ___awtoft (ARG)
  1273 ;;                   ___ftpack
  1274 ;;                   ___ftneg (ARG)
  1275 ;;                     ___ftpack (ARG)
  1276 ;;                 _frexp (ARG)
  1277 ;;               _frexp (ARG)
  1278 ;;               ___bmul (ARG)
  1279 ;;         ___awtoft
  1280 ;;           ___ftpack
  1281 ;;           ___ftneg (ARG)
  1282 ;;             ___ftpack (ARG)
  1283 ;;       ___ftmul
  1284 ;;         ___ftpack
  1285 ;;         ___awtoft (ARG)
  1286 ;;           ___ftpack
  1287 ;;           ___ftneg (ARG)
  1288 ;;             ___ftpack (ARG)
  1289 ;;         _frexp (ARG)
  1290 ;;       _exp
  1291 ;;         ___ftge
  1292 ;;         ___ftneg
  1293 ;;           ___ftpack (ARG)
  1294 ;;         ___ftmul
  1295 ;;           ___ftpack
  1296 ;;           ___awtoft (ARG)
  1297 ;;             ___ftpack
  1298 ;;             ___ftneg (ARG)
  1299 ;;               ___ftpack (ARG)
  1300 ;;           _frexp (ARG)
  1301 ;;         _floor
  1302 ;;           _frexp
  1303 ;;           ___ftge
  1304 ;;           ___fttol
  1305 ;;           ___altoft
  1306 ;;             ___ftpack
  1307 ;;             ___fttol (ARG)
  1308 ;;           ___ftadd
  1309 ;;             ___ftpack
  1310 ;;             ___ftneg (ARG)
  1311 ;;               ___ftpack (ARG)
  1312 ;;             ___awtoft (ARG)
  1313 ;;               ___ftpack
  1314 ;;               ___ftneg (ARG)
  1315 ;;                 ___ftpack (ARG)
  1316 ;;             ___ftmul (ARG)
  1317 ;;               ___ftpack
  1318 ;;               ___awtoft (ARG)
  1319 ;;                 ___ftpack
  1320 ;;                 ___ftneg (ARG)
  1321 ;;                   ___ftpack (ARG)
  1322 ;;               _frexp (ARG)
  1323 ;;             _frexp (ARG)
  1324 ;;             ___bmul (ARG)
  1325 ;;         ___fttol
  1326 ;;         ___awtoft
  1327 ;;           ___ftpack
  1328 ;;           ___ftneg (ARG)
  1329 ;;             ___ftpack (ARG)
  1330 ;;         ___ftsub
  1331 ;;           ___ftadd
  1332 ;;             ___ftpack
  1333 ;;             ___ftneg (ARG)
  1334 ;;               ___ftpack (ARG)
  1335 ;;             ___awtoft (ARG)
  1336 ;;               ___ftpack
  1337 ;;               ___ftneg (ARG)
  1338 ;;                 ___ftpack (ARG)
  1339 ;;             ___ftmul (ARG)
  1340 ;;               ___ftpack
  1341 ;;               ___awtoft (ARG)
  1342 ;;                 ___ftpack
  1343 ;;                 ___ftneg (ARG)
  1344 ;;                   ___ftpack (ARG)
  1345 ;;               _frexp (ARG)
  1346 ;;             _frexp (ARG)
  1347 ;;             ___bmul (ARG)
  1348 ;;           ___awtoft (ARG)
  1349 ;;             ___ftpack
  1350 ;;             ___ftneg (ARG)
  1351 ;;               ___ftpack (ARG)
  1352 ;;         _eval_poly
  1353 ;;           ___bmul
  1354 ;;           ___ftmul
  1355 ;;             ___ftpack
  1356 ;;             ___awtoft (ARG)
  1357 ;;               ___ftpack
  1358 ;;               ___ftneg (ARG)
  1359 ;;                 ___ftpack (ARG)
  1360 ;;             _frexp (ARG)
  1361 ;;           ___ftadd
  1362 ;;             ___ftpack
  1363 ;;             ___ftneg (ARG)
  1364 ;;               ___ftpack (ARG)
  1365 ;;             ___awtoft (ARG)
  1366 ;;               ___ftpack
  1367 ;;               ___ftneg (ARG)
  1368 ;;                 ___ftpack (ARG)
  1369 ;;             ___ftmul (ARG)
  1370 ;;               ___ftpack
  1371 ;;               ___awtoft (ARG)
  1372 ;;                 ___ftpack
  1373 ;;                 ___ftneg (ARG)
  1374 ;;                   ___ftpack (ARG)
  1375 ;;               _frexp (ARG)
  1376 ;;             _frexp (ARG)
  1377 ;;             ___bmul (ARG)
  1378 ;;           _ldexp (ARG)
  1379 ;;             ___ftge
  1380 ;;             ___ftneg
  1381 ;;               ___ftpack (ARG)
  1382 ;;             ___bmul (ARG)
  1383 ;;             ___ftmul (ARG)
  1384 ;;               ___ftpack
  1385 ;;               ___awtoft (ARG)
  1386 ;;                 ___ftpack
  1387 ;;                 ___ftneg (ARG)
  1388 ;;                   ___ftpack (ARG)
  1389 ;;               _frexp (ARG)
  1390 ;;             ___ftadd (ARG)
  1391 ;;               ___ftpack
  1392 ;;               ___ftneg (ARG)
  1393 ;;                 ___ftpack (ARG)
  1394 ;;               ___awtoft (ARG)
  1395 ;;                 ___ftpack
  1396 ;;                 ___ftneg (ARG)
  1397 ;;                   ___ftpack (ARG)
  1398 ;;               ___ftmul (ARG)
  1399 ;;                 ___ftpack
  1400 ;;                 ___awtoft (ARG)
  1401 ;;                   ___ftpack
  1402 ;;                   ___ftneg (ARG)
  1403 ;;                     ___ftpack (ARG)
  1404 ;;                 _frexp (ARG)
  1405 ;;               _frexp (ARG)
  1406 ;;               ___bmul (ARG)
  1407 ;;         _ldexp
  1408 ;;           ___ftge
  1409 ;;           ___ftneg
  1410 ;;             ___ftpack (ARG)
  1411 ;;           ___bmul (ARG)
  1412 ;;           ___ftmul (ARG)
  1413 ;;             ___ftpack
  1414 ;;             ___awtoft (ARG)
  1415 ;;               ___ftpack
  1416 ;;               ___ftneg (ARG)
  1417 ;;                 ___ftpack (ARG)
  1418 ;;             _frexp (ARG)
  1419 ;;           ___ftadd (ARG)
  1420 ;;             ___ftpack
  1421 ;;             ___ftneg (ARG)
  1422 ;;               ___ftpack (ARG)
  1423 ;;             ___awtoft (ARG)
  1424 ;;               ___ftpack
  1425 ;;               ___ftneg (ARG)
  1426 ;;                 ___ftpack (ARG)
  1427 ;;             ___ftmul (ARG)
  1428 ;;               ___ftpack
  1429 ;;               ___awtoft (ARG)
  1430 ;;                 ___ftpack
  1431 ;;                 ___ftneg (ARG)
  1432 ;;                   ___ftpack (ARG)
  1433 ;;               _frexp (ARG)
  1434 ;;             _frexp (ARG)
  1435 ;;             ___bmul (ARG)
  1436 ;;         ___ftdiv
  1437 ;;           ___ftpack
  1438 ;;         _log (ARG)
  1439 ;;           ___ftge
  1440 ;;           _frexp
  1441 ;;           ___ftmul
  1442 ;;             ___ftpack
  1443 ;;             ___awtoft (ARG)
  1444 ;;               ___ftpack
  1445 ;;               ___ftneg (ARG)
  1446 ;;                 ___ftpack (ARG)
  1447 ;;             _frexp (ARG)
  1448 ;;           ___ftadd
  1449 ;;             ___ftpack
  1450 ;;             ___ftneg (ARG)
  1451 ;;               ___ftpack (ARG)
  1452 ;;             ___awtoft (ARG)
  1453 ;;               ___ftpack
  1454 ;;               ___ftneg (ARG)
  1455 ;;                 ___ftpack (ARG)
  1456 ;;             ___ftmul (ARG)
  1457 ;;               ___ftpack
  1458 ;;               ___awtoft (ARG)
  1459 ;;                 ___ftpack
  1460 ;;                 ___ftneg (ARG)
  1461 ;;                   ___ftpack (ARG)
  1462 ;;               _frexp (ARG)
  1463 ;;             _frexp (ARG)
  1464 ;;             ___bmul (ARG)
  1465 ;;           _eval_poly
  1466 ;;             ___bmul
  1467 ;;             ___ftmul
  1468 ;;               ___ftpack
  1469 ;;               ___awtoft (ARG)
  1470 ;;                 ___ftpack
  1471 ;;                 ___ftneg (ARG)
  1472 ;;                   ___ftpack (ARG)
  1473 ;;               _frexp (ARG)
  1474 ;;             ___ftadd
  1475 ;;               ___ftpack
  1476 ;;               ___ftneg (ARG)
  1477 ;;                 ___ftpack (ARG)
  1478 ;;               ___awtoft (ARG)
  1479 ;;                 ___ftpack
  1480 ;;                 ___ftneg (ARG)
  1481 ;;                   ___ftpack (ARG)
  1482 ;;               ___ftmul (ARG)
  1483 ;;                 ___ftpack
  1484 ;;                 ___awtoft (ARG)
  1485 ;;                   ___ftpack
  1486 ;;                   ___ftneg (ARG)
  1487 ;;                     ___ftpack (ARG)
  1488 ;;                 _frexp (ARG)
  1489 ;;               _frexp (ARG)
  1490 ;;               ___bmul (ARG)
  1491 ;;             _ldexp (ARG)
  1492 ;;               ___ftge
  1493 ;;               ___ftneg
  1494 ;;                 ___ftpack (ARG)
  1495 ;;               ___bmul (ARG)
  1496 ;;               ___ftmul (ARG)
  1497 ;;                 ___ftpack
  1498 ;;                 ___awtoft (ARG)
  1499 ;;                   ___ftpack
  1500 ;;                   ___ftneg (ARG)
  1501 ;;                     ___ftpack (ARG)
  1502 ;;                 _frexp (ARG)
  1503 ;;               ___ftadd (ARG)
  1504 ;;                 ___ftpack
  1505 ;;                 ___ftneg (ARG)
  1506 ;;                   ___ftpack (ARG)
  1507 ;;                 ___awtoft (ARG)
  1508 ;;                   ___ftpack
  1509 ;;                   ___ftneg (ARG)
  1510 ;;                     ___ftpack (ARG)
  1511 ;;                 ___ftmul (ARG)
  1512 ;;                   ___ftpack
  1513 ;;                   ___awtoft (ARG)
  1514 ;;                     ___ftpack
  1515 ;;                     ___ftneg (ARG)
  1516 ;;                       ___ftpack (ARG)
  1517 ;;                   _frexp (ARG)
  1518 ;;                 _frexp (ARG)
  1519 ;;                 ___bmul (ARG)
  1520 ;;           ___awtoft
  1521 ;;             ___ftpack
  1522 ;;             ___ftneg (ARG)
  1523 ;;               ___ftpack (ARG)
  1524 ;;     ___ftmul
  1525 ;;       ___ftpack
  1526 ;;       ___awtoft (ARG)
  1527 ;;         ___ftpack
  1528 ;;         ___ftneg (ARG)
  1529 ;;           ___ftpack (ARG)
  1530 ;;       _frexp (ARG)
  1531 ;;   ___ftge
  1532 ;;
  1533                           
  1534 ;; Address spaces:
  1535                           
  1536 ;;Name               Size   Autos  Total    Cost      Usage
  1537 ;;BITCOMMON            E      0       0       0        0.0%
  1538 ;;EEDATA             100      0       0       0        0.0%
  1539 ;;NULL                 0      0       0       0        0.0%
  1540 ;;CODE                 0      0       0       0        0.0%
  1541 ;;COMMON               E      E       E       1      100.0%
  1542 ;;BITSFR0              0      0       0       1        0.0%
  1543 ;;SFR0                 0      0       0       1        0.0%
  1544 ;;BITSFR1              0      0       0       2        0.0%
  1545 ;;SFR1                 0      0       0       2        0.0%
  1546 ;;STACK                0      0       6       2        0.0%
  1547 ;;ABS                  0      0      83       3        0.0%
  1548 ;;BITBANK0            50      0       0       4        0.0%
  1549 ;;BITSFR3              0      0       0       4        0.0%
  1550 ;;SFR3                 0      0       0       4        0.0%
  1551 ;;BANK0               50     4E      50       5      100.0%
  1552 ;;BITSFR2              0      0       0       5        0.0%
  1553 ;;SFR2                 0      0       0       5        0.0%
  1554 ;;BITBANK1            50      0       0       6        0.0%
  1555 ;;BANK1               50     18      25       7       46.3%
  1556 ;;BITBANK3            60      0       0       8        0.0%
  1557 ;;BANK3               60      0       0       9        0.0%
  1558 ;;BITBANK2            60      0       0      10        0.0%
  1559 ;;BANK2               60      0       0      11        0.0%
  1560 ;;DATA                 0      0      89      12        0.0%
  1561                           
  1562                           	global	_main
  1563                           psect	maintext,global,class=CODE,delta=2
  1564                           global __pmaintext
  1565  011E                     __pmaintext:
  1566                           
  1567 ;; *************** function _main *****************
  1568 ;; Defined at:
  1569 ;;		line 21 in file "C:\Users\abdal\Desktop\University\Year 4\Second Semester\Real Time Lab\Experiments and Codes\exp3\A
       DC (motors and LCD)\ADC_EXMAPLE.c"
  1570 ;; Parameters:    Size  Location     Type
  1571 ;;		None
  1572 ;; Auto vars:     Size  Location     Type
  1573 ;;  rec             1    0        unsigned char 
  1574 ;; Return value:  Size  Location     Type
  1575 ;;		None               void
  1576 ;; Registers used:
  1577 ;;		wreg, fsr0l, fsr0h, status,2, status,0, btemp+1, pclath, cstack
  1578 ;; Tracked objects:
  1579 ;;		On entry : 17F/0
  1580 ;;		On exit  : 0/0
  1581 ;;		Unchanged: 0/0
  1582 ;; Data sizes:     COMMON   BANK0   BANK1   BANK3   BANK2
  1583 ;;      Params:         0       0       0       0       0
  1584 ;;      Locals:         0       0       0       0       0
  1585 ;;      Temps:          0       1       0       0       0
  1586 ;;      Totals:         0       1       0       0       0
  1587 ;;Total ram usage:        1 bytes
  1588 ;; Hardware stack levels required when called:    6
  1589 ;; This function calls:
  1590 ;;		_DelaySec
  1591 ;;		_lcd_init
  1592 ;;		_lcd_clear
  1593 ;;		_lcd_puts
  1594 ;;		_DelayMs
  1595 ;;		_init_a2d
  1596 ;;		_lcd_goto
  1597 ;;		_read_a2d
  1598 ;;		___ftdiv
  1599 ;;		_ftoa
  1600 ;;		___ftge
  1601 ;; This function is called by:
  1602 ;;		Startup code after reset
  1603 ;; This function uses a non-reentrant model
  1604 ;;
  1605                           psect	maintext
  1606                           	file	"C:\Users\abdal\Desktop\University\Year 4\Second Semester\Real Time Lab\Experiment
                                 s and Codes\exp3\ADC (motors and LCD)\ADC_EXMAPLE.c"
  1607                           	line	21
  1608                           	global	__size_of_main
  1609  00E6                     	__size_of_main	equ	__end_of_main-_main
  1610                           	
  1611  011E                     _main:	
  1612                           	opt	stack 2
  1613                           ; Regs used in _main: [wreg-fsr0h+status,2+status,0+btemp+1+pclath+cstack]
  1614                           	line	23
  1615                           	
  1616  011E                     l6191:	
  1617                           ;ADC_EXMAPLE.c: 22: unsigned char rec;
  1618                           ;ADC_EXMAPLE.c: 23: TRISD = 0;
  1619  011E  1683               	bsf	status, 5	;RP0=1, select bank1
  1620  011F  1303               	bcf	status, 6	;RP1=0, select bank1
  1621  0120  0188               	clrf	(136)^080h	;volatile
  1622                           	line	24
  1623                           ;ADC_EXMAPLE.c: 24: TRISE = 0;
  1624  0121  0189               	clrf	(137)^080h	;volatile
  1625                           	line	25
  1626                           ;ADC_EXMAPLE.c: 25: TRISB = 0;
  1627  0122  0186               	clrf	(134)^080h	;volatile
  1628                           	line	26
  1629                           	
  1630  0123                     l6193:	
  1631                           ;ADC_EXMAPLE.c: 26: ADCON1 = 3;
  1632  0123  3003               	movlw	(03h)
  1633  0124  009F               	movwf	(159)^080h	;volatile
  1634                           	line	27
  1635                           	
  1636  0125                     l6195:	
  1637                           ;ADC_EXMAPLE.c: 27: TRISA = 0xFF;
  1638  0125  30FF               	movlw	(0FFh)
  1639  0126  0085               	movwf	(133)^080h	;volatile
  1640                           	line	28
  1641                           	
  1642  0127                     l6197:	
  1643                           ;ADC_EXMAPLE.c: 28: TRISC7=1;
  1644  0127  1787               	bsf	(1087/8)^080h,(1087)&7
  1645                           	line	29
  1646                           	
  1647  0128                     l6199:	
  1648                           ;ADC_EXMAPLE.c: 29: TRISC6=0;
  1649  0128  1307               	bcf	(1086/8)^080h,(1086)&7
  1650                           	line	30
  1651                           	
  1652  0129                     l6201:	
  1653                           ;ADC_EXMAPLE.c: 30: DelaySec(1);
  1654  0129  3001               	movlw	low(01h)
  1655  012A  00F4               	movwf	(?_DelaySec)
  1656  012B  3000               	movlw	high(01h)
  1657  012C  00F5               	movwf	((?_DelaySec))+1
  1658  012D  160A  118A  27BF   	fcall	_DelaySec
              120A  118A         
  1659                           	line	33
  1660                           	
  1661  0132                     l6203:	
  1662                           ;ADC_EXMAPLE.c: 33: lcd_init();
  1663  0132  120A  158A  2207   	fcall	_lcd_init
              120A  118A         
  1664                           	line	34
  1665                           	
  1666  0137                     l6205:	
  1667                           ;ADC_EXMAPLE.c: 34: lcd_clear();
  1668  0137  160A  118A  2744   	fcall	_lcd_clear
              120A  118A         
  1669                           	line	35
  1670                           	
  1671  013C                     l6207:	
  1672                           ;ADC_EXMAPLE.c: 35: lcd_puts("Starting...");
  1673  013C  3048               	movlw	low((STR_1-__stringbase))
  1674  013D  00F3               	movwf	(?_lcd_puts)
  1675  013E  3080               	movlw	80h
  1676  013F  00F4               	movwf	(?_lcd_puts+1)
  1677  0140  120A  158A  20C6   	fcall	_lcd_puts
              120A  118A         
  1678                           	line	36
  1679                           	
  1680  0145                     l6209:	
  1681                           ;ADC_EXMAPLE.c: 36: DelayMs(1000);
  1682  0145  30E8               	movlw	(0E8h)
  1683  0146  160A  118A  27DF   	fcall	_DelayMs
              120A  118A         
  1684                           	line	38
  1685                           	
  1686  014B                     l6211:	
  1687                           ;ADC_EXMAPLE.c: 38: nRBPU = 0;
  1688  014B  1683               	bsf	status, 5	;RP0=1, select bank1
  1689  014C  1303               	bcf	status, 6	;RP1=0, select bank1
  1690  014D  1381               	bcf	(1039/8)^080h,(1039)&7
  1691                           	line	41
  1692                           	
  1693  014E                     l6213:	
  1694                           ;ADC_EXMAPLE.c: 41: init_a2d();
  1695  014E  160A  118A  272C   	fcall	_init_a2d
              120A  118A         
  1696                           	line	42
  1697                           	
  1698  0153                     l6215:	
  1699                           ;ADC_EXMAPLE.c: 42: DelayMs(500);
  1700  0153  30F4               	movlw	(0F4h)
  1701  0154  160A  118A  27DF   	fcall	_DelayMs
              120A  118A         
  1702                           	line	44
  1703                           	
  1704  0159                     l6217:	
  1705                           ;ADC_EXMAPLE.c: 44: lcd_clear();
  1706  0159  160A  118A  2744   	fcall	_lcd_clear
              120A  118A         
  1707                           	line	45
  1708                           	
  1709  015E                     l6219:	
  1710                           ;ADC_EXMAPLE.c: 45: GIE=0;
  1711  015E  138B               	bcf	(95/8),(95)&7
  1712  015F  2960               	goto	l6221
  1713                           	line	46
  1714                           ;ADC_EXMAPLE.c: 46: while ( 1 ) {
  1715                           	
  1716  0160                     l707:	
  1717                           	line	48
  1718                           	
  1719  0160                     l6221:	
  1720                           ;ADC_EXMAPLE.c: 48: DelayMs(100);
  1721  0160  3064               	movlw	(064h)
  1722  0161  160A  118A  27DF   	fcall	_DelayMs
              120A  118A         
  1723                           	line	49
  1724                           	
  1725  0166                     l6223:	
  1726                           ;ADC_EXMAPLE.c: 49: lcd_goto(0);
  1727  0166  3000               	movlw	(0)
  1728  0167  120A  118A  2006   	fcall	_lcd_goto
              120A  118A         
  1729                           	line	52
  1730                           	
  1731  016C                     l6225:	
  1732                           ;ADC_EXMAPLE.c: 52: x= read_a2d(0);
  1733  016C  3000               	movlw	(0)
  1734  016D  120A  118A  2012   	fcall	_read_a2d
              120A  118A         
  1735  0172  1283               	bcf	status, 5	;RP0=0, select bank0
  1736  0173  1303               	bcf	status, 6	;RP1=0, select bank0
  1737  0174  0824               	movf	(0+(?_read_a2d)),w
  1738  0175  1683               	bsf	status, 5	;RP0=1, select bank1
  1739  0176  1303               	bcf	status, 6	;RP1=0, select bank1
  1740  0177  00B8               	movwf	(_x)^080h
  1741  0178  1283               	bcf	status, 5	;RP0=0, select bank0
  1742  0179  1303               	bcf	status, 6	;RP1=0, select bank0
  1743  017A  0825               	movf	(1+(?_read_a2d)),w
  1744  017B  1683               	bsf	status, 5	;RP0=1, select bank1
  1745  017C  1303               	bcf	status, 6	;RP1=0, select bank1
  1746  017D  00B9               	movwf	(_x+1)^080h
  1747  017E  1283               	bcf	status, 5	;RP0=0, select bank0
  1748  017F  1303               	bcf	status, 6	;RP1=0, select bank0
  1749  0180  0826               	movf	(2+(?_read_a2d)),w
  1750  0181  1683               	bsf	status, 5	;RP0=1, select bank1
  1751  0182  1303               	bcf	status, 6	;RP1=0, select bank1
  1752  0183  00BA               	movwf	(_x+2)^080h
  1753                           	line	53
  1754                           	
  1755  0184                     l6227:	
  1756                           ;ADC_EXMAPLE.c: 53: x = x/51.0;
  1757  0184  3000               	movlw	0x0
  1758  0185  00F8               	movwf	(?___ftdiv)
  1759  0186  304C               	movlw	0x4c
  1760  0187  00F9               	movwf	(?___ftdiv+1)
  1761  0188  3042               	movlw	0x42
  1762  0189  00FA               	movwf	(?___ftdiv+2)
  1763  018A  0838               	movf	(_x)^080h,w
  1764  018B  00FB               	movwf	0+(?___ftdiv)+03h
  1765  018C  0839               	movf	(_x+1)^080h,w
  1766  018D  00FC               	movwf	1+(?___ftdiv)+03h
  1767  018E  083A               	movf	(_x+2)^080h,w
  1768  018F  00FD               	movwf	2+(?___ftdiv)+03h
  1769  0190  120A  158A  273A   	fcall	___ftdiv
              120A  118A         
  1770  0195  0878               	movf	(0+(?___ftdiv)),w
  1771  0196  1683               	bsf	status, 5	;RP0=1, select bank1
  1772  0197  1303               	bcf	status, 6	;RP1=0, select bank1
  1773  0198  00B8               	movwf	(_x)^080h
  1774  0199  0879               	movf	(1+(?___ftdiv)),w
  1775  019A  00B9               	movwf	(_x+1)^080h
  1776  019B  087A               	movf	(2+(?___ftdiv)),w
  1777  019C  00BA               	movwf	(_x+2)^080h
  1778                           	line	55
  1779                           	
  1780  019D                     l6229:	
  1781                           ;ADC_EXMAPLE.c: 55: ftoa(x, str, 2);
  1782  019D  0838               	movf	(_x)^080h,w
  1783  019E  00A8               	movwf	(?_ftoa)^080h
  1784  019F  0839               	movf	(_x+1)^080h,w
  1785  01A0  00A9               	movwf	(?_ftoa+1)^080h
  1786  01A1  083A               	movf	(_x+2)^080h,w
  1787  01A2  00AA               	movwf	(?_ftoa+2)^080h
  1788  01A3  30BB               	movlw	(_str)&0ffh
  1789  01A4  1283               	bcf	status, 5	;RP0=0, select bank0
  1790  01A5  1303               	bcf	status, 6	;RP1=0, select bank0
  1791  01A6  00ED               	movwf	(??_main+0)+0
  1792  01A7  086D               	movf	(??_main+0)+0,w
  1793  01A8  1683               	bsf	status, 5	;RP0=1, select bank1
  1794  01A9  1303               	bcf	status, 6	;RP1=0, select bank1
  1795  01AA  00AB               	movwf	(0+?_ftoa+03h)^080h
  1796  01AB  3002               	movlw	low(02h)
  1797  01AC  00AC               	movwf	0+(?_ftoa)^080h+04h
  1798  01AD  3000               	movlw	high(02h)
  1799  01AE  00AD               	movwf	(0+(?_ftoa)^080h+04h)+1
  1800  01AF  120A  118A  2419   	fcall	_ftoa
              120A  118A         
  1801                           	line	57
  1802                           	
  1803  01B4                     l6231:	
  1804                           ;ADC_EXMAPLE.c: 57: lcd_puts(str);
  1805  01B4  30BB               	movlw	(_str&0ffh)
  1806  01B5  00F3               	movwf	(?_lcd_puts)
  1807  01B6  3000               	movlw	(0x1/2)
  1808  01B7  00F4               	movwf	(?_lcd_puts+1)
  1809  01B8  120A  158A  20C6   	fcall	_lcd_puts
              120A  118A         
  1810                           	line	58
  1811                           	
  1812  01BD                     l6233:	
  1813                           ;ADC_EXMAPLE.c: 58: if(x > 2.0){
  1814  01BD  3000               	movlw	0x0
  1815  01BE  00F0               	movwf	(?___ftge)
  1816  01BF  3000               	movlw	0x0
  1817  01C0  00F1               	movwf	(?___ftge+1)
  1818  01C1  3040               	movlw	0x40
  1819  01C2  00F2               	movwf	(?___ftge+2)
  1820  01C3  1683               	bsf	status, 5	;RP0=1, select bank1
  1821  01C4  1303               	bcf	status, 6	;RP1=0, select bank1
  1822  01C5  0838               	movf	(_x)^080h,w
  1823  01C6  00F3               	movwf	0+(?___ftge)+03h
  1824  01C7  0839               	movf	(_x+1)^080h,w
  1825  01C8  00F4               	movwf	1+(?___ftge)+03h
  1826  01C9  083A               	movf	(_x+2)^080h,w
  1827  01CA  00F5               	movwf	2+(?___ftge)+03h
  1828  01CB  120A  158A  22C8   	fcall	___ftge
              120A  118A         
  1829  01D0  1803               	btfsc	status,0
  1830  01D1  29D3               	goto	u4121
  1831  01D2  29D4               	goto	u4120
  1832  01D3                     u4121:
  1833  01D3  29EC               	goto	l6243
  1834  01D4                     u4120:
  1835                           	line	59
  1836                           	
  1837  01D4                     l6235:	
  1838                           ;ADC_EXMAPLE.c: 59: lcd_clear();
  1839  01D4  160A  118A  2744   	fcall	_lcd_clear
              120A  118A         
  1840                           	line	60
  1841                           	
  1842  01D9                     l6237:	
  1843                           ;ADC_EXMAPLE.c: 60: lcd_puts("bigger 2.0");
  1844  01D9  3054               	movlw	low((STR_2-__stringbase))
  1845  01DA  00F3               	movwf	(?_lcd_puts)
  1846  01DB  3080               	movlw	80h
  1847  01DC  00F4               	movwf	(?_lcd_puts+1)
  1848  01DD  120A  158A  20C6   	fcall	_lcd_puts
              120A  118A         
  1849                           	line	61
  1850                           	
  1851  01E2                     l6239:	
  1852                           ;ADC_EXMAPLE.c: 61: DelayMs(1000);
  1853  01E2  30E8               	movlw	(0E8h)
  1854  01E3  160A  118A  27DF   	fcall	_DelayMs
              120A  118A         
  1855                           	line	62
  1856                           	
  1857  01E8                     l6241:	
  1858                           ;ADC_EXMAPLE.c: 62: RB1 = 1;
  1859  01E8  1283               	bcf	status, 5	;RP0=0, select bank0
  1860  01E9  1303               	bcf	status, 6	;RP1=0, select bank0
  1861  01EA  1486               	bsf	(49/8),(49)&7
  1862                           	line	63
  1863                           ;ADC_EXMAPLE.c: 63: }
  1864  01EB  2960               	goto	l6221
  1865                           	line	64
  1866                           	
  1867  01EC                     l708:	
  1868                           	line	65
  1869                           	
  1870  01EC                     l6243:	
  1871                           ;ADC_EXMAPLE.c: 64: else {
  1872                           ;ADC_EXMAPLE.c: 65: lcd_puts("less than 2.0");
  1873  01EC  303A               	movlw	low((STR_3-__stringbase))
  1874  01ED  00F3               	movwf	(?_lcd_puts)
  1875  01EE  3080               	movlw	80h
  1876  01EF  00F4               	movwf	(?_lcd_puts+1)
  1877  01F0  120A  158A  20C6   	fcall	_lcd_puts
              120A  118A         
  1878                           	line	66
  1879                           	
  1880  01F5                     l6245:	
  1881                           ;ADC_EXMAPLE.c: 66: DelayMs(100);
  1882  01F5  3064               	movlw	(064h)
  1883  01F6  160A  118A  27DF   	fcall	_DelayMs
              120A  118A         
  1884                           	line	67
  1885                           	
  1886  01FB                     l6247:	
  1887                           ;ADC_EXMAPLE.c: 67: RB1 = 0;
  1888  01FB  1283               	bcf	status, 5	;RP0=0, select bank0
  1889  01FC  1303               	bcf	status, 6	;RP1=0, select bank0
  1890  01FD  1086               	bcf	(49/8),(49)&7
  1891  01FE  2960               	goto	l6221
  1892                           	line	69
  1893                           	
  1894  01FF                     l709:	
  1895  01FF  2960               	goto	l6221
  1896                           	line	71
  1897                           	
  1898  0200                     l710:	
  1899                           	line	46
  1900  0200  2960               	goto	l6221
  1901                           	
  1902  0201                     l711:	
  1903                           	line	73
  1904                           	
  1905  0201                     l712:	
  1906                           	global	start
  1907  0201  120A  118A  2800   	ljmp	start
  1908                           	opt stack 0
  1909                           GLOBAL	__end_of_main
  1910  0204                     	__end_of_main:
  1911 ;; =============== function _main ends ============
  1912                           
  1913                           	signat	_main,88
  1914                           	global	_ftoa
  1915                           psect	text743,local,class=CODE,delta=2
  1916                           global __ptext743
  1917  0419                     __ptext743:
  1918                           
  1919 ;; *************** function _ftoa *****************
  1920 ;; Defined at:
  1921 ;;		line 44 in file "C:\Users\abdal\Desktop\University\Year 4\Second Semester\Real Time Lab\Experiments and Codes\exp3\S
       erial-Requirements\Codes\string.c"
  1922 ;; Parameters:    Size  Location     Type
  1923 ;;  n               3    8[BANK1 ] float 
  1924 ;;  res             1   11[BANK1 ] PTR unsigned char 
  1925 ;;		 -> str(10), 
  1926 ;;  afterpoint      2   12[BANK1 ] int 
  1927 ;; Auto vars:     Size  Location     Type
  1928 ;;  fpart           3   21[BANK1 ] float 
  1929 ;;  i               2   19[BANK1 ] int 
  1930 ;;  ipart           2   17[BANK1 ] int 
  1931 ;; Return value:  Size  Location     Type
  1932 ;;		None               void
  1933 ;; Registers used:
  1934 ;;		wreg, fsr0l, fsr0h, status,2, status,0, btemp+1, pclath, cstack
  1935 ;; Tracked objects:
  1936 ;;		On entry : 0/0
  1937 ;;		On exit  : 0/0
  1938 ;;		Unchanged: 0/0
  1939 ;; Data sizes:     COMMON   BANK0   BANK1   BANK3   BANK2
  1940 ;;      Params:         0       0       6       0       0
  1941 ;;      Locals:         0       0      10       0       0
  1942 ;;      Temps:          0       2       0       0       0
  1943 ;;      Totals:         0       2      16       0       0
  1944 ;;Total ram usage:       18 bytes
  1945 ;; Hardware stack levels used:    1
  1946 ;; Hardware stack levels required when called:    5
  1947 ;; This function calls:
  1948 ;;		___fttol
  1949 ;;		___awtoft
  1950 ;;		___ftneg
  1951 ;;		___ftadd
  1952 ;;		_intToStr
  1953 ;;		_pow
  1954 ;;		___ftmul
  1955 ;; This function is called by:
  1956 ;;		_main
  1957 ;; This function uses a non-reentrant model
  1958 ;;
  1959                           psect	text743
  1960                           	file	"C:\Users\abdal\Desktop\University\Year 4\Second Semester\Real Time Lab\Experiment
                                 s and Codes\exp3\Serial-Requirements\Codes\string.c"
  1961                           	line	44
  1962                           	global	__size_of_ftoa
  1963  013A                     	__size_of_ftoa	equ	__end_of_ftoa-_ftoa
  1964                           	
  1965  0419                     _ftoa:	
  1966                           	opt	stack 2
  1967                           ; Regs used in _ftoa: [wreg-fsr0h+status,2+status,0+btemp+1+pclath+cstack]
  1968                           	line	46
  1969                           	
  1970  0419                     l6177:	
  1971                           ;string.c: 46: int ipart = (int)n;
  1972  0419  1683               	bsf	status, 5	;RP0=1, select bank1
  1973  041A  1303               	bcf	status, 6	;RP1=0, select bank1
  1974  041B  0828               	movf	(ftoa@n)^080h,w
  1975  041C  00F0               	movwf	(?___fttol)
  1976  041D  0829               	movf	(ftoa@n+1)^080h,w
  1977  041E  00F1               	movwf	(?___fttol+1)
  1978  041F  082A               	movf	(ftoa@n+2)^080h,w
  1979  0420  00F2               	movwf	(?___fttol+2)
  1980  0421  120A  158A  252A   	fcall	___fttol
              120A  118A         
  1981  0426  0871               	movf	1+(((0+(?___fttol)))),w
  1982  0427  1683               	bsf	status, 5	;RP0=1, select bank1
  1983  0428  1303               	bcf	status, 6	;RP1=0, select bank1
  1984  0429  01B2               	clrf	(ftoa@ipart+1)^080h
  1985  042A  07B2               	addwf	(ftoa@ipart+1)^080h
  1986  042B  0870               	movf	0+(((0+(?___fttol)))),w
  1987  042C  01B1               	clrf	(ftoa@ipart)^080h
  1988  042D  07B1               	addwf	(ftoa@ipart)^080h
  1989                           
  1990                           	line	49
  1991                           ;string.c: 49: float fpart = n - (float)ipart;
  1992  042E  0828               	movf	(ftoa@n)^080h,w
  1993  042F  1283               	bcf	status, 5	;RP0=0, select bank0
  1994  0430  1303               	bcf	status, 6	;RP1=0, select bank0
  1995  0431  00B3               	movwf	(?___ftadd)
  1996  0432  1683               	bsf	status, 5	;RP0=1, select bank1
  1997  0433  1303               	bcf	status, 6	;RP1=0, select bank1
  1998  0434  0829               	movf	(ftoa@n+1)^080h,w
  1999  0435  1283               	bcf	status, 5	;RP0=0, select bank0
  2000  0436  1303               	bcf	status, 6	;RP1=0, select bank0
  2001  0437  00B4               	movwf	(?___ftadd+1)
  2002  0438  1683               	bsf	status, 5	;RP0=1, select bank1
  2003  0439  1303               	bcf	status, 6	;RP1=0, select bank1
  2004  043A  082A               	movf	(ftoa@n+2)^080h,w
  2005  043B  1283               	bcf	status, 5	;RP0=0, select bank0
  2006  043C  1303               	bcf	status, 6	;RP1=0, select bank0
  2007  043D  00B5               	movwf	(?___ftadd+2)
  2008  043E  1683               	bsf	status, 5	;RP0=1, select bank1
  2009  043F  1303               	bcf	status, 6	;RP1=0, select bank1
  2010  0440  0832               	movf	(ftoa@ipart+1)^080h,w
  2011  0441  01FC               	clrf	(?___awtoft+1)
  2012  0442  07FC               	addwf	(?___awtoft+1)
  2013  0443  0831               	movf	(ftoa@ipart)^080h,w
  2014  0444  01FB               	clrf	(?___awtoft)
  2015  0445  07FB               	addwf	(?___awtoft)
  2016                           
  2017  0446  120A  158A  209C   	fcall	___awtoft
              120A  118A         
  2018  044B  087B               	movf	(0+(?___awtoft)),w
  2019  044C  00F8               	movwf	(?___ftneg)
  2020  044D  087C               	movf	(1+(?___awtoft)),w
  2021  044E  00F9               	movwf	(?___ftneg+1)
  2022  044F  087D               	movf	(2+(?___awtoft)),w
  2023  0450  00FA               	movwf	(?___ftneg+2)
  2024  0451  160A  118A  2738   	fcall	___ftneg
              120A  118A         
  2025  0456  0878               	movf	(0+(?___ftneg)),w
  2026  0457  1283               	bcf	status, 5	;RP0=0, select bank0
  2027  0458  1303               	bcf	status, 6	;RP1=0, select bank0
  2028  0459  00B6               	movwf	0+(?___ftadd)+03h
  2029  045A  0879               	movf	(1+(?___ftneg)),w
  2030  045B  00B7               	movwf	1+(?___ftadd)+03h
  2031  045C  087A               	movf	(2+(?___ftneg)),w
  2032  045D  00B8               	movwf	2+(?___ftadd)+03h
  2033  045E  120A  118A  2553   	fcall	___ftadd
              120A  118A         
  2034  0463  1283               	bcf	status, 5	;RP0=0, select bank0
  2035  0464  1303               	bcf	status, 6	;RP1=0, select bank0
  2036  0465  0833               	movf	(0+(?___ftadd)),w
  2037  0466  1683               	bsf	status, 5	;RP0=1, select bank1
  2038  0467  1303               	bcf	status, 6	;RP1=0, select bank1
  2039  0468  00B5               	movwf	(ftoa@fpart)^080h
  2040  0469  1283               	bcf	status, 5	;RP0=0, select bank0
  2041  046A  1303               	bcf	status, 6	;RP1=0, select bank0
  2042  046B  0834               	movf	(1+(?___ftadd)),w
  2043  046C  1683               	bsf	status, 5	;RP0=1, select bank1
  2044  046D  1303               	bcf	status, 6	;RP1=0, select bank1
  2045  046E  00B6               	movwf	(ftoa@fpart+1)^080h
  2046  046F  1283               	bcf	status, 5	;RP0=0, select bank0
  2047  0470  1303               	bcf	status, 6	;RP1=0, select bank0
  2048  0471  0835               	movf	(2+(?___ftadd)),w
  2049  0472  1683               	bsf	status, 5	;RP0=1, select bank1
  2050  0473  1303               	bcf	status, 6	;RP1=0, select bank1
  2051  0474  00B7               	movwf	(ftoa@fpart+2)^080h
  2052                           	line	52
  2053                           	
  2054  0475                     l6179:	
  2055                           ;string.c: 52: int i = intToStr(ipart, res, 0);
  2056  0475  0832               	movf	(ftoa@ipart+1)^080h,w
  2057  0476  1283               	bcf	status, 5	;RP0=0, select bank0
  2058  0477  1303               	bcf	status, 6	;RP1=0, select bank0
  2059  0478  01A1               	clrf	(?_intToStr+1)
  2060  0479  07A1               	addwf	(?_intToStr+1)
  2061  047A  1683               	bsf	status, 5	;RP0=1, select bank1
  2062  047B  1303               	bcf	status, 6	;RP1=0, select bank1
  2063  047C  0831               	movf	(ftoa@ipart)^080h,w
  2064  047D  1283               	bcf	status, 5	;RP0=0, select bank0
  2065  047E  1303               	bcf	status, 6	;RP1=0, select bank0
  2066  047F  01A0               	clrf	(?_intToStr)
  2067  0480  07A0               	addwf	(?_intToStr)
  2068                           
  2069  0481  1683               	bsf	status, 5	;RP0=1, select bank1
  2070  0482  1303               	bcf	status, 6	;RP1=0, select bank1
  2071  0483  082B               	movf	(ftoa@res)^080h,w
  2072  0484  1283               	bcf	status, 5	;RP0=0, select bank0
  2073  0485  1303               	bcf	status, 6	;RP1=0, select bank0
  2074  0486  00EB               	movwf	(??_ftoa+0)+0
  2075  0487  086B               	movf	(??_ftoa+0)+0,w
  2076  0488  00A2               	movwf	(0+?_intToStr+02h)
  2077  0489  3000               	movlw	low(0)
  2078  048A  00A3               	movwf	0+(?_intToStr)+03h
  2079  048B  3000               	movlw	high(0)
  2080  048C  00A4               	movwf	(0+(?_intToStr)+03h)+1
  2081  048D  120A  158A  24A2   	fcall	_intToStr
              120A  118A         
  2082  0492  1283               	bcf	status, 5	;RP0=0, select bank0
  2083  0493  1303               	bcf	status, 6	;RP1=0, select bank0
  2084  0494  0821               	movf	(1+(?_intToStr)),w
  2085  0495  1683               	bsf	status, 5	;RP0=1, select bank1
  2086  0496  1303               	bcf	status, 6	;RP1=0, select bank1
  2087  0497  01B4               	clrf	(ftoa@i+1)^080h
  2088  0498  07B4               	addwf	(ftoa@i+1)^080h
  2089  0499  1283               	bcf	status, 5	;RP0=0, select bank0
  2090  049A  1303               	bcf	status, 6	;RP1=0, select bank0
  2091  049B  0820               	movf	(0+(?_intToStr)),w
  2092  049C  1683               	bsf	status, 5	;RP0=1, select bank1
  2093  049D  1303               	bcf	status, 6	;RP1=0, select bank1
  2094  049E  01B3               	clrf	(ftoa@i)^080h
  2095  049F  07B3               	addwf	(ftoa@i)^080h
  2096                           
  2097                           	line	55
  2098                           	
  2099  04A0                     l6181:	
  2100                           ;string.c: 55: if (afterpoint != 0)
  2101  04A0  082D               	movf	(ftoa@afterpoint+1)^080h,w
  2102  04A1  042C               	iorwf	(ftoa@afterpoint)^080h,w
  2103  04A2  1903               	skipnz
  2104  04A3  2CA5               	goto	u4111
  2105  04A4  2CA6               	goto	u4110
  2106  04A5                     u4111:
  2107  04A5  2D52               	goto	l2157
  2108  04A6                     u4110:
  2109                           	line	57
  2110                           	
  2111  04A6                     l6183:	
  2112                           ;string.c: 56: {
  2113                           ;string.c: 57: res[i] = '.';
  2114  04A6  302E               	movlw	(02Eh)
  2115  04A7  1283               	bcf	status, 5	;RP0=0, select bank0
  2116  04A8  1303               	bcf	status, 6	;RP1=0, select bank0
  2117  04A9  00EB               	movwf	(??_ftoa+0)+0
  2118  04AA  1683               	bsf	status, 5	;RP0=1, select bank1
  2119  04AB  1303               	bcf	status, 6	;RP1=0, select bank1
  2120  04AC  0833               	movf	(ftoa@i)^080h,w
  2121  04AD  072B               	addwf	(ftoa@res)^080h,w
  2122  04AE  1283               	bcf	status, 5	;RP0=0, select bank0
  2123  04AF  1303               	bcf	status, 6	;RP1=0, select bank0
  2124  04B0  00EC               	movwf	(??_ftoa+1)+0
  2125  04B1  086C               	movf	0+(??_ftoa+1)+0,w
  2126  04B2  0084               	movwf	fsr0
  2127  04B3  086B               	movf	(??_ftoa+0)+0,w
  2128  04B4  1383               	bcf	status, 7	;select IRP bank0
  2129  04B5  0080               	movwf	indf
  2130                           	line	62
  2131                           	
  2132  04B6                     l6185:	
  2133                           ;string.c: 62: fpart = fpart * pow(10, afterpoint);
  2134  04B6  1683               	bsf	status, 5	;RP0=1, select bank1
  2135  04B7  1303               	bcf	status, 6	;RP1=0, select bank1
  2136  04B8  082D               	movf	(ftoa@afterpoint+1)^080h,w
  2137  04B9  01FC               	clrf	(?___awtoft+1)
  2138  04BA  07FC               	addwf	(?___awtoft+1)
  2139  04BB  082C               	movf	(ftoa@afterpoint)^080h,w
  2140  04BC  01FB               	clrf	(?___awtoft)
  2141  04BD  07FB               	addwf	(?___awtoft)
  2142                           
  2143  04BE  120A  158A  209C   	fcall	___awtoft
              120A  118A         
  2144  04C3  087B               	movf	(0+(?___awtoft)),w
  2145  04C4  1283               	bcf	status, 5	;RP0=0, select bank0
  2146  04C5  1303               	bcf	status, 6	;RP1=0, select bank0
  2147  04C6  00E7               	movwf	0+(?_pow)+03h
  2148  04C7  087C               	movf	(1+(?___awtoft)),w
  2149  04C8  00E8               	movwf	1+(?_pow)+03h
  2150  04C9  087D               	movf	(2+(?___awtoft)),w
  2151  04CA  00E9               	movwf	2+(?_pow)+03h
  2152  04CB  3000               	movlw	0x0
  2153  04CC  00E4               	movwf	(?_pow)
  2154  04CD  3020               	movlw	0x20
  2155  04CE  00E5               	movwf	(?_pow+1)
  2156  04CF  3041               	movlw	0x41
  2157  04D0  00E6               	movwf	(?_pow+2)
  2158  04D1  120A  118A  22F2   	fcall	_pow
              120A  118A         
  2159  04D6  1283               	bcf	status, 5	;RP0=0, select bank0
  2160  04D7  1303               	bcf	status, 6	;RP1=0, select bank0
  2161  04D8  0864               	movf	(0+(?_pow)),w
  2162  04D9  1683               	bsf	status, 5	;RP0=1, select bank1
  2163  04DA  1303               	bcf	status, 6	;RP1=0, select bank1
  2164  04DB  00AE               	movwf	(_ftoa$3805)^080h
  2165  04DC  1283               	bcf	status, 5	;RP0=0, select bank0
  2166  04DD  1303               	bcf	status, 6	;RP1=0, select bank0
  2167  04DE  0865               	movf	(1+(?_pow)),w
  2168  04DF  1683               	bsf	status, 5	;RP0=1, select bank1
  2169  04E0  1303               	bcf	status, 6	;RP1=0, select bank1
  2170  04E1  00AF               	movwf	(_ftoa$3805+1)^080h
  2171  04E2  1283               	bcf	status, 5	;RP0=0, select bank0
  2172  04E3  1303               	bcf	status, 6	;RP1=0, select bank0
  2173  04E4  0866               	movf	(2+(?_pow)),w
  2174  04E5  1683               	bsf	status, 5	;RP0=1, select bank1
  2175  04E6  1303               	bcf	status, 6	;RP1=0, select bank1
  2176  04E7  00B0               	movwf	(_ftoa$3805+2)^080h
  2177                           	
  2178  04E8                     l6187:	
  2179                           ;string.c: 62: fpart = fpart * pow(10, afterpoint);
  2180  04E8  0835               	movf	(ftoa@fpart)^080h,w
  2181  04E9  1283               	bcf	status, 5	;RP0=0, select bank0
  2182  04EA  1303               	bcf	status, 6	;RP1=0, select bank0
  2183  04EB  00A3               	movwf	(?___ftmul)
  2184  04EC  1683               	bsf	status, 5	;RP0=1, select bank1
  2185  04ED  1303               	bcf	status, 6	;RP1=0, select bank1
  2186  04EE  0836               	movf	(ftoa@fpart+1)^080h,w
  2187  04EF  1283               	bcf	status, 5	;RP0=0, select bank0
  2188  04F0  1303               	bcf	status, 6	;RP1=0, select bank0
  2189  04F1  00A4               	movwf	(?___ftmul+1)
  2190  04F2  1683               	bsf	status, 5	;RP0=1, select bank1
  2191  04F3  1303               	bcf	status, 6	;RP1=0, select bank1
  2192  04F4  0837               	movf	(ftoa@fpart+2)^080h,w
  2193  04F5  1283               	bcf	status, 5	;RP0=0, select bank0
  2194  04F6  1303               	bcf	status, 6	;RP1=0, select bank0
  2195  04F7  00A5               	movwf	(?___ftmul+2)
  2196  04F8  1683               	bsf	status, 5	;RP0=1, select bank1
  2197  04F9  1303               	bcf	status, 6	;RP1=0, select bank1
  2198  04FA  082E               	movf	(_ftoa$3805)^080h,w
  2199  04FB  1283               	bcf	status, 5	;RP0=0, select bank0
  2200  04FC  1303               	bcf	status, 6	;RP1=0, select bank0
  2201  04FD  00A6               	movwf	0+(?___ftmul)+03h
  2202  04FE  1683               	bsf	status, 5	;RP0=1, select bank1
  2203  04FF  1303               	bcf	status, 6	;RP1=0, select bank1
  2204  0500  082F               	movf	(_ftoa$3805+1)^080h,w
  2205  0501  1283               	bcf	status, 5	;RP0=0, select bank0
  2206  0502  1303               	bcf	status, 6	;RP1=0, select bank0
  2207  0503  00A7               	movwf	1+(?___ftmul)+03h
  2208  0504  1683               	bsf	status, 5	;RP0=1, select bank1
  2209  0505  1303               	bcf	status, 6	;RP1=0, select bank1
  2210  0506  0830               	movf	(_ftoa$3805+2)^080h,w
  2211  0507  1283               	bcf	status, 5	;RP0=0, select bank0
  2212  0508  1303               	bcf	status, 6	;RP1=0, select bank0
  2213  0509  00A8               	movwf	2+(?___ftmul)+03h
  2214  050A  120A  118A  2204   	fcall	___ftmul
              120A  118A         
  2215  050F  1283               	bcf	status, 5	;RP0=0, select bank0
  2216  0510  1303               	bcf	status, 6	;RP1=0, select bank0
  2217  0511  0823               	movf	(0+(?___ftmul)),w
  2218  0512  1683               	bsf	status, 5	;RP0=1, select bank1
  2219  0513  1303               	bcf	status, 6	;RP1=0, select bank1
  2220  0514  00B5               	movwf	(ftoa@fpart)^080h
  2221  0515  1283               	bcf	status, 5	;RP0=0, select bank0
  2222  0516  1303               	bcf	status, 6	;RP1=0, select bank0
  2223  0517  0824               	movf	(1+(?___ftmul)),w
  2224  0518  1683               	bsf	status, 5	;RP0=1, select bank1
  2225  0519  1303               	bcf	status, 6	;RP1=0, select bank1
  2226  051A  00B6               	movwf	(ftoa@fpart+1)^080h
  2227  051B  1283               	bcf	status, 5	;RP0=0, select bank0
  2228  051C  1303               	bcf	status, 6	;RP1=0, select bank0
  2229  051D  0825               	movf	(2+(?___ftmul)),w
  2230  051E  1683               	bsf	status, 5	;RP0=1, select bank1
  2231  051F  1303               	bcf	status, 6	;RP1=0, select bank1
  2232  0520  00B7               	movwf	(ftoa@fpart+2)^080h
  2233                           	line	64
  2234                           	
  2235  0521                     l6189:	
  2236                           ;string.c: 64: intToStr((int)fpart, res + i + 1, afterpoint);
  2237  0521  0835               	movf	(ftoa@fpart)^080h,w
  2238  0522  00F0               	movwf	(?___fttol)
  2239  0523  0836               	movf	(ftoa@fpart+1)^080h,w
  2240  0524  00F1               	movwf	(?___fttol+1)
  2241  0525  0837               	movf	(ftoa@fpart+2)^080h,w
  2242  0526  00F2               	movwf	(?___fttol+2)
  2243  0527  120A  158A  252A   	fcall	___fttol
              120A  118A         
  2244  052C  0871               	movf	1+(((0+(?___fttol)))),w
  2245  052D  1283               	bcf	status, 5	;RP0=0, select bank0
  2246  052E  1303               	bcf	status, 6	;RP1=0, select bank0
  2247  052F  01A1               	clrf	(?_intToStr+1)
  2248  0530  07A1               	addwf	(?_intToStr+1)
  2249  0531  0870               	movf	0+(((0+(?___fttol)))),w
  2250  0532  01A0               	clrf	(?_intToStr)
  2251  0533  07A0               	addwf	(?_intToStr)
  2252                           
  2253  0534  1683               	bsf	status, 5	;RP0=1, select bank1
  2254  0535  1303               	bcf	status, 6	;RP1=0, select bank1
  2255  0536  0833               	movf	(ftoa@i)^080h,w
  2256  0537  072B               	addwf	(ftoa@res)^080h,w
  2257  0538  3E01               	addlw	01h
  2258  0539  1283               	bcf	status, 5	;RP0=0, select bank0
  2259  053A  1303               	bcf	status, 6	;RP1=0, select bank0
  2260  053B  00EB               	movwf	(??_ftoa+0)+0
  2261  053C  086B               	movf	(??_ftoa+0)+0,w
  2262  053D  00A2               	movwf	(0+?_intToStr+02h)
  2263  053E  1683               	bsf	status, 5	;RP0=1, select bank1
  2264  053F  1303               	bcf	status, 6	;RP1=0, select bank1
  2265  0540  082D               	movf	(ftoa@afterpoint+1)^080h,w
  2266  0541  1283               	bcf	status, 5	;RP0=0, select bank0
  2267  0542  1303               	bcf	status, 6	;RP1=0, select bank0
  2268  0543  01A4               	clrf	1+(?_intToStr)+03h
  2269  0544  07A4               	addwf	1+(?_intToStr)+03h
  2270  0545  1683               	bsf	status, 5	;RP0=1, select bank1
  2271  0546  1303               	bcf	status, 6	;RP1=0, select bank1
  2272  0547  082C               	movf	(ftoa@afterpoint)^080h,w
  2273  0548  1283               	bcf	status, 5	;RP0=0, select bank0
  2274  0549  1303               	bcf	status, 6	;RP1=0, select bank0
  2275  054A  01A3               	clrf	0+(?_intToStr)+03h
  2276  054B  07A3               	addwf	0+(?_intToStr)+03h
  2277                           
  2278  054C  120A  158A  24A2   	fcall	_intToStr
              120A  118A         
  2279  0551  2D52               	goto	l2157
  2280                           	line	65
  2281                           	
  2282  0552                     l2156:	
  2283                           	line	66
  2284                           	
  2285  0552                     l2157:	
  2286  0552  0008               	return
  2287                           	opt stack 0
  2288                           GLOBAL	__end_of_ftoa
  2289  0553                     	__end_of_ftoa:
  2290 ;; =============== function _ftoa ends ============
  2291                           
  2292                           	signat	_ftoa,12408
  2293                           	global	_pow
  2294                           psect	text744,local,class=CODE,delta=2
  2295                           global __ptext744
  2296  02F2                     __ptext744:
  2297                           
  2298 ;; *************** function _pow *****************
  2299 ;; Defined at:
  2300 ;;		line 6 in file "C:\Program Files (x86)\HI-TECH Software\PICC\9.83\sources\pow.c"
  2301 ;; Parameters:    Size  Location     Type
  2302 ;;  x               3   68[BANK0 ] int 
  2303 ;;  y               3   71[BANK0 ] int 
  2304 ;; Auto vars:     Size  Location     Type
  2305 ;;  yi              4    4[BANK1 ] unsigned long 
  2306 ;;  sign            1    3[BANK1 ] unsigned char 
  2307 ;; Return value:  Size  Location     Type
  2308 ;;                  3   68[BANK0 ] unsigned char 
  2309 ;; Registers used:
  2310 ;;		wreg, fsr0l, fsr0h, status,2, status,0, btemp+1, pclath, cstack
  2311 ;; Tracked objects:
  2312 ;;		On entry : 0/0
  2313 ;;		On exit  : 0/0
  2314 ;;		Unchanged: 0/0
  2315 ;; Data sizes:     COMMON   BANK0   BANK1   BANK3   BANK2
  2316 ;;      Params:         0       6       0       0       0
  2317 ;;      Locals:         0       0       8       0       0
  2318 ;;      Temps:          0       1       0       0       0
  2319 ;;      Totals:         0       7       8       0       0
  2320 ;;Total ram usage:       15 bytes
  2321 ;; Hardware stack levels used:    1
  2322 ;; Hardware stack levels required when called:    4
  2323 ;; This function calls:
  2324 ;;		___ftge
  2325 ;;		___fttol
  2326 ;;		___lltoft
  2327 ;;		___ftneg
  2328 ;;		_log
  2329 ;;		___ftmul
  2330 ;;		_exp
  2331 ;; This function is called by:
  2332 ;;		_ftoa
  2333 ;; This function uses a non-reentrant model
  2334 ;;
  2335                           psect	text744
  2336                           	file	"C:\Program Files (x86)\HI-TECH Software\PICC\9.83\sources\pow.c"
  2337                           	line	6
  2338                           	global	__size_of_pow
  2339  0127                     	__size_of_pow	equ	__end_of_pow-_pow
  2340                           	
  2341  02F2                     _pow:	
  2342                           	opt	stack 2
  2343                           ; Regs used in _pow: [wreg-fsr0h+status,2+status,0+btemp+1+pclath+cstack]
  2344                           	line	7
  2345                           	
  2346  02F2                     l6139:	
  2347  02F2  1683               	bsf	status, 5	;RP0=1, select bank1
  2348  02F3  1303               	bcf	status, 6	;RP1=0, select bank1
  2349  02F4  01A3               	clrf	(pow@sign)^080h
  2350                           	line	10
  2351                           	
  2352  02F5                     l6141:	
  2353  02F5  1283               	bcf	status, 5	;RP0=0, select bank0
  2354  02F6  1303               	bcf	status, 6	;RP1=0, select bank0
  2355  02F7  0866               	movf	(pow@x+2),w
  2356  02F8  0465               	iorwf	(pow@x+1),w
  2357  02F9  0464               	iorwf	(pow@x),w
  2358  02FA  1D03               	skipz
  2359  02FB  2AFD               	goto	u4051
  2360  02FC  2AFE               	goto	u4050
  2361  02FD                     u4051:
  2362  02FD  2B23               	goto	l6149
  2363  02FE                     u4050:
  2364                           	line	11
  2365                           	
  2366  02FE                     l6143:	
  2367  02FE  3000               	movlw	0x0
  2368  02FF  00F0               	movwf	(?___ftge)
  2369  0300  3000               	movlw	0x0
  2370  0301  00F1               	movwf	(?___ftge+1)
  2371  0302  3000               	movlw	0x0
  2372  0303  00F2               	movwf	(?___ftge+2)
  2373  0304  0867               	movf	(pow@y),w
  2374  0305  00F3               	movwf	0+(?___ftge)+03h
  2375  0306  0868               	movf	(pow@y+1),w
  2376  0307  00F4               	movwf	1+(?___ftge)+03h
  2377  0308  0869               	movf	(pow@y+2),w
  2378  0309  00F5               	movwf	2+(?___ftge)+03h
  2379  030A  120A  158A  22C8   	fcall	___ftge
              120A  118A         
  2380  030F  1C03               	btfss	status,0
  2381  0310  2B12               	goto	u4061
  2382  0311  2B13               	goto	u4060
  2383  0312                     u4061:
  2384  0312  2B19               	goto	l2841
  2385  0313                     u4060:
  2386                           	line	12
  2387                           	
  2388  0313                     l6145:	
  2389  0313  3021               	movlw	low(021h)
  2390  0314  1283               	bcf	status, 5	;RP0=0, select bank0
  2391  0315  1303               	bcf	status, 6	;RP1=0, select bank0
  2392  0316  00EE               	movwf	(_errno)
  2393  0317  3000               	movlw	high(021h)
  2394  0318  00EF               	movwf	((_errno))+1
  2395                           	line	13
  2396                           	
  2397  0319                     l2841:	
  2398                           	line	14
  2399  0319  3000               	movlw	0x0
  2400  031A  1283               	bcf	status, 5	;RP0=0, select bank0
  2401  031B  1303               	bcf	status, 6	;RP1=0, select bank0
  2402  031C  00E4               	movwf	(?_pow)
  2403  031D  3000               	movlw	0x0
  2404  031E  00E5               	movwf	(?_pow+1)
  2405  031F  3000               	movlw	0x0
  2406  0320  00E6               	movwf	(?_pow+2)
  2407  0321  2C18               	goto	l2842
  2408                           	
  2409  0322                     l6147:	
  2410  0322  2C18               	goto	l2842
  2411                           	line	15
  2412                           	
  2413  0323                     l2840:	
  2414                           	line	16
  2415                           	
  2416  0323                     l6149:	
  2417  0323  0869               	movf	(pow@y+2),w
  2418  0324  0468               	iorwf	(pow@y+1),w
  2419  0325  0467               	iorwf	(pow@y),w
  2420  0326  1D03               	skipz
  2421  0327  2B29               	goto	u4071
  2422  0328  2B2A               	goto	u4070
  2423  0329                     u4071:
  2424  0329  2B32               	goto	l6155
  2425  032A                     u4070:
  2426                           	line	17
  2427                           	
  2428  032A                     l6151:	
  2429  032A  3000               	movlw	0x0
  2430  032B  00E4               	movwf	(?_pow)
  2431  032C  3080               	movlw	0x80
  2432  032D  00E5               	movwf	(?_pow+1)
  2433  032E  303F               	movlw	0x3f
  2434  032F  00E6               	movwf	(?_pow+2)
  2435  0330  2C18               	goto	l2842
  2436                           	
  2437  0331                     l6153:	
  2438  0331  2C18               	goto	l2842
  2439                           	
  2440  0332                     l2843:	
  2441                           	line	18
  2442                           	
  2443  0332                     l6155:	
  2444  0332  0864               	movf	(pow@x),w
  2445  0333  00F0               	movwf	(?___ftge)
  2446  0334  0865               	movf	(pow@x+1),w
  2447  0335  00F1               	movwf	(?___ftge+1)
  2448  0336  0866               	movf	(pow@x+2),w
  2449  0337  00F2               	movwf	(?___ftge+2)
  2450  0338  3000               	movlw	0x0
  2451  0339  00F3               	movwf	0+(?___ftge)+03h
  2452  033A  3000               	movlw	0x0
  2453  033B  00F4               	movwf	1+(?___ftge)+03h
  2454  033C  3000               	movlw	0x0
  2455  033D  00F5               	movwf	2+(?___ftge)+03h
  2456  033E  120A  158A  22C8   	fcall	___ftge
              120A  118A         
  2457  0343  1803               	btfsc	status,0
  2458  0344  2B46               	goto	u4081
  2459  0345  2B47               	goto	u4080
  2460  0346                     u4081:
  2461  0346  2BA8               	goto	l6167
  2462  0347                     u4080:
  2463                           	line	19
  2464                           	
  2465  0347                     l6157:	
  2466  0347  1283               	bcf	status, 5	;RP0=0, select bank0
  2467  0348  1303               	bcf	status, 6	;RP1=0, select bank0
  2468  0349  0867               	movf	(pow@y),w
  2469  034A  00F0               	movwf	(?___fttol)
  2470  034B  0868               	movf	(pow@y+1),w
  2471  034C  00F1               	movwf	(?___fttol+1)
  2472  034D  0869               	movf	(pow@y+2),w
  2473  034E  00F2               	movwf	(?___fttol+2)
  2474  034F  120A  158A  252A   	fcall	___fttol
              120A  118A         
  2475  0354  0873               	movf	(3+(?___fttol)),w
  2476  0355  1683               	bsf	status, 5	;RP0=1, select bank1
  2477  0356  1303               	bcf	status, 6	;RP1=0, select bank1
  2478  0357  00A7               	movwf	(pow@yi+3)^080h
  2479  0358  0872               	movf	(2+(?___fttol)),w
  2480  0359  00A6               	movwf	(pow@yi+2)^080h
  2481  035A  0871               	movf	(1+(?___fttol)),w
  2482  035B  00A5               	movwf	(pow@yi+1)^080h
  2483  035C  0870               	movf	(0+(?___fttol)),w
  2484  035D  00A4               	movwf	(pow@yi)^080h
  2485                           
  2486                           	line	20
  2487  035E  0827               	movf	(pow@yi+3)^080h,w
  2488  035F  00FB               	movwf	(?___lltoft+3)
  2489  0360  0826               	movf	(pow@yi+2)^080h,w
  2490  0361  00FA               	movwf	(?___lltoft+2)
  2491  0362  0825               	movf	(pow@yi+1)^080h,w
  2492  0363  00F9               	movwf	(?___lltoft+1)
  2493  0364  0824               	movf	(pow@yi)^080h,w
  2494  0365  00F8               	movwf	(?___lltoft)
  2495                           
  2496  0366  120A  158A  20F1   	fcall	___lltoft
              120A  118A         
  2497  036B  1283               	bcf	status, 5	;RP0=0, select bank0
  2498  036C  1303               	bcf	status, 6	;RP1=0, select bank0
  2499  036D  0869               	movf	(pow@y+2),w
  2500  036E  067A               	xorwf	(2+(?___lltoft)),w
  2501  036F  1D03               	skipz
  2502  0370  2B77               	goto	u4095
  2503  0371  0868               	movf	(pow@y+1),w
  2504  0372  0679               	xorwf	(1+(?___lltoft)),w
  2505  0373  1D03               	skipz
  2506  0374  2B77               	goto	u4095
  2507  0375  0867               	movf	(pow@y),w
  2508  0376  0678               	xorwf	(0+(?___lltoft)),w
  2509  0377                     u4095:
  2510  0377  1903               	skipnz
  2511  0378  2B7A               	goto	u4091
  2512  0379  2B7B               	goto	u4090
  2513  037A                     u4091:
  2514  037A  2B87               	goto	l6163
  2515  037B                     u4090:
  2516                           	line	21
  2517                           	
  2518  037B                     l6159:	
  2519  037B  3021               	movlw	low(021h)
  2520  037C  00EE               	movwf	(_errno)
  2521  037D  3000               	movlw	high(021h)
  2522  037E  00EF               	movwf	((_errno))+1
  2523                           	line	22
  2524  037F  3000               	movlw	0x0
  2525  0380  00E4               	movwf	(?_pow)
  2526  0381  3000               	movlw	0x0
  2527  0382  00E5               	movwf	(?_pow+1)
  2528  0383  3000               	movlw	0x0
  2529  0384  00E6               	movwf	(?_pow+2)
  2530  0385  2C18               	goto	l2842
  2531                           	
  2532  0386                     l6161:	
  2533  0386  2C18               	goto	l2842
  2534                           	line	23
  2535                           	
  2536  0387                     l2845:	
  2537                           	line	24
  2538                           	
  2539  0387                     l6163:	
  2540  0387  1683               	bsf	status, 5	;RP0=1, select bank1
  2541  0388  1303               	bcf	status, 6	;RP1=0, select bank1
  2542  0389  0824               	movf	(pow@yi)^080h,w
  2543  038A  3901               	andlw	01h
  2544  038B  1283               	bcf	status, 5	;RP0=0, select bank0
  2545  038C  1303               	bcf	status, 6	;RP1=0, select bank0
  2546  038D  00EA               	movwf	(??_pow+0)+0
  2547  038E  086A               	movf	(??_pow+0)+0,w
  2548  038F  1683               	bsf	status, 5	;RP0=1, select bank1
  2549  0390  1303               	bcf	status, 6	;RP1=0, select bank1
  2550  0391  00A3               	movwf	(pow@sign)^080h
  2551                           	line	25
  2552                           	
  2553  0392                     l6165:	
  2554  0392  1283               	bcf	status, 5	;RP0=0, select bank0
  2555  0393  1303               	bcf	status, 6	;RP1=0, select bank0
  2556  0394  0864               	movf	(pow@x),w
  2557  0395  00F8               	movwf	(?___ftneg)
  2558  0396  0865               	movf	(pow@x+1),w
  2559  0397  00F9               	movwf	(?___ftneg+1)
  2560  0398  0866               	movf	(pow@x+2),w
  2561  0399  00FA               	movwf	(?___ftneg+2)
  2562  039A  160A  118A  2738   	fcall	___ftneg
              120A  118A         
  2563  039F  0878               	movf	(0+(?___ftneg)),w
  2564  03A0  1283               	bcf	status, 5	;RP0=0, select bank0
  2565  03A1  1303               	bcf	status, 6	;RP1=0, select bank0
  2566  03A2  00E4               	movwf	(pow@x)
  2567  03A3  0879               	movf	(1+(?___ftneg)),w
  2568  03A4  00E5               	movwf	(pow@x+1)
  2569  03A5  087A               	movf	(2+(?___ftneg)),w
  2570  03A6  00E6               	movwf	(pow@x+2)
  2571  03A7  2BA8               	goto	l6167
  2572                           	line	26
  2573                           	
  2574  03A8                     l2844:	
  2575                           	line	27
  2576                           	
  2577  03A8                     l6167:	
  2578  03A8  1283               	bcf	status, 5	;RP0=0, select bank0
  2579  03A9  1303               	bcf	status, 6	;RP1=0, select bank0
  2580  03AA  0864               	movf	(pow@x),w
  2581  03AB  00D4               	movwf	(?_log)
  2582  03AC  0865               	movf	(pow@x+1),w
  2583  03AD  00D5               	movwf	(?_log+1)
  2584  03AE  0866               	movf	(pow@x+2),w
  2585  03AF  00D6               	movwf	(?_log+2)
  2586  03B0  120A  118A  204B   	fcall	_log
              120A  118A         
  2587  03B5  1283               	bcf	status, 5	;RP0=0, select bank0
  2588  03B6  1303               	bcf	status, 6	;RP1=0, select bank0
  2589  03B7  0854               	movf	(0+(?_log)),w
  2590  03B8  1683               	bsf	status, 5	;RP0=1, select bank1
  2591  03B9  1303               	bcf	status, 6	;RP1=0, select bank1
  2592  03BA  00A0               	movwf	(_pow$3806)^080h
  2593  03BB  1283               	bcf	status, 5	;RP0=0, select bank0
  2594  03BC  1303               	bcf	status, 6	;RP1=0, select bank0
  2595  03BD  0855               	movf	(1+(?_log)),w
  2596  03BE  1683               	bsf	status, 5	;RP0=1, select bank1
  2597  03BF  1303               	bcf	status, 6	;RP1=0, select bank1
  2598  03C0  00A1               	movwf	(_pow$3806+1)^080h
  2599  03C1  1283               	bcf	status, 5	;RP0=0, select bank0
  2600  03C2  1303               	bcf	status, 6	;RP1=0, select bank0
  2601  03C3  0856               	movf	(2+(?_log)),w
  2602  03C4  1683               	bsf	status, 5	;RP0=1, select bank1
  2603  03C5  1303               	bcf	status, 6	;RP1=0, select bank1
  2604  03C6  00A2               	movwf	(_pow$3806+2)^080h
  2605                           	
  2606  03C7                     l6169:	
  2607  03C7  1283               	bcf	status, 5	;RP0=0, select bank0
  2608  03C8  1303               	bcf	status, 6	;RP1=0, select bank0
  2609  03C9  0867               	movf	(pow@y),w
  2610  03CA  00A3               	movwf	(?___ftmul)
  2611  03CB  0868               	movf	(pow@y+1),w
  2612  03CC  00A4               	movwf	(?___ftmul+1)
  2613  03CD  0869               	movf	(pow@y+2),w
  2614  03CE  00A5               	movwf	(?___ftmul+2)
  2615  03CF  1683               	bsf	status, 5	;RP0=1, select bank1
  2616  03D0  1303               	bcf	status, 6	;RP1=0, select bank1
  2617  03D1  0820               	movf	(_pow$3806)^080h,w
  2618  03D2  1283               	bcf	status, 5	;RP0=0, select bank0
  2619  03D3  1303               	bcf	status, 6	;RP1=0, select bank0
  2620  03D4  00A6               	movwf	0+(?___ftmul)+03h
  2621  03D5  1683               	bsf	status, 5	;RP0=1, select bank1
  2622  03D6  1303               	bcf	status, 6	;RP1=0, select bank1
  2623  03D7  0821               	movf	(_pow$3806+1)^080h,w
  2624  03D8  1283               	bcf	status, 5	;RP0=0, select bank0
  2625  03D9  1303               	bcf	status, 6	;RP1=0, select bank0
  2626  03DA  00A7               	movwf	1+(?___ftmul)+03h
  2627  03DB  1683               	bsf	status, 5	;RP0=1, select bank1
  2628  03DC  1303               	bcf	status, 6	;RP1=0, select bank1
  2629  03DD  0822               	movf	(_pow$3806+2)^080h,w
  2630  03DE  1283               	bcf	status, 5	;RP0=0, select bank0
  2631  03DF  1303               	bcf	status, 6	;RP1=0, select bank0
  2632  03E0  00A8               	movwf	2+(?___ftmul)+03h
  2633  03E1  120A  118A  2204   	fcall	___ftmul
              120A  118A         
  2634  03E6  1283               	bcf	status, 5	;RP0=0, select bank0
  2635  03E7  1303               	bcf	status, 6	;RP1=0, select bank0
  2636  03E8  0823               	movf	(0+(?___ftmul)),w
  2637  03E9  00DA               	movwf	(?_exp)
  2638  03EA  0824               	movf	(1+(?___ftmul)),w
  2639  03EB  00DB               	movwf	(?_exp+1)
  2640  03EC  0825               	movf	(2+(?___ftmul)),w
  2641  03ED  00DC               	movwf	(?_exp+2)
  2642  03EE  120A  118A  2699   	fcall	_exp
              120A  118A         
  2643  03F3  1283               	bcf	status, 5	;RP0=0, select bank0
  2644  03F4  1303               	bcf	status, 6	;RP1=0, select bank0
  2645  03F5  085A               	movf	(0+(?_exp)),w
  2646  03F6  00E4               	movwf	(pow@x)
  2647  03F7  085B               	movf	(1+(?_exp)),w
  2648  03F8  00E5               	movwf	(pow@x+1)
  2649  03F9  085C               	movf	(2+(?_exp)),w
  2650  03FA  00E6               	movwf	(pow@x+2)
  2651                           	line	28
  2652                           	
  2653  03FB                     l6171:	
  2654  03FB  1683               	bsf	status, 5	;RP0=1, select bank1
  2655  03FC  1303               	bcf	status, 6	;RP1=0, select bank1
  2656  03FD  0823               	movf	(pow@sign)^080h,w
  2657  03FE  1D03               	skipz
  2658  03FF  2C01               	goto	u4100
  2659  0400  2C18               	goto	l2846
  2660  0401                     u4100:
  2661                           	line	29
  2662                           	
  2663  0401                     l6173:	
  2664  0401  1283               	bcf	status, 5	;RP0=0, select bank0
  2665  0402  1303               	bcf	status, 6	;RP1=0, select bank0
  2666  0403  0864               	movf	(pow@x),w
  2667  0404  00F8               	movwf	(?___ftneg)
  2668  0405  0865               	movf	(pow@x+1),w
  2669  0406  00F9               	movwf	(?___ftneg+1)
  2670  0407  0866               	movf	(pow@x+2),w
  2671  0408  00FA               	movwf	(?___ftneg+2)
  2672  0409  160A  118A  2738   	fcall	___ftneg
              120A  118A         
  2673  040E  0878               	movf	(0+(?___ftneg)),w
  2674  040F  1283               	bcf	status, 5	;RP0=0, select bank0
  2675  0410  1303               	bcf	status, 6	;RP1=0, select bank0
  2676  0411  00E4               	movwf	(?_pow)
  2677  0412  0879               	movf	(1+(?___ftneg)),w
  2678  0413  00E5               	movwf	(?_pow+1)
  2679  0414  087A               	movf	(2+(?___ftneg)),w
  2680  0415  00E6               	movwf	(?_pow+2)
  2681  0416  2C18               	goto	l2842
  2682                           	
  2683  0417                     l6175:	
  2684  0417  2C18               	goto	l2842
  2685                           	
  2686  0418                     l2846:	
  2687                           	line	30
  2688                           	line	31
  2689                           	
  2690  0418                     l2842:	
  2691  0418  0008               	return
  2692                           	opt stack 0
  2693                           GLOBAL	__end_of_pow
  2694  0419                     	__end_of_pow:
  2695 ;; =============== function _pow ends ============
  2696                           
  2697                           	signat	_pow,8315
  2698                           	global	_exp
  2699                           psect	text745,local,class=CODE,delta=2
  2700                           global __ptext745
  2701  0699                     __ptext745:
  2702                           
  2703 ;; *************** function _exp *****************
  2704 ;; Defined at:
  2705 ;;		line 13 in file "C:\Program Files (x86)\HI-TECH Software\PICC\9.83\sources\exp.c"
  2706 ;; Parameters:    Size  Location     Type
  2707 ;;  x               3   58[BANK0 ] unsigned char 
  2708 ;; Auto vars:     Size  Location     Type
  2709 ;;  exp             2   65[BANK0 ] int 
  2710 ;;  sign            1   67[BANK0 ] unsigned char 
  2711 ;; Return value:  Size  Location     Type
  2712 ;;                  3   58[BANK0 ] unsigned char 
  2713 ;; Registers used:
  2714 ;;		wreg, fsr0l, fsr0h, status,2, status,0, btemp+1, pclath, cstack
  2715 ;; Tracked objects:
  2716 ;;		On entry : 0/0
  2717 ;;		On exit  : 0/0
  2718 ;;		Unchanged: 0/0
  2719 ;; Data sizes:     COMMON   BANK0   BANK1   BANK3   BANK2
  2720 ;;      Params:         0       3       0       0       0
  2721 ;;      Locals:         0       6       0       0       0
  2722 ;;      Temps:          0       1       0       0       0
  2723 ;;      Totals:         0      10       0       0       0
  2724 ;;Total ram usage:       10 bytes
  2725 ;; Hardware stack levels used:    1
  2726 ;; Hardware stack levels required when called:    3
  2727 ;; This function calls:
  2728 ;;		___ftge
  2729 ;;		___ftneg
  2730 ;;		___ftmul
  2731 ;;		_floor
  2732 ;;		___fttol
  2733 ;;		___awtoft
  2734 ;;		___ftsub
  2735 ;;		_eval_poly
  2736 ;;		_ldexp
  2737 ;;		___ftdiv
  2738 ;; This function is called by:
  2739 ;;		_pow
  2740 ;; This function uses a non-reentrant model
  2741 ;;
  2742                           psect	text745
  2743                           	file	"C:\Program Files (x86)\HI-TECH Software\PICC\9.83\sources\exp.c"
  2744                           	line	13
  2745                           	global	__size_of_exp
  2746  0167                     	__size_of_exp	equ	__end_of_exp-_exp
  2747                           	
  2748  0699                     _exp:	
  2749                           	opt	stack 2
  2750                           ; Regs used in _exp: [wreg-fsr0h+status,2+status,0+btemp+1+pclath+cstack]
  2751                           	line	31
  2752                           	
  2753  0699                     l6087:	
  2754  0699  1283               	bcf	status, 5	;RP0=0, select bank0
  2755  069A  1303               	bcf	status, 6	;RP1=0, select bank0
  2756  069B  085C               	movf	(exp@x+2),w
  2757  069C  045B               	iorwf	(exp@x+1),w
  2758  069D  045A               	iorwf	(exp@x),w
  2759  069E  1D03               	skipz
  2760  069F  2EA1               	goto	u3991
  2761  06A0  2EA2               	goto	u3990
  2762  06A1                     u3991:
  2763  06A1  2EAA               	goto	l6093
  2764  06A2                     u3990:
  2765                           	line	32
  2766                           	
  2767  06A2                     l6089:	
  2768  06A2  3000               	movlw	0x0
  2769  06A3  00DA               	movwf	(?_exp)
  2770  06A4  3080               	movlw	0x80
  2771  06A5  00DB               	movwf	(?_exp+1)
  2772  06A6  303F               	movlw	0x3f
  2773  06A7  00DC               	movwf	(?_exp+2)
  2774  06A8  2FFF               	goto	l3200
  2775                           	
  2776  06A9                     l6091:	
  2777  06A9  2FFF               	goto	l3200
  2778                           	
  2779  06AA                     l3199:	
  2780                           	line	34
  2781                           	
  2782  06AA                     l6093:	
  2783  06AA  3072               	movlw	0x72
  2784  06AB  00F0               	movwf	(?___ftge)
  2785  06AC  3031               	movlw	0x31
  2786  06AD  00F1               	movwf	(?___ftge+1)
  2787  06AE  3044               	movlw	0x44
  2788  06AF  00F2               	movwf	(?___ftge+2)
  2789  06B0  085A               	movf	(exp@x),w
  2790  06B1  00F3               	movwf	0+(?___ftge)+03h
  2791  06B2  085B               	movf	(exp@x+1),w
  2792  06B3  00F4               	movwf	1+(?___ftge)+03h
  2793  06B4  085C               	movf	(exp@x+2),w
  2794  06B5  00F5               	movwf	2+(?___ftge)+03h
  2795  06B6  120A  158A  22C8   	fcall	___ftge
              120A  118A         
  2796  06BB  1803               	btfsc	status,0
  2797  06BC  2EBE               	goto	u4001
  2798  06BD  2EBF               	goto	u4000
  2799  06BE                     u4001:
  2800  06BE  2ED6               	goto	l6103
  2801  06BF                     u4000:
  2802                           	line	35
  2803                           	
  2804  06BF                     l6095:	
  2805  06BF  3022               	movlw	low(022h)
  2806  06C0  1283               	bcf	status, 5	;RP0=0, select bank0
  2807  06C1  1303               	bcf	status, 6	;RP1=0, select bank0
  2808  06C2  00EE               	movwf	(_errno)
  2809  06C3  3000               	movlw	high(022h)
  2810  06C4  00EF               	movwf	((_errno))+1
  2811                           	line	36
  2812  06C5  2ECD               	goto	l6099
  2813                           	
  2814  06C6                     l6097:	
  2815  06C6  3000               	movlw	0x0
  2816  06C7  00DA               	movwf	(?_exp)
  2817  06C8  3080               	movlw	0x80
  2818  06C9  00DB               	movwf	(?_exp+1)
  2819  06CA  307F               	movlw	0x7f
  2820  06CB  00DC               	movwf	(?_exp+2)
  2821  06CC  2FFF               	goto	l3200
  2822                           	
  2823  06CD                     l3203:	
  2824                           	
  2825  06CD                     l6099:	
  2826  06CD  30FF               	movlw	0xff
  2827  06CE  00DA               	movwf	(?_exp)
  2828  06CF  307F               	movlw	0x7f
  2829  06D0  00DB               	movwf	(?_exp+1)
  2830  06D1  307F               	movlw	0x7f
  2831  06D2  00DC               	movwf	(?_exp+2)
  2832  06D3  2FFF               	goto	l3200
  2833                           	
  2834  06D4                     l3205:	
  2835  06D4  2FFF               	goto	l3200
  2836                           	
  2837  06D5                     l6101:	
  2838  06D5  2FFF               	goto	l3200
  2839                           	line	37
  2840                           	
  2841  06D6                     l3201:	
  2842                           	line	38
  2843                           	
  2844  06D6                     l6103:	
  2845  06D6  1283               	bcf	status, 5	;RP0=0, select bank0
  2846  06D7  1303               	bcf	status, 6	;RP1=0, select bank0
  2847  06D8  085A               	movf	(exp@x),w
  2848  06D9  00F0               	movwf	(?___ftge)
  2849  06DA  085B               	movf	(exp@x+1),w
  2850  06DB  00F1               	movwf	(?___ftge+1)
  2851  06DC  085C               	movf	(exp@x+2),w
  2852  06DD  00F2               	movwf	(?___ftge+2)
  2853  06DE  3049               	movlw	0x49
  2854  06DF  00F3               	movwf	0+(?___ftge)+03h
  2855  06E0  303A               	movlw	0x3a
  2856  06E1  00F4               	movwf	1+(?___ftge)+03h
  2857  06E2  30C4               	movlw	0xc4
  2858  06E3  00F5               	movwf	2+(?___ftge)+03h
  2859  06E4  120A  158A  22C8   	fcall	___ftge
              120A  118A         
  2860  06E9  1803               	btfsc	status,0
  2861  06EA  2EEC               	goto	u4011
  2862  06EB  2EED               	goto	u4010
  2863  06EC                     u4011:
  2864  06EC  2EFB               	goto	l6109
  2865  06ED                     u4010:
  2866                           	line	39
  2867                           	
  2868  06ED                     l6105:	
  2869  06ED  3022               	movlw	low(022h)
  2870  06EE  1283               	bcf	status, 5	;RP0=0, select bank0
  2871  06EF  1303               	bcf	status, 6	;RP1=0, select bank0
  2872  06F0  00EE               	movwf	(_errno)
  2873  06F1  3000               	movlw	high(022h)
  2874  06F2  00EF               	movwf	((_errno))+1
  2875                           	line	40
  2876  06F3  3000               	movlw	0x0
  2877  06F4  00DA               	movwf	(?_exp)
  2878  06F5  3000               	movlw	0x0
  2879  06F6  00DB               	movwf	(?_exp+1)
  2880  06F7  3000               	movlw	0x0
  2881  06F8  00DC               	movwf	(?_exp+2)
  2882  06F9  2FFF               	goto	l3200
  2883                           	
  2884  06FA                     l6107:	
  2885  06FA  2FFF               	goto	l3200
  2886                           	line	41
  2887                           	
  2888  06FB                     l3206:	
  2889                           	line	43
  2890                           	
  2891  06FB                     l6109:	
  2892  06FB  1283               	bcf	status, 5	;RP0=0, select bank0
  2893  06FC  1303               	bcf	status, 6	;RP1=0, select bank0
  2894  06FD  085A               	movf	(exp@x),w
  2895  06FE  00F0               	movwf	(?___ftge)
  2896  06FF  085B               	movf	(exp@x+1),w
  2897  0700  00F1               	movwf	(?___ftge+1)
  2898  0701  085C               	movf	(exp@x+2),w
  2899  0702  00F2               	movwf	(?___ftge+2)
  2900  0703  3000               	movlw	0x0
  2901  0704  00F3               	movwf	0+(?___ftge)+03h
  2902  0705  3000               	movlw	0x0
  2903  0706  00F4               	movwf	1+(?___ftge)+03h
  2904  0707  3000               	movlw	0x0
  2905  0708  00F5               	movwf	2+(?___ftge)+03h
  2906  0709  120A  158A  22C8   	fcall	___ftge
              120A  118A         
  2907  070E  3000               	movlw	0
  2908  070F  1C03               	btfss	status,0
  2909  0710  3001               	movlw	1
  2910  0711  1283               	bcf	status, 5	;RP0=0, select bank0
  2911  0712  1303               	bcf	status, 6	;RP1=0, select bank0
  2912  0713  00DD               	movwf	(??_exp+0)+0
  2913  0714  085D               	movf	(??_exp+0)+0,w
  2914  0715  00E3               	movwf	(exp@sign)
  2915                           	line	44
  2916                           	
  2917  0716                     l6111:	
  2918  0716  0863               	movf	(exp@sign),w
  2919  0717  1D03               	skipz
  2920  0718  2F1A               	goto	u4020
  2921  0719  2F2E               	goto	l6115
  2922  071A                     u4020:
  2923                           	line	45
  2924                           	
  2925  071A                     l6113:	
  2926  071A  085A               	movf	(exp@x),w
  2927  071B  00F8               	movwf	(?___ftneg)
  2928  071C  085B               	movf	(exp@x+1),w
  2929  071D  00F9               	movwf	(?___ftneg+1)
  2930  071E  085C               	movf	(exp@x+2),w
  2931  071F  00FA               	movwf	(?___ftneg+2)
  2932  0720  160A  118A  2738   	fcall	___ftneg
              120A  118A         
  2933  0725  0878               	movf	(0+(?___ftneg)),w
  2934  0726  1283               	bcf	status, 5	;RP0=0, select bank0
  2935  0727  1303               	bcf	status, 6	;RP1=0, select bank0
  2936  0728  00DA               	movwf	(exp@x)
  2937  0729  0879               	movf	(1+(?___ftneg)),w
  2938  072A  00DB               	movwf	(exp@x+1)
  2939  072B  087A               	movf	(2+(?___ftneg)),w
  2940  072C  00DC               	movwf	(exp@x+2)
  2941  072D  2F2E               	goto	l6115
  2942                           	
  2943  072E                     l3207:	
  2944                           	line	46
  2945                           	
  2946  072E                     l6115:	
  2947  072E  30AA               	movlw	0xaa
  2948  072F  00A3               	movwf	(?___ftmul)
  2949  0730  30B8               	movlw	0xb8
  2950  0731  00A4               	movwf	(?___ftmul+1)
  2951  0732  303F               	movlw	0x3f
  2952  0733  00A5               	movwf	(?___ftmul+2)
  2953  0734  085A               	movf	(exp@x),w
  2954  0735  00A6               	movwf	0+(?___ftmul)+03h
  2955  0736  085B               	movf	(exp@x+1),w
  2956  0737  00A7               	movwf	1+(?___ftmul)+03h
  2957  0738  085C               	movf	(exp@x+2),w
  2958  0739  00A8               	movwf	2+(?___ftmul)+03h
  2959  073A  120A  118A  2204   	fcall	___ftmul
              120A  118A         
  2960  073F  1283               	bcf	status, 5	;RP0=0, select bank0
  2961  0740  1303               	bcf	status, 6	;RP1=0, select bank0
  2962  0741  0823               	movf	(0+(?___ftmul)),w
  2963  0742  00DA               	movwf	(exp@x)
  2964  0743  0824               	movf	(1+(?___ftmul)),w
  2965  0744  00DB               	movwf	(exp@x+1)
  2966  0745  0825               	movf	(2+(?___ftmul)),w
  2967  0746  00DC               	movwf	(exp@x+2)
  2968                           	line	47
  2969                           	
  2970  0747                     l6117:	
  2971  0747  085A               	movf	(exp@x),w
  2972  0748  00C0               	movwf	(?_floor)
  2973  0749  085B               	movf	(exp@x+1),w
  2974  074A  00C1               	movwf	(?_floor+1)
  2975  074B  085C               	movf	(exp@x+2),w
  2976  074C  00C2               	movwf	(?_floor+2)
  2977  074D  120A  158A  25CE   	fcall	_floor
              120A  118A         
  2978  0752  1283               	bcf	status, 5	;RP0=0, select bank0
  2979  0753  1303               	bcf	status, 6	;RP1=0, select bank0
  2980  0754  0840               	movf	(0+(?_floor)),w
  2981  0755  00F0               	movwf	(?___fttol)
  2982  0756  0841               	movf	(1+(?_floor)),w
  2983  0757  00F1               	movwf	(?___fttol+1)
  2984  0758  0842               	movf	(2+(?_floor)),w
  2985  0759  00F2               	movwf	(?___fttol+2)
  2986  075A  120A  158A  252A   	fcall	___fttol
              120A  118A         
  2987  075F  0871               	movf	1+(((0+(?___fttol)))),w
  2988  0760  1283               	bcf	status, 5	;RP0=0, select bank0
  2989  0761  1303               	bcf	status, 6	;RP1=0, select bank0
  2990  0762  01E2               	clrf	(exp@exp+1)
  2991  0763  07E2               	addwf	(exp@exp+1)
  2992  0764  0870               	movf	0+(((0+(?___fttol)))),w
  2993  0765  01E1               	clrf	(exp@exp)
  2994  0766  07E1               	addwf	(exp@exp)
  2995                           
  2996                           	line	48
  2997                           	
  2998  0767                     l6119:	
  2999  0767  0862               	movf	(exp@exp+1),w
  3000  0768  01FC               	clrf	(?___awtoft+1)
  3001  0769  07FC               	addwf	(?___awtoft+1)
  3002  076A  0861               	movf	(exp@exp),w
  3003  076B  01FB               	clrf	(?___awtoft)
  3004  076C  07FB               	addwf	(?___awtoft)
  3005                           
  3006  076D  120A  158A  209C   	fcall	___awtoft
              120A  118A         
  3007  0772  087B               	movf	(0+(?___awtoft)),w
  3008  0773  1283               	bcf	status, 5	;RP0=0, select bank0
  3009  0774  1303               	bcf	status, 6	;RP1=0, select bank0
  3010  0775  00C0               	movwf	(?___ftsub)
  3011  0776  087C               	movf	(1+(?___awtoft)),w
  3012  0777  00C1               	movwf	(?___ftsub+1)
  3013  0778  087D               	movf	(2+(?___awtoft)),w
  3014  0779  00C2               	movwf	(?___ftsub+2)
  3015  077A  085A               	movf	(exp@x),w
  3016  077B  00C3               	movwf	0+(?___ftsub)+03h
  3017  077C  085B               	movf	(exp@x+1),w
  3018  077D  00C4               	movwf	1+(?___ftsub)+03h
  3019  077E  085C               	movf	(exp@x+2),w
  3020  077F  00C5               	movwf	2+(?___ftsub)+03h
  3021  0780  160A  118A  27A0   	fcall	___ftsub
              120A  118A         
  3022  0785  1283               	bcf	status, 5	;RP0=0, select bank0
  3023  0786  1303               	bcf	status, 6	;RP1=0, select bank0
  3024  0787  0840               	movf	(0+(?___ftsub)),w
  3025  0788  00DA               	movwf	(exp@x)
  3026  0789  0841               	movf	(1+(?___ftsub)),w
  3027  078A  00DB               	movwf	(exp@x+1)
  3028  078B  0842               	movf	(2+(?___ftsub)),w
  3029  078C  00DC               	movwf	(exp@x+2)
  3030                           	line	49
  3031                           	
  3032  078D                     l6121:	
  3033  078D  085A               	movf	(exp@x),w
  3034  078E  00CA               	movwf	(?_eval_poly)
  3035  078F  085B               	movf	(exp@x+1),w
  3036  0790  00CB               	movwf	(?_eval_poly+1)
  3037  0791  085C               	movf	(exp@x+2),w
  3038  0792  00CC               	movwf	(?_eval_poly+2)
  3039  0793  3001               	movlw	((exp@coeff-__stringbase))&0ffh
  3040  0794  00DD               	movwf	(??_exp+0)+0
  3041  0795  085D               	movf	(??_exp+0)+0,w
  3042  0796  00CD               	movwf	(0+?_eval_poly+03h)
  3043  0797  3009               	movlw	low(09h)
  3044  0798  00CE               	movwf	0+(?_eval_poly)+04h
  3045  0799  3000               	movlw	high(09h)
  3046  079A  00CF               	movwf	(0+(?_eval_poly)+04h)+1
  3047  079B  120A  158A  2423   	fcall	_eval_poly
              120A  118A         
  3048  07A0  1283               	bcf	status, 5	;RP0=0, select bank0
  3049  07A1  1303               	bcf	status, 6	;RP1=0, select bank0
  3050  07A2  084A               	movf	(0+(?_eval_poly)),w
  3051  07A3  00C0               	movwf	(?_ldexp)
  3052  07A4  084B               	movf	(1+(?_eval_poly)),w
  3053  07A5  00C1               	movwf	(?_ldexp+1)
  3054  07A6  084C               	movf	(2+(?_eval_poly)),w
  3055  07A7  00C2               	movwf	(?_ldexp+2)
  3056  07A8  0862               	movf	(exp@exp+1),w
  3057  07A9  01C4               	clrf	1+(?_ldexp)+03h
  3058  07AA  07C4               	addwf	1+(?_ldexp)+03h
  3059  07AB  0861               	movf	(exp@exp),w
  3060  07AC  01C3               	clrf	0+(?_ldexp)+03h
  3061  07AD  07C3               	addwf	0+(?_ldexp)+03h
  3062                           
  3063  07AE  120A  158A  2676   	fcall	_ldexp
              120A  118A         
  3064  07B3  1283               	bcf	status, 5	;RP0=0, select bank0
  3065  07B4  1303               	bcf	status, 6	;RP1=0, select bank0
  3066  07B5  0840               	movf	(0+(?_ldexp)),w
  3067  07B6  00DA               	movwf	(exp@x)
  3068  07B7  0841               	movf	(1+(?_ldexp)),w
  3069  07B8  00DB               	movwf	(exp@x+1)
  3070  07B9  0842               	movf	(2+(?_ldexp)),w
  3071  07BA  00DC               	movwf	(exp@x+2)
  3072                           	line	50
  3073                           	
  3074  07BB                     l6123:	
  3075  07BB  0863               	movf	(exp@sign),w
  3076  07BC  1D03               	skipz
  3077  07BD  2FBF               	goto	u4030
  3078  07BE  2FFF               	goto	l3208
  3079  07BF                     u4030:
  3080  07BF  2FC8               	goto	l6129
  3081                           	line	52
  3082                           	
  3083  07C0                     l6125:	
  3084  07C0  2FC8               	goto	l6129
  3085                           	
  3086  07C1                     l6127:	
  3087  07C1  3000               	movlw	0x0
  3088  07C2  00DE               	movwf	(_exp$3538)
  3089  07C3  3080               	movlw	0x80
  3090  07C4  00DF               	movwf	(_exp$3538+1)
  3091  07C5  307F               	movlw	0x7f
  3092  07C6  00E0               	movwf	(_exp$3538+2)
  3093  07C7  2FCE               	goto	l3213
  3094                           	
  3095  07C8                     l3211:	
  3096                           	
  3097  07C8                     l6129:	
  3098  07C8  30FF               	movlw	0xff
  3099  07C9  00DE               	movwf	(_exp$3538)
  3100  07CA  307F               	movlw	0x7f
  3101  07CB  00DF               	movwf	(_exp$3538+1)
  3102  07CC  307F               	movlw	0x7f
  3103  07CD  00E0               	movwf	(_exp$3538+2)
  3104                           	
  3105  07CE                     l3213:	
  3106  07CE  085C               	movf	(exp@x+2),w
  3107  07CF  0660               	xorwf	(_exp$3538+2),w
  3108  07D0  1D03               	skipz
  3109  07D1  2FD8               	goto	u4045
  3110  07D2  085B               	movf	(exp@x+1),w
  3111  07D3  065F               	xorwf	(_exp$3538+1),w
  3112  07D4  1D03               	skipz
  3113  07D5  2FD8               	goto	u4045
  3114  07D6  085A               	movf	(exp@x),w
  3115  07D7  065E               	xorwf	(_exp$3538),w
  3116  07D8                     u4045:
  3117  07D8  1D03               	skipz
  3118  07D9  2FDB               	goto	u4041
  3119  07DA  2FDC               	goto	u4040
  3120  07DB                     u4041:
  3121  07DB  2FE4               	goto	l6135
  3122  07DC                     u4040:
  3123                           	line	53
  3124                           	
  3125  07DC                     l6131:	
  3126  07DC  3000               	movlw	0x0
  3127  07DD  00DA               	movwf	(?_exp)
  3128  07DE  3000               	movlw	0x0
  3129  07DF  00DB               	movwf	(?_exp+1)
  3130  07E0  3000               	movlw	0x0
  3131  07E1  00DC               	movwf	(?_exp+2)
  3132  07E2  2FFF               	goto	l3200
  3133                           	
  3134  07E3                     l6133:	
  3135  07E3  2FFF               	goto	l3200
  3136                           	
  3137  07E4                     l3209:	
  3138                           	line	54
  3139                           	
  3140  07E4                     l6135:	
  3141  07E4  085A               	movf	(exp@x),w
  3142  07E5  00F8               	movwf	(?___ftdiv)
  3143  07E6  085B               	movf	(exp@x+1),w
  3144  07E7  00F9               	movwf	(?___ftdiv+1)
  3145  07E8  085C               	movf	(exp@x+2),w
  3146  07E9  00FA               	movwf	(?___ftdiv+2)
  3147  07EA  3000               	movlw	0x0
  3148  07EB  00FB               	movwf	0+(?___ftdiv)+03h
  3149  07EC  3080               	movlw	0x80
  3150  07ED  00FC               	movwf	1+(?___ftdiv)+03h
  3151  07EE  303F               	movlw	0x3f
  3152  07EF  00FD               	movwf	2+(?___ftdiv)+03h
  3153  07F0  120A  158A  273A   	fcall	___ftdiv
              120A  118A         
  3154  07F5  0878               	movf	(0+(?___ftdiv)),w
  3155  07F6  1283               	bcf	status, 5	;RP0=0, select bank0
  3156  07F7  1303               	bcf	status, 6	;RP1=0, select bank0
  3157  07F8  00DA               	movwf	(?_exp)
  3158  07F9  0879               	movf	(1+(?___ftdiv)),w
  3159  07FA  00DB               	movwf	(?_exp+1)
  3160  07FB  087A               	movf	(2+(?___ftdiv)),w
  3161  07FC  00DC               	movwf	(?_exp+2)
  3162  07FD  2FFF               	goto	l3200
  3163                           	
  3164  07FE                     l6137:	
  3165  07FE  2FFF               	goto	l3200
  3166                           	line	55
  3167                           	
  3168  07FF                     l3208:	
  3169                           	line	56
  3170                           	line	57
  3171                           	
  3172  07FF                     l3200:	
  3173  07FF  0008               	return
  3174                           	opt stack 0
  3175                           GLOBAL	__end_of_exp
  3176  0800                     	__end_of_exp:
  3177 ;; =============== function _exp ends ============
  3178                           
  3179                           	signat	_exp,4219
  3180                           	global	_log
  3181                           psect	text746,local,class=CODE,delta=2
  3182                           global __ptext746
  3183  004B                     __ptext746:
  3184                           
  3185 ;; *************** function _log *****************
  3186 ;; Defined at:
  3187 ;;		line 6 in file "C:\Program Files (x86)\HI-TECH Software\PICC\9.83\sources\log.c"
  3188 ;; Parameters:    Size  Location     Type
  3189 ;;  x               3   52[BANK0 ] unsigned char 
  3190 ;; Auto vars:     Size  Location     Type
  3191 ;;  exp             2   56[BANK0 ] int 
  3192 ;; Return value:  Size  Location     Type
  3193 ;;                  3   52[BANK0 ] int 
  3194 ;; Registers used:
  3195 ;;		wreg, fsr0l, fsr0h, status,2, status,0, btemp+1, pclath, cstack
  3196 ;; Tracked objects:
  3197 ;;		On entry : 0/0
  3198 ;;		On exit  : 0/0
  3199 ;;		Unchanged: 0/0
  3200 ;; Data sizes:     COMMON   BANK0   BANK1   BANK3   BANK2
  3201 ;;      Params:         0       3       0       0       0
  3202 ;;      Locals:         0       2       0       0       0
  3203 ;;      Temps:          0       1       0       0       0
  3204 ;;      Totals:         0       6       0       0       0
  3205 ;;Total ram usage:        6 bytes
  3206 ;; Hardware stack levels used:    1
  3207 ;; Hardware stack levels required when called:    3
  3208 ;; This function calls:
  3209 ;;		___ftge
  3210 ;;		_frexp
  3211 ;;		___ftmul
  3212 ;;		___ftadd
  3213 ;;		_eval_poly
  3214 ;;		___awtoft
  3215 ;; This function is called by:
  3216 ;;		_pow
  3217 ;;		_log10
  3218 ;; This function uses a non-reentrant model
  3219 ;;
  3220                           psect	text746
  3221                           	file	"C:\Program Files (x86)\HI-TECH Software\PICC\9.83\sources\log.c"
  3222                           	line	6
  3223                           	global	__size_of_log
  3224  00D3                     	__size_of_log	equ	__end_of_log-_log
  3225                           	
  3226  004B                     _log:	
  3227                           	opt	stack 2
  3228                           ; Regs used in _log: [wreg-fsr0h+status,2+status,0+btemp+1+pclath+cstack]
  3229                           	line	24
  3230                           	
  3231  004B                     l6065:	
  3232  004B  1283               	bcf	status, 5	;RP0=0, select bank0
  3233  004C  1303               	bcf	status, 6	;RP1=0, select bank0
  3234  004D  0854               	movf	(log@x),w
  3235  004E  00F0               	movwf	(?___ftge)
  3236  004F  0855               	movf	(log@x+1),w
  3237  0050  00F1               	movwf	(?___ftge+1)
  3238  0051  0856               	movf	(log@x+2),w
  3239  0052  00F2               	movwf	(?___ftge+2)
  3240  0053  3000               	movlw	0x0
  3241  0054  00F3               	movwf	0+(?___ftge)+03h
  3242  0055  3000               	movlw	0x0
  3243  0056  00F4               	movwf	1+(?___ftge)+03h
  3244  0057  3000               	movlw	0x0
  3245  0058  00F5               	movwf	2+(?___ftge)+03h
  3246  0059  120A  158A  22C8   	fcall	___ftge
              120A  118A         
  3247  005E  1803               	btfsc	status,0
  3248  005F  2861               	goto	u3971
  3249  0060  2862               	goto	u3970
  3250  0061                     u3971:
  3251  0061  2870               	goto	l6071
  3252  0062                     u3970:
  3253                           	line	25
  3254                           	
  3255  0062                     l6067:	
  3256  0062  3021               	movlw	low(021h)
  3257  0063  1283               	bcf	status, 5	;RP0=0, select bank0
  3258  0064  1303               	bcf	status, 6	;RP1=0, select bank0
  3259  0065  00EE               	movwf	(_errno)
  3260  0066  3000               	movlw	high(021h)
  3261  0067  00EF               	movwf	((_errno))+1
  3262                           	line	26
  3263  0068  3000               	movlw	0x0
  3264  0069  00D4               	movwf	(?_log)
  3265  006A  3000               	movlw	0x0
  3266  006B  00D5               	movwf	(?_log+1)
  3267  006C  3000               	movlw	0x0
  3268  006D  00D6               	movwf	(?_log+2)
  3269  006E  291D               	goto	l3234
  3270                           	
  3271  006F                     l6069:	
  3272  006F  291D               	goto	l3234
  3273                           	line	27
  3274                           	
  3275  0070                     l3233:	
  3276                           	line	28
  3277                           	
  3278  0070                     l6071:	
  3279  0070  1283               	bcf	status, 5	;RP0=0, select bank0
  3280  0071  1303               	bcf	status, 6	;RP1=0, select bank0
  3281  0072  0856               	movf	(log@x+2),w
  3282  0073  0455               	iorwf	(log@x+1),w
  3283  0074  0454               	iorwf	(log@x),w
  3284  0075  1D03               	skipz
  3285  0076  2878               	goto	u3981
  3286  0077  2879               	goto	u3980
  3287  0078                     u3981:
  3288  0078  2885               	goto	l6077
  3289  0079                     u3980:
  3290                           	line	29
  3291                           	
  3292  0079                     l6073:	
  3293  0079  3022               	movlw	low(022h)
  3294  007A  00EE               	movwf	(_errno)
  3295  007B  3000               	movlw	high(022h)
  3296  007C  00EF               	movwf	((_errno))+1
  3297                           	line	30
  3298  007D  3000               	movlw	0x0
  3299  007E  00D4               	movwf	(?_log)
  3300  007F  3000               	movlw	0x0
  3301  0080  00D5               	movwf	(?_log+1)
  3302  0081  3000               	movlw	0x0
  3303  0082  00D6               	movwf	(?_log+2)
  3304  0083  291D               	goto	l3234
  3305                           	
  3306  0084                     l6075:	
  3307  0084  291D               	goto	l3234
  3308                           	line	31
  3309                           	
  3310  0085                     l3235:	
  3311                           	line	32
  3312                           	
  3313  0085                     l6077:	
  3314  0085  3000               	movlw	0x0
  3315  0086  00B3               	movwf	(?___ftadd)
  3316  0087  3080               	movlw	0x80
  3317  0088  00B4               	movwf	(?___ftadd+1)
  3318  0089  30BF               	movlw	0xbf
  3319  008A  00B5               	movwf	(?___ftadd+2)
  3320  008B  3000               	movlw	0x0
  3321  008C  00A3               	movwf	(?___ftmul)
  3322  008D  3000               	movlw	0x0
  3323  008E  00A4               	movwf	(?___ftmul+1)
  3324  008F  3040               	movlw	0x40
  3325  0090  00A5               	movwf	(?___ftmul+2)
  3326  0091  3058               	movlw	(log@exp)&0ffh
  3327  0092  00D7               	movwf	(??_log+0)+0
  3328  0093  0857               	movf	(??_log+0)+0,w
  3329  0094  00F3               	movwf	0+(?_frexp)+03h
  3330  0095  0854               	movf	(log@x),w
  3331  0096  00F0               	movwf	(?_frexp)
  3332  0097  0855               	movf	(log@x+1),w
  3333  0098  00F1               	movwf	(?_frexp+1)
  3334  0099  0856               	movf	(log@x+2),w
  3335  009A  00F2               	movwf	(?_frexp+2)
  3336  009B  120A  158A  2123   	fcall	_frexp
              120A  118A         
  3337  00A0  0870               	movf	(0+(?_frexp)),w
  3338  00A1  1283               	bcf	status, 5	;RP0=0, select bank0
  3339  00A2  1303               	bcf	status, 6	;RP1=0, select bank0
  3340  00A3  00A6               	movwf	0+(?___ftmul)+03h
  3341  00A4  0871               	movf	(1+(?_frexp)),w
  3342  00A5  00A7               	movwf	1+(?___ftmul)+03h
  3343  00A6  0872               	movf	(2+(?_frexp)),w
  3344  00A7  00A8               	movwf	2+(?___ftmul)+03h
  3345  00A8  120A  118A  2204   	fcall	___ftmul
              120A  118A         
  3346  00AD  1283               	bcf	status, 5	;RP0=0, select bank0
  3347  00AE  1303               	bcf	status, 6	;RP1=0, select bank0
  3348  00AF  0823               	movf	(0+(?___ftmul)),w
  3349  00B0  00B6               	movwf	0+(?___ftadd)+03h
  3350  00B1  0824               	movf	(1+(?___ftmul)),w
  3351  00B2  00B7               	movwf	1+(?___ftadd)+03h
  3352  00B3  0825               	movf	(2+(?___ftmul)),w
  3353  00B4  00B8               	movwf	2+(?___ftadd)+03h
  3354  00B5  120A  118A  2553   	fcall	___ftadd
              120A  118A         
  3355  00BA  1283               	bcf	status, 5	;RP0=0, select bank0
  3356  00BB  1303               	bcf	status, 6	;RP1=0, select bank0
  3357  00BC  0833               	movf	(0+(?___ftadd)),w
  3358  00BD  00D4               	movwf	(log@x)
  3359  00BE  0834               	movf	(1+(?___ftadd)),w
  3360  00BF  00D5               	movwf	(log@x+1)
  3361  00C0  0835               	movf	(2+(?___ftadd)),w
  3362  00C1  00D6               	movwf	(log@x+2)
  3363                           	line	33
  3364                           	
  3365  00C2                     l6079:	
  3366  00C2  30FF               	movlw	low(-1)
  3367  00C3  07D8               	addwf	(log@exp),f
  3368  00C4  1803               	skipnc
  3369  00C5  0AD9               	incf	(log@exp+1),f
  3370  00C6  30FF               	movlw	high(-1)
  3371  00C7  07D9               	addwf	(log@exp+1),f
  3372                           	line	34
  3373                           	
  3374  00C8                     l6081:	
  3375  00C8  0854               	movf	(log@x),w
  3376  00C9  00CA               	movwf	(?_eval_poly)
  3377  00CA  0855               	movf	(log@x+1),w
  3378  00CB  00CB               	movwf	(?_eval_poly+1)
  3379  00CC  0856               	movf	(log@x+2),w
  3380  00CD  00CC               	movwf	(?_eval_poly+2)
  3381  00CE  301F               	movlw	((log@coeff-__stringbase))&0ffh
  3382  00CF  00D7               	movwf	(??_log+0)+0
  3383  00D0  0857               	movf	(??_log+0)+0,w
  3384  00D1  00CD               	movwf	(0+?_eval_poly+03h)
  3385  00D2  3008               	movlw	low(08h)
  3386  00D3  00CE               	movwf	0+(?_eval_poly)+04h
  3387  00D4  3000               	movlw	high(08h)
  3388  00D5  00CF               	movwf	(0+(?_eval_poly)+04h)+1
  3389  00D6  120A  158A  2423   	fcall	_eval_poly
              120A  118A         
  3390  00DB  1283               	bcf	status, 5	;RP0=0, select bank0
  3391  00DC  1303               	bcf	status, 6	;RP1=0, select bank0
  3392  00DD  084A               	movf	(0+(?_eval_poly)),w
  3393  00DE  00D4               	movwf	(log@x)
  3394  00DF  084B               	movf	(1+(?_eval_poly)),w
  3395  00E0  00D5               	movwf	(log@x+1)
  3396  00E1  084C               	movf	(2+(?_eval_poly)),w
  3397  00E2  00D6               	movwf	(log@x+2)
  3398                           	line	35
  3399                           	
  3400  00E3                     l6083:	
  3401  00E3  0854               	movf	(log@x),w
  3402  00E4  00B3               	movwf	(?___ftadd)
  3403  00E5  0855               	movf	(log@x+1),w
  3404  00E6  00B4               	movwf	(?___ftadd+1)
  3405  00E7  0856               	movf	(log@x+2),w
  3406  00E8  00B5               	movwf	(?___ftadd+2)
  3407  00E9  3072               	movlw	0x72
  3408  00EA  00A3               	movwf	(?___ftmul)
  3409  00EB  3031               	movlw	0x31
  3410  00EC  00A4               	movwf	(?___ftmul+1)
  3411  00ED  303F               	movlw	0x3f
  3412  00EE  00A5               	movwf	(?___ftmul+2)
  3413  00EF  0859               	movf	(log@exp+1),w
  3414  00F0  01FC               	clrf	(?___awtoft+1)
  3415  00F1  07FC               	addwf	(?___awtoft+1)
  3416  00F2  0858               	movf	(log@exp),w
  3417  00F3  01FB               	clrf	(?___awtoft)
  3418  00F4  07FB               	addwf	(?___awtoft)
  3419                           
  3420  00F5  120A  158A  209C   	fcall	___awtoft
              120A  118A         
  3421  00FA  087B               	movf	(0+(?___awtoft)),w
  3422  00FB  1283               	bcf	status, 5	;RP0=0, select bank0
  3423  00FC  1303               	bcf	status, 6	;RP1=0, select bank0
  3424  00FD  00A6               	movwf	0+(?___ftmul)+03h
  3425  00FE  087C               	movf	(1+(?___awtoft)),w
  3426  00FF  00A7               	movwf	1+(?___ftmul)+03h
  3427  0100  087D               	movf	(2+(?___awtoft)),w
  3428  0101  00A8               	movwf	2+(?___ftmul)+03h
  3429  0102  120A  118A  2204   	fcall	___ftmul
              120A  118A         
  3430  0107  1283               	bcf	status, 5	;RP0=0, select bank0
  3431  0108  1303               	bcf	status, 6	;RP1=0, select bank0
  3432  0109  0823               	movf	(0+(?___ftmul)),w
  3433  010A  00B6               	movwf	0+(?___ftadd)+03h
  3434  010B  0824               	movf	(1+(?___ftmul)),w
  3435  010C  00B7               	movwf	1+(?___ftadd)+03h
  3436  010D  0825               	movf	(2+(?___ftmul)),w
  3437  010E  00B8               	movwf	2+(?___ftadd)+03h
  3438  010F  120A  118A  2553   	fcall	___ftadd
              120A  118A         
  3439  0114  1283               	bcf	status, 5	;RP0=0, select bank0
  3440  0115  1303               	bcf	status, 6	;RP1=0, select bank0
  3441  0116  0833               	movf	(0+(?___ftadd)),w
  3442  0117  00D4               	movwf	(?_log)
  3443  0118  0834               	movf	(1+(?___ftadd)),w
  3444  0119  00D5               	movwf	(?_log+1)
  3445  011A  0835               	movf	(2+(?___ftadd)),w
  3446  011B  00D6               	movwf	(?_log+2)
  3447  011C  291D               	goto	l3234
  3448                           	
  3449  011D                     l6085:	
  3450                           	line	36
  3451                           	
  3452  011D                     l3234:	
  3453  011D  0008               	return
  3454                           	opt stack 0
  3455                           GLOBAL	__end_of_log
  3456  011E                     	__end_of_log:
  3457 ;; =============== function _log ends ============
  3458                           
  3459                           	signat	_log,4219
  3460                           	global	_eval_poly
  3461                           psect	text747,local,class=CODE,delta=2
  3462                           global __ptext747
  3463  0C23                     __ptext747:
  3464                           
  3465 ;; *************** function _eval_poly *****************
  3466 ;; Defined at:
  3467 ;;		line 5 in file "C:\Program Files (x86)\HI-TECH Software\PICC\9.83\sources\evalpoly.c"
  3468 ;; Parameters:    Size  Location     Type
  3469 ;;  x               3   42[BANK0 ] int 
  3470 ;;  d               1   45[BANK0 ] PTR const 
  3471 ;;		 -> log@coeff(27), exp@coeff(30), 
  3472 ;;  n               2   46[BANK0 ] int 
  3473 ;; Auto vars:     Size  Location     Type
  3474 ;;  res             3   49[BANK0 ] int 
  3475 ;; Return value:  Size  Location     Type
  3476 ;;                  3   42[BANK0 ] int 
  3477 ;; Registers used:
  3478 ;;		wreg, fsr0l, fsr0h, status,2, status,0, pclath, cstack
  3479 ;; Tracked objects:
  3480 ;;		On entry : 0/0
  3481 ;;		On exit  : 0/0
  3482 ;;		Unchanged: 0/0
  3483 ;; Data sizes:     COMMON   BANK0   BANK1   BANK3   BANK2
  3484 ;;      Params:         0       6       0       0       0
  3485 ;;      Locals:         0       3       0       0       0
  3486 ;;      Temps:          0       1       0       0       0
  3487 ;;      Totals:         0      10       0       0       0
  3488 ;;Total ram usage:       10 bytes
  3489 ;; Hardware stack levels used:    1
  3490 ;; Hardware stack levels required when called:    2
  3491 ;; This function calls:
  3492 ;;		___bmul
  3493 ;;		___ftmul
  3494 ;;		___ftadd
  3495 ;; This function is called by:
  3496 ;;		_exp
  3497 ;;		_log
  3498 ;; This function uses a non-reentrant model
  3499 ;;
  3500                           psect	text747
  3501                           	file	"C:\Program Files (x86)\HI-TECH Software\PICC\9.83\sources\evalpoly.c"
  3502                           	line	5
  3503                           	global	__size_of_eval_poly
  3504  007F                     	__size_of_eval_poly	equ	__end_of_eval_poly-_eval_poly
  3505                           	
  3506  0C23                     _eval_poly:	
  3507                           	opt	stack 2
  3508                           ; Regs used in _eval_poly: [wreg-fsr0h+status,2+status,0+pclath+cstack]
  3509                           	line	8
  3510                           	
  3511  0C23                     l6055:	
  3512  0C23  3003               	movlw	(03h)
  3513  0C24  1283               	bcf	status, 5	;RP0=0, select bank0
  3514  0C25  1303               	bcf	status, 6	;RP1=0, select bank0
  3515  0C26  00D0               	movwf	(??_eval_poly+0)+0
  3516  0C27  0850               	movf	(??_eval_poly+0)+0,w
  3517  0C28  00F0               	movwf	(?___bmul)
  3518  0C29  084E               	movf	(eval_poly@n),w
  3519  0C2A  160A  118A  2769   	fcall	___bmul
              120A  158A         
  3520  0C2F  1283               	bcf	status, 5	;RP0=0, select bank0
  3521  0C30  1303               	bcf	status, 6	;RP1=0, select bank0
  3522  0C31  074D               	addwf	(eval_poly@d),w
  3523  0C32  0084               	movwf	fsr0
  3524  0C33  120A  158A  200A   	fcall	stringdir
              120A  158A         
  3525  0C38  00D1               	movwf	(eval_poly@res)
  3526  0C39  120A  158A  200A   	fcall	stringdir
              120A  158A         
  3527  0C3E  00D2               	movwf	(eval_poly@res+1)
  3528  0C3F  120A  158A  200A   	fcall	stringdir
              120A  158A         
  3529  0C44  00D3               	movwf	(eval_poly@res+2)
  3530                           	line	9
  3531  0C45  2C93               	goto	l6059
  3532                           	
  3533  0C46                     l3283:	
  3534                           	line	10
  3535                           	
  3536  0C46                     l6057:	
  3537  0C46  3003               	movlw	(03h)
  3538  0C47  00D0               	movwf	(??_eval_poly+0)+0
  3539  0C48  0850               	movf	(??_eval_poly+0)+0,w
  3540  0C49  00F0               	movwf	(?___bmul)
  3541  0C4A  30FF               	movlw	low(-1)
  3542  0C4B  07CE               	addwf	(eval_poly@n),f
  3543  0C4C  1803               	skipnc
  3544  0C4D  0ACF               	incf	(eval_poly@n+1),f
  3545  0C4E  30FF               	movlw	high(-1)
  3546  0C4F  07CF               	addwf	(eval_poly@n+1),f
  3547  0C50  084E               	movf	((eval_poly@n)),w
  3548  0C51  160A  118A  2769   	fcall	___bmul
              120A  158A         
  3549  0C56  1283               	bcf	status, 5	;RP0=0, select bank0
  3550  0C57  1303               	bcf	status, 6	;RP1=0, select bank0
  3551  0C58  074D               	addwf	(eval_poly@d),w
  3552  0C59  0084               	movwf	fsr0
  3553  0C5A  120A  158A  200A   	fcall	stringdir
              120A  158A         
  3554  0C5F  00B3               	movwf	(?___ftadd)
  3555  0C60  120A  158A  200A   	fcall	stringdir
              120A  158A         
  3556  0C65  00B4               	movwf	(?___ftadd+1)
  3557  0C66  120A  158A  200A   	fcall	stringdir
              120A  158A         
  3558  0C6B  00B5               	movwf	(?___ftadd+2)
  3559  0C6C  0851               	movf	(eval_poly@res),w
  3560  0C6D  00A3               	movwf	(?___ftmul)
  3561  0C6E  0852               	movf	(eval_poly@res+1),w
  3562  0C6F  00A4               	movwf	(?___ftmul+1)
  3563  0C70  0853               	movf	(eval_poly@res+2),w
  3564  0C71  00A5               	movwf	(?___ftmul+2)
  3565  0C72  084A               	movf	(eval_poly@x),w
  3566  0C73  00A6               	movwf	0+(?___ftmul)+03h
  3567  0C74  084B               	movf	(eval_poly@x+1),w
  3568  0C75  00A7               	movwf	1+(?___ftmul)+03h
  3569  0C76  084C               	movf	(eval_poly@x+2),w
  3570  0C77  00A8               	movwf	2+(?___ftmul)+03h
  3571  0C78  120A  118A  2204   	fcall	___ftmul
              120A  158A         
  3572  0C7D  1283               	bcf	status, 5	;RP0=0, select bank0
  3573  0C7E  1303               	bcf	status, 6	;RP1=0, select bank0
  3574  0C7F  0823               	movf	(0+(?___ftmul)),w
  3575  0C80  00B6               	movwf	0+(?___ftadd)+03h
  3576  0C81  0824               	movf	(1+(?___ftmul)),w
  3577  0C82  00B7               	movwf	1+(?___ftadd)+03h
  3578  0C83  0825               	movf	(2+(?___ftmul)),w
  3579  0C84  00B8               	movwf	2+(?___ftadd)+03h
  3580  0C85  120A  118A  2553   	fcall	___ftadd
              120A  158A         
  3581  0C8A  1283               	bcf	status, 5	;RP0=0, select bank0
  3582  0C8B  1303               	bcf	status, 6	;RP1=0, select bank0
  3583  0C8C  0833               	movf	(0+(?___ftadd)),w
  3584  0C8D  00D1               	movwf	(eval_poly@res)
  3585  0C8E  0834               	movf	(1+(?___ftadd)),w
  3586  0C8F  00D2               	movwf	(eval_poly@res+1)
  3587  0C90  0835               	movf	(2+(?___ftadd)),w
  3588  0C91  00D3               	movwf	(eval_poly@res+2)
  3589  0C92  2C93               	goto	l6059
  3590                           	
  3591  0C93                     l3282:	
  3592                           	line	9
  3593                           	
  3594  0C93                     l6059:	
  3595  0C93  084F               	movf	((eval_poly@n+1)),w
  3596  0C94  044E               	iorwf	((eval_poly@n)),w
  3597  0C95  1D03               	skipz
  3598  0C96  2C98               	goto	u3961
  3599  0C97  2C99               	goto	u3960
  3600  0C98                     u3961:
  3601  0C98  2C46               	goto	l6057
  3602  0C99                     u3960:
  3603  0C99  2C9A               	goto	l6061
  3604                           	
  3605  0C9A                     l3284:	
  3606                           	line	11
  3607                           	
  3608  0C9A                     l6061:	
  3609  0C9A  0851               	movf	(eval_poly@res),w
  3610  0C9B  00CA               	movwf	(?_eval_poly)
  3611  0C9C  0852               	movf	(eval_poly@res+1),w
  3612  0C9D  00CB               	movwf	(?_eval_poly+1)
  3613  0C9E  0853               	movf	(eval_poly@res+2),w
  3614  0C9F  00CC               	movwf	(?_eval_poly+2)
  3615  0CA0  2CA1               	goto	l3285
  3616                           	
  3617  0CA1                     l6063:	
  3618                           	line	12
  3619                           	
  3620  0CA1                     l3285:	
  3621  0CA1  0008               	return
  3622                           	opt stack 0
  3623                           GLOBAL	__end_of_eval_poly
  3624  0CA2                     	__end_of_eval_poly:
  3625 ;; =============== function _eval_poly ends ============
  3626                           
  3627                           	signat	_eval_poly,12411
  3628                           	global	_floor
  3629                           psect	text748,local,class=CODE,delta=2
  3630                           global __ptext748
  3631  0DCE                     __ptext748:
  3632                           
  3633 ;; *************** function _floor *****************
  3634 ;; Defined at:
  3635 ;;		line 14 in file "C:\Program Files (x86)\HI-TECH Software\PICC\9.83\sources\floor.c"
  3636 ;; Parameters:    Size  Location     Type
  3637 ;;  x               3   32[BANK0 ] int 
  3638 ;; Auto vars:     Size  Location     Type
  3639 ;;  i               3   36[BANK0 ] int 
  3640 ;;  expon           2   39[BANK0 ] int 
  3641 ;; Return value:  Size  Location     Type
  3642 ;;                  3   32[BANK0 ] int 
  3643 ;; Registers used:
  3644 ;;		wreg, fsr0l, fsr0h, status,2, status,0, btemp+1, pclath, cstack
  3645 ;; Tracked objects:
  3646 ;;		On entry : 0/0
  3647 ;;		On exit  : 0/0
  3648 ;;		Unchanged: 0/0
  3649 ;; Data sizes:     COMMON   BANK0   BANK1   BANK3   BANK2
  3650 ;;      Params:         0       3       0       0       0
  3651 ;;      Locals:         0       5       0       0       0
  3652 ;;      Temps:          0       1       0       0       0
  3653 ;;      Totals:         0       9       0       0       0
  3654 ;;Total ram usage:        9 bytes
  3655 ;; Hardware stack levels used:    1
  3656 ;; Hardware stack levels required when called:    2
  3657 ;; This function calls:
  3658 ;;		_frexp
  3659 ;;		___ftge
  3660 ;;		___fttol
  3661 ;;		___altoft
  3662 ;;		___ftadd
  3663 ;; This function is called by:
  3664 ;;		_exp
  3665 ;; This function uses a non-reentrant model
  3666 ;;
  3667                           psect	text748
  3668                           	file	"C:\Program Files (x86)\HI-TECH Software\PICC\9.83\sources\floor.c"
  3669                           	line	14
  3670                           	global	__size_of_floor
  3671  00A8                     	__size_of_floor	equ	__end_of_floor-_floor
  3672                           	
  3673  0DCE                     _floor:	
  3674                           	opt	stack 2
  3675                           ; Regs used in _floor: [wreg-fsr0h+status,2+status,0+btemp+1+pclath+cstack]
  3676                           	line	18
  3677                           	
  3678  0DCE                     l6027:	
  3679  0DCE  1283               	bcf	status, 5	;RP0=0, select bank0
  3680  0DCF  1303               	bcf	status, 6	;RP1=0, select bank0
  3681  0DD0  0840               	movf	(floor@x),w
  3682  0DD1  00F0               	movwf	(?_frexp)
  3683  0DD2  0841               	movf	(floor@x+1),w
  3684  0DD3  00F1               	movwf	(?_frexp+1)
  3685  0DD4  0842               	movf	(floor@x+2),w
  3686  0DD5  00F2               	movwf	(?_frexp+2)
  3687  0DD6  3047               	movlw	(floor@expon)&0ffh
  3688  0DD7  00C3               	movwf	(??_floor+0)+0
  3689  0DD8  0843               	movf	(??_floor+0)+0,w
  3690  0DD9  00F3               	movwf	0+(?_frexp)+03h
  3691  0DDA  120A  158A  2123   	fcall	_frexp
              120A  158A         
  3692                           	line	19
  3693                           	
  3694  0DDF                     l6029:	
  3695  0DDF  1283               	bcf	status, 5	;RP0=0, select bank0
  3696  0DE0  1303               	bcf	status, 6	;RP1=0, select bank0
  3697  0DE1  1FC8               	btfss	(floor@expon+1),7
  3698  0DE2  2DE4               	goto	u3921
  3699  0DE3  2DE5               	goto	u3920
  3700  0DE4                     u3921:
  3701  0DE4  2E0E               	goto	l6041
  3702  0DE5                     u3920:
  3703                           	line	20
  3704                           	
  3705  0DE5                     l6031:	
  3706  0DE5  0840               	movf	(floor@x),w
  3707  0DE6  00F0               	movwf	(?___ftge)
  3708  0DE7  0841               	movf	(floor@x+1),w
  3709  0DE8  00F1               	movwf	(?___ftge+1)
  3710  0DE9  0842               	movf	(floor@x+2),w
  3711  0DEA  00F2               	movwf	(?___ftge+2)
  3712  0DEB  3000               	movlw	0x0
  3713  0DEC  00F3               	movwf	0+(?___ftge)+03h
  3714  0DED  3000               	movlw	0x0
  3715  0DEE  00F4               	movwf	1+(?___ftge)+03h
  3716  0DEF  3000               	movlw	0x0
  3717  0DF0  00F5               	movwf	2+(?___ftge)+03h
  3718  0DF1  120A  158A  22C8   	fcall	___ftge
              120A  158A         
  3719  0DF6  1803               	btfsc	status,0
  3720  0DF7  2DF9               	goto	u3931
  3721  0DF8  2DFA               	goto	u3930
  3722  0DF9                     u3931:
  3723  0DF9  2E04               	goto	l6037
  3724  0DFA                     u3930:
  3725                           	line	21
  3726                           	
  3727  0DFA                     l6033:	
  3728  0DFA  3000               	movlw	0x0
  3729  0DFB  1283               	bcf	status, 5	;RP0=0, select bank0
  3730  0DFC  1303               	bcf	status, 6	;RP1=0, select bank0
  3731  0DFD  00C0               	movwf	(?_floor)
  3732  0DFE  3080               	movlw	0x80
  3733  0DFF  00C1               	movwf	(?_floor+1)
  3734  0E00  30BF               	movlw	0xbf
  3735  0E01  00C2               	movwf	(?_floor+2)
  3736  0E02  2E75               	goto	l3220
  3737                           	
  3738  0E03                     l6035:	
  3739  0E03  2E75               	goto	l3220
  3740                           	
  3741  0E04                     l3219:	
  3742                           	line	22
  3743                           	
  3744  0E04                     l6037:	
  3745  0E04  3000               	movlw	0x0
  3746  0E05  1283               	bcf	status, 5	;RP0=0, select bank0
  3747  0E06  1303               	bcf	status, 6	;RP1=0, select bank0
  3748  0E07  00C0               	movwf	(?_floor)
  3749  0E08  3000               	movlw	0x0
  3750  0E09  00C1               	movwf	(?_floor+1)
  3751  0E0A  3000               	movlw	0x0
  3752  0E0B  00C2               	movwf	(?_floor+2)
  3753  0E0C  2E75               	goto	l3220
  3754                           	
  3755  0E0D                     l6039:	
  3756  0E0D  2E75               	goto	l3220
  3757                           	line	23
  3758                           	
  3759  0E0E                     l3218:	
  3760                           	line	24
  3761                           	
  3762  0E0E                     l6041:	
  3763  0E0E  3000               	movlw	high(015h)
  3764  0E0F  0248               	subwf	(floor@expon+1),w
  3765  0E10  3015               	movlw	low(015h)
  3766  0E11  1903               	skipnz
  3767  0E12  0247               	subwf	(floor@expon),w
  3768  0E13  1C03               	skipc
  3769  0E14  2E16               	goto	u3941
  3770  0E15  2E17               	goto	u3940
  3771  0E16                     u3941:
  3772  0E16  2E18               	goto	l6045
  3773  0E17                     u3940:
  3774                           	line	25
  3775                           	
  3776  0E17                     l6043:	
  3777  0E17  2E75               	goto	l3220
  3778                           	
  3779  0E18                     l3221:	
  3780                           	line	26
  3781                           	
  3782  0E18                     l6045:	
  3783  0E18  0840               	movf	(floor@x),w
  3784  0E19  00F0               	movwf	(?___fttol)
  3785  0E1A  0841               	movf	(floor@x+1),w
  3786  0E1B  00F1               	movwf	(?___fttol+1)
  3787  0E1C  0842               	movf	(floor@x+2),w
  3788  0E1D  00F2               	movwf	(?___fttol+2)
  3789  0E1E  120A  158A  252A   	fcall	___fttol
              120A  158A         
  3790  0E23  0873               	movf	(3+(?___fttol)),w
  3791  0E24  1283               	bcf	status, 5	;RP0=0, select bank0
  3792  0E25  1303               	bcf	status, 6	;RP1=0, select bank0
  3793  0E26  00A3               	movwf	(?___altoft+3)
  3794  0E27  0872               	movf	(2+(?___fttol)),w
  3795  0E28  00A2               	movwf	(?___altoft+2)
  3796  0E29  0871               	movf	(1+(?___fttol)),w
  3797  0E2A  00A1               	movwf	(?___altoft+1)
  3798  0E2B  0870               	movf	(0+(?___fttol)),w
  3799  0E2C  00A0               	movwf	(?___altoft)
  3800                           
  3801  0E2D  120A  158A  21BA   	fcall	___altoft
              120A  158A         
  3802  0E32  1283               	bcf	status, 5	;RP0=0, select bank0
  3803  0E33  1303               	bcf	status, 6	;RP1=0, select bank0
  3804  0E34  0820               	movf	(0+(?___altoft)),w
  3805  0E35  00C4               	movwf	(floor@i)
  3806  0E36  0821               	movf	(1+(?___altoft)),w
  3807  0E37  00C5               	movwf	(floor@i+1)
  3808  0E38  0822               	movf	(2+(?___altoft)),w
  3809  0E39  00C6               	movwf	(floor@i+2)
  3810                           	line	27
  3811  0E3A  0840               	movf	(floor@x),w
  3812  0E3B  00F0               	movwf	(?___ftge)
  3813  0E3C  0841               	movf	(floor@x+1),w
  3814  0E3D  00F1               	movwf	(?___ftge+1)
  3815  0E3E  0842               	movf	(floor@x+2),w
  3816  0E3F  00F2               	movwf	(?___ftge+2)
  3817  0E40  0844               	movf	(floor@i),w
  3818  0E41  00F3               	movwf	0+(?___ftge)+03h
  3819  0E42  0845               	movf	(floor@i+1),w
  3820  0E43  00F4               	movwf	1+(?___ftge)+03h
  3821  0E44  0846               	movf	(floor@i+2),w
  3822  0E45  00F5               	movwf	2+(?___ftge)+03h
  3823  0E46  120A  158A  22C8   	fcall	___ftge
              120A  158A         
  3824  0E4B  1803               	btfsc	status,0
  3825  0E4C  2E4E               	goto	u3951
  3826  0E4D  2E4F               	goto	u3950
  3827  0E4E                     u3951:
  3828  0E4E  2E6C               	goto	l6051
  3829  0E4F                     u3950:
  3830                           	line	28
  3831                           	
  3832  0E4F                     l6047:	
  3833  0E4F  3000               	movlw	0x0
  3834  0E50  1283               	bcf	status, 5	;RP0=0, select bank0
  3835  0E51  1303               	bcf	status, 6	;RP1=0, select bank0
  3836  0E52  00B3               	movwf	(?___ftadd)
  3837  0E53  3080               	movlw	0x80
  3838  0E54  00B4               	movwf	(?___ftadd+1)
  3839  0E55  30BF               	movlw	0xbf
  3840  0E56  00B5               	movwf	(?___ftadd+2)
  3841  0E57  0844               	movf	(floor@i),w
  3842  0E58  00B6               	movwf	0+(?___ftadd)+03h
  3843  0E59  0845               	movf	(floor@i+1),w
  3844  0E5A  00B7               	movwf	1+(?___ftadd)+03h
  3845  0E5B  0846               	movf	(floor@i+2),w
  3846  0E5C  00B8               	movwf	2+(?___ftadd)+03h
  3847  0E5D  120A  118A  2553   	fcall	___ftadd
              120A  158A         
  3848  0E62  1283               	bcf	status, 5	;RP0=0, select bank0
  3849  0E63  1303               	bcf	status, 6	;RP1=0, select bank0
  3850  0E64  0833               	movf	(0+(?___ftadd)),w
  3851  0E65  00C0               	movwf	(?_floor)
  3852  0E66  0834               	movf	(1+(?___ftadd)),w
  3853  0E67  00C1               	movwf	(?_floor+1)
  3854  0E68  0835               	movf	(2+(?___ftadd)),w
  3855  0E69  00C2               	movwf	(?_floor+2)
  3856  0E6A  2E75               	goto	l3220
  3857                           	
  3858  0E6B                     l6049:	
  3859  0E6B  2E75               	goto	l3220
  3860                           	
  3861  0E6C                     l3222:	
  3862                           	line	29
  3863                           	
  3864  0E6C                     l6051:	
  3865  0E6C  1283               	bcf	status, 5	;RP0=0, select bank0
  3866  0E6D  1303               	bcf	status, 6	;RP1=0, select bank0
  3867  0E6E  0844               	movf	(floor@i),w
  3868  0E6F  00C0               	movwf	(?_floor)
  3869  0E70  0845               	movf	(floor@i+1),w
  3870  0E71  00C1               	movwf	(?_floor+1)
  3871  0E72  0846               	movf	(floor@i+2),w
  3872  0E73  00C2               	movwf	(?_floor+2)
  3873  0E74  2E75               	goto	l3220
  3874                           	
  3875  0E75                     l6053:	
  3876                           	line	30
  3877                           	
  3878  0E75                     l3220:	
  3879  0E75  0008               	return
  3880                           	opt stack 0
  3881                           GLOBAL	__end_of_floor
  3882  0E76                     	__end_of_floor:
  3883 ;; =============== function _floor ends ============
  3884                           
  3885                           	signat	_floor,4219
  3886                           	global	___ftsub
  3887                           psect	text749,local,class=CODE,delta=2
  3888                           global __ptext749
  3889  17A0                     __ptext749:
  3890                           
  3891 ;; *************** function ___ftsub *****************
  3892 ;; Defined at:
  3893 ;;		line 17 in file "C:\Program Files (x86)\HI-TECH Software\PICC\9.83\sources\ftsub.c"
  3894 ;; Parameters:    Size  Location     Type
  3895 ;;  f2              3   32[BANK0 ] float 
  3896 ;;  f1              3   35[BANK0 ] float 
  3897 ;; Auto vars:     Size  Location     Type
  3898 ;;		None
  3899 ;; Return value:  Size  Location     Type
  3900 ;;                  3   32[BANK0 ] float 
  3901 ;; Registers used:
  3902 ;;		wreg, status,2, status,0, pclath, cstack
  3903 ;; Tracked objects:
  3904 ;;		On entry : 0/0
  3905 ;;		On exit  : 0/0
  3906 ;;		Unchanged: 0/0
  3907 ;; Data sizes:     COMMON   BANK0   BANK1   BANK3   BANK2
  3908 ;;      Params:         0       6       0       0       0
  3909 ;;      Locals:         0       0       0       0       0
  3910 ;;      Temps:          0       0       0       0       0
  3911 ;;      Totals:         0       6       0       0       0
  3912 ;;Total ram usage:        6 bytes
  3913 ;; Hardware stack levels used:    1
  3914 ;; Hardware stack levels required when called:    2
  3915 ;; This function calls:
  3916 ;;		___ftadd
  3917 ;; This function is called by:
  3918 ;;		_exp
  3919 ;; This function uses a non-reentrant model
  3920 ;;
  3921                           psect	text749
  3922                           	file	"C:\Program Files (x86)\HI-TECH Software\PICC\9.83\sources\ftsub.c"
  3923                           	line	17
  3924                           	global	__size_of___ftsub
  3925  001F                     	__size_of___ftsub	equ	__end_of___ftsub-___ftsub
  3926                           	
  3927  17A0                     ___ftsub:	
  3928                           	opt	stack 2
  3929                           ; Regs used in ___ftsub: [wreg+status,2+status,0+pclath+cstack]
  3930                           	line	18
  3931                           	
  3932  17A0                     l6021:	
  3933  17A0  3080               	movlw	080h
  3934  17A1  1283               	bcf	status, 5	;RP0=0, select bank0
  3935  17A2  1303               	bcf	status, 6	;RP1=0, select bank0
  3936  17A3  06C2               	xorwf	(___ftsub@f2+2),f
  3937                           	line	19
  3938                           	
  3939  17A4                     l6023:	
  3940  17A4  0843               	movf	(___ftsub@f1),w
  3941  17A5  00B3               	movwf	(?___ftadd)
  3942  17A6  0844               	movf	(___ftsub@f1+1),w
  3943  17A7  00B4               	movwf	(?___ftadd+1)
  3944  17A8  0845               	movf	(___ftsub@f1+2),w
  3945  17A9  00B5               	movwf	(?___ftadd+2)
  3946  17AA  0840               	movf	(___ftsub@f2),w
  3947  17AB  00B6               	movwf	0+(?___ftadd)+03h
  3948  17AC  0841               	movf	(___ftsub@f2+1),w
  3949  17AD  00B7               	movwf	1+(?___ftadd)+03h
  3950  17AE  0842               	movf	(___ftsub@f2+2),w
  3951  17AF  00B8               	movwf	2+(?___ftadd)+03h
  3952  17B0  120A  118A  2553   	fcall	___ftadd
              160A  118A         
  3953  17B5  1283               	bcf	status, 5	;RP0=0, select bank0
  3954  17B6  1303               	bcf	status, 6	;RP1=0, select bank0
  3955  17B7  0833               	movf	(0+(?___ftadd)),w
  3956  17B8  00C0               	movwf	(?___ftsub)
  3957  17B9  0834               	movf	(1+(?___ftadd)),w
  3958  17BA  00C1               	movwf	(?___ftsub+1)
  3959  17BB  0835               	movf	(2+(?___ftadd)),w
  3960  17BC  00C2               	movwf	(?___ftsub+2)
  3961  17BD  2FBE               	goto	l2940
  3962                           	
  3963  17BE                     l6025:	
  3964                           	line	20
  3965                           	
  3966  17BE                     l2940:	
  3967  17BE  0008               	return
  3968                           	opt stack 0
  3969                           GLOBAL	__end_of___ftsub
  3970  17BF                     	__end_of___ftsub:
  3971 ;; =============== function ___ftsub ends ============
  3972                           
  3973                           	signat	___ftsub,8315
  3974                           	global	_read_a2d
  3975                           psect	text750,local,class=CODE,delta=2
  3976                           global __ptext750
  3977  0012                     __ptext750:
  3978                           
  3979 ;; *************** function _read_a2d *****************
  3980 ;; Defined at:
  3981 ;;		line 83 in file "C:\Users\abdal\Desktop\University\Year 4\Second Semester\Real Time Lab\Experiments and Codes\exp3\A
       DC (motors and LCD)\ADC_EXMAPLE.c"
  3982 ;; Parameters:    Size  Location     Type
  3983 ;;  channel         1    wreg     unsigned char 
  3984 ;; Auto vars:     Size  Location     Type
  3985 ;;  channel         1    7[BANK0 ] unsigned char 
  3986 ;; Return value:  Size  Location     Type
  3987 ;;                  3    4[BANK0 ] float 
  3988 ;; Registers used:
  3989 ;;		wreg, status,2, status,0, pclath, cstack
  3990 ;; Tracked objects:
  3991 ;;		On entry : 0/0
  3992 ;;		On exit  : 0/0
  3993 ;;		Unchanged: 0/0
  3994 ;; Data sizes:     COMMON   BANK0   BANK1   BANK3   BANK2
  3995 ;;      Params:         0       3       0       0       0
  3996 ;;      Locals:         0       1       0       0       0
  3997 ;;      Temps:          2       0       0       0       0
  3998 ;;      Totals:         2       4       0       0       0
  3999 ;;Total ram usage:        6 bytes
  4000 ;; Hardware stack levels used:    1
  4001 ;; Hardware stack levels required when called:    2
  4002 ;; This function calls:
  4003 ;;		_DelayMs
  4004 ;;		___lbtoft
  4005 ;; This function is called by:
  4006 ;;		_main
  4007 ;; This function uses a non-reentrant model
  4008 ;;
  4009                           psect	text750
  4010                           	file	"C:\Users\abdal\Desktop\University\Year 4\Second Semester\Real Time Lab\Experiment
                                 s and Codes\exp3\ADC (motors and LCD)\ADC_EXMAPLE.c"
  4011                           	line	83
  4012                           	global	__size_of_read_a2d
  4013  0039                     	__size_of_read_a2d	equ	__end_of_read_a2d-_read_a2d
  4014                           	
  4015  0012                     _read_a2d:	
  4016                           	opt	stack 5
  4017                           ; Regs used in _read_a2d: [wreg+status,2+status,0+pclath+cstack]
  4018                           ;read_a2d@channel stored from wreg
  4019  0012  1283               	bcf	status, 5	;RP0=0, select bank0
  4020  0013  1303               	bcf	status, 6	;RP1=0, select bank0
  4021  0014  00A7               	movwf	(read_a2d@channel)
  4022                           	line	84
  4023                           	
  4024  0015                     l6009:	
  4025                           ;ADC_EXMAPLE.c: 84: channel &=0x07;
  4026  0015  3007               	movlw	(07h)
  4027  0016  00FC               	movwf	(??_read_a2d+0)+0
  4028  0017  087C               	movf	(??_read_a2d+0)+0,w
  4029  0018  05A7               	andwf	(read_a2d@channel),f
  4030                           	line	85
  4031                           ;ADC_EXMAPLE.c: 85: ADCON0 = 0x41;
  4032  0019  3041               	movlw	(041h)
  4033  001A  009F               	movwf	(31)	;volatile
  4034                           	line	86
  4035                           ;ADC_EXMAPLE.c: 86: ADCON1 = 0x0E;
  4036  001B  300E               	movlw	(0Eh)
  4037  001C  1683               	bsf	status, 5	;RP0=1, select bank1
  4038  001D  1303               	bcf	status, 6	;RP1=0, select bank1
  4039  001E  009F               	movwf	(159)^080h	;volatile
  4040                           	line	87
  4041                           	
  4042  001F                     l6011:	
  4043                           ;ADC_EXMAPLE.c: 87: DelayMs(10);
  4044  001F  300A               	movlw	(0Ah)
  4045  0020  160A  118A  27DF   	fcall	_DelayMs
              120A  118A         
  4046                           	line	88
  4047                           	
  4048  0025                     l6013:	
  4049                           ;ADC_EXMAPLE.c: 88: ADCON0 |=(channel<<3);
  4050  0025  1283               	bcf	status, 5	;RP0=0, select bank0
  4051  0026  1303               	bcf	status, 6	;RP1=0, select bank0
  4052  0027  0827               	movf	(read_a2d@channel),w
  4053  0028  00FC               	movwf	(??_read_a2d+0)+0
  4054  0029  3002               	movlw	(03h)-1
  4055  002A                     u3905:
  4056  002A  1003               	clrc
  4057  002B  0DFC               	rlf	(??_read_a2d+0)+0,f
  4058  002C  3EFF               	addlw	-1
  4059  002D  1D03               	skipz
  4060  002E  282A               	goto	u3905
  4061  002F  1003               	clrc
  4062  0030  0D7C               	rlf	(??_read_a2d+0)+0,w
  4063  0031  00FD               	movwf	(??_read_a2d+1)+0
  4064  0032  087D               	movf	(??_read_a2d+1)+0,w
  4065  0033  049F               	iorwf	(31),f	;volatile
  4066                           	line	89
  4067                           	
  4068  0034                     l6015:	
  4069                           ;ADC_EXMAPLE.c: 89: GO_nDONE = 1;
  4070  0034  151F               	bsf	(250/8),(250)&7
  4071                           	line	90
  4072                           ;ADC_EXMAPLE.c: 90: while(GO_nDONE)
  4073  0035  2836               	goto	l718
  4074                           	
  4075  0036                     l719:	
  4076                           	line	91
  4077                           ;ADC_EXMAPLE.c: 91: continue;
  4078                           	
  4079  0036                     l718:	
  4080                           	line	90
  4081  0036  191F               	btfsc	(250/8),(250)&7
  4082  0037  2839               	goto	u3911
  4083  0038  283A               	goto	u3910
  4084  0039                     u3911:
  4085  0039  2836               	goto	l718
  4086  003A                     u3910:
  4087  003A  283B               	goto	l6017
  4088                           	
  4089  003B                     l720:	
  4090                           	line	92
  4091                           	
  4092  003B                     l6017:	
  4093                           ;ADC_EXMAPLE.c: 92: return( (float) ADRESH);
  4094  003B  081E               	movf	(30),w	;volatile
  4095  003C  160A  118A  2781   	fcall	___lbtoft
              120A  118A         
  4096  0041  0878               	movf	(0+(?___lbtoft)),w
  4097  0042  1283               	bcf	status, 5	;RP0=0, select bank0
  4098  0043  1303               	bcf	status, 6	;RP1=0, select bank0
  4099  0044  00A4               	movwf	(?_read_a2d)
  4100  0045  0879               	movf	(1+(?___lbtoft)),w
  4101  0046  00A5               	movwf	(?_read_a2d+1)
  4102  0047  087A               	movf	(2+(?___lbtoft)),w
  4103  0048  00A6               	movwf	(?_read_a2d+2)
  4104  0049  284A               	goto	l721
  4105                           	
  4106  004A                     l6019:	
  4107                           	line	93
  4108                           	
  4109  004A                     l721:	
  4110  004A  0008               	return
  4111                           	opt stack 0
  4112                           GLOBAL	__end_of_read_a2d
  4113  004B                     	__end_of_read_a2d:
  4114 ;; =============== function _read_a2d ends ============
  4115                           
  4116                           	signat	_read_a2d,4219
  4117                           	global	_ldexp
  4118                           psect	text751,local,class=CODE,delta=2
  4119                           global __ptext751
  4120  0E76                     __ptext751:
  4121                           
  4122 ;; *************** function _ldexp *****************
  4123 ;; Defined at:
  4124 ;;		line 278 in file "C:\Program Files (x86)\HI-TECH Software\PICC\9.83\sources\frexp.c"
  4125 ;; Parameters:    Size  Location     Type
  4126 ;;  value           3   32[BANK0 ] float 
  4127 ;;  newexp          2   35[BANK0 ] int 
  4128 ;; Auto vars:     Size  Location     Type
  4129 ;;		None
  4130 ;; Return value:  Size  Location     Type
  4131 ;;                  3   32[BANK0 ] int 
  4132 ;; Registers used:
  4133 ;;		wreg, status,2, status,0, btemp+1, pclath, cstack
  4134 ;; Tracked objects:
  4135 ;;		On entry : 0/0
  4136 ;;		On exit  : 0/0
  4137 ;;		Unchanged: 0/0
  4138 ;; Data sizes:     COMMON   BANK0   BANK1   BANK3   BANK2
  4139 ;;      Params:         0       5       0       0       0
  4140 ;;      Locals:         0       3       0       0       0
  4141 ;;      Temps:          0       2       0       0       0
  4142 ;;      Totals:         0      10       0       0       0
  4143 ;;Total ram usage:       10 bytes
  4144 ;; Hardware stack levels used:    1
  4145 ;; Hardware stack levels required when called:    1
  4146 ;; This function calls:
  4147 ;;		___ftge
  4148 ;;		___ftneg
  4149 ;; This function is called by:
  4150 ;;		_exp
  4151 ;; This function uses a non-reentrant model
  4152 ;;
  4153                           psect	text751
  4154                           	file	"C:\Program Files (x86)\HI-TECH Software\PICC\9.83\sources\frexp.c"
  4155                           	line	278
  4156                           	global	__size_of_ldexp
  4157  00C4                     	__size_of_ldexp	equ	__end_of_ldexp-_ldexp
  4158                           	
  4159  0E76                     _ldexp:	
  4160                           	opt	stack 3
  4161                           ; Regs used in _ldexp: [wreg+status,2+status,0+btemp+1+pclath+cstack]
  4162                           	line	279
  4163                           	
  4164  0E76                     l5959:	
  4165  0E76  1283               	bcf	status, 5	;RP0=0, select bank0
  4166  0E77  1303               	bcf	status, 6	;RP1=0, select bank0
  4167  0E78  0842               	movf	(ldexp@value+2),w
  4168  0E79  0441               	iorwf	(ldexp@value+1),w
  4169  0E7A  0440               	iorwf	(ldexp@value),w
  4170  0E7B  1D03               	skipz
  4171  0E7C  2E7E               	goto	u3841
  4172  0E7D  2E7F               	goto	u3840
  4173  0E7E                     u3841:
  4174  0E7E  2E87               	goto	l5965
  4175  0E7F                     u3840:
  4176                           	line	280
  4177                           	
  4178  0E7F                     l5961:	
  4179  0E7F  3000               	movlw	0x0
  4180  0E80  00C0               	movwf	(?_ldexp)
  4181  0E81  3000               	movlw	0x0
  4182  0E82  00C1               	movwf	(?_ldexp+1)
  4183  0E83  3000               	movlw	0x0
  4184  0E84  00C2               	movwf	(?_ldexp+2)
  4185  0E85  2F39               	goto	l3248
  4186                           	
  4187  0E86                     l5963:	
  4188  0E86  2F39               	goto	l3248
  4189                           	
  4190  0E87                     l3247:	
  4191                           	line	282
  4192                           	
  4193  0E87                     l5965:	
  4194  0E87  0842               	movf	0+(ldexp@value)+02h,w
  4195  0E88  397F               	andlw	(1<<7)-1
  4196  0E89  00C5               	movwf	(??_ldexp+0)+0
  4197  0E8A  01C6               	clrf	(??_ldexp+0)+0+1
  4198  0E8B  3001               	movlw	01h
  4199  0E8C  00FF               	movwf	btemp+1
  4200  0E8D                     u3855:
  4201  0E8D  1003               	clrc
  4202  0E8E  0DC5               	rlf	(??_ldexp+0)+0,f
  4203  0E8F  0DC6               	rlf	(??_ldexp+0)+1,f
  4204  0E90  0BFF               	decfsz	btemp+1,f
  4205  0E91  2E8D               	goto	u3855
  4206  0E92  0845               	movf	0+(??_ldexp+0)+0,w
  4207  0E93  07C3               	addwf	(ldexp@newexp),f
  4208  0E94  1803               	skipnc
  4209  0E95  0AC4               	incf	(ldexp@newexp+1),f
  4210  0E96  0846               	movf	1+(??_ldexp+0)+0,w
  4211  0E97  07C4               	addwf	(ldexp@newexp+1),f
  4212                           	line	283
  4213                           	
  4214  0E98                     l5967:	
  4215  0E98  0D41               	rlf	0+(ldexp@value)+01h,w
  4216  0E99  0D41               	rlf	0+(ldexp@value)+01h,w
  4217  0E9A  3901               	andlw	1
  4218  0E9B  00C5               	movwf	(??_ldexp+0)+0
  4219  0E9C  01C6               	clrf	(??_ldexp+0)+0+1
  4220  0E9D  0845               	movf	0+(??_ldexp+0)+0,w
  4221  0E9E  07C3               	addwf	(ldexp@newexp),f
  4222  0E9F  1803               	skipnc
  4223  0EA0  0AC4               	incf	(ldexp@newexp+1),f
  4224  0EA1  0846               	movf	1+(??_ldexp+0)+0,w
  4225  0EA2  07C4               	addwf	(ldexp@newexp+1),f
  4226                           	line	287
  4227                           	
  4228  0EA3                     l5969:	
  4229  0EA3  1FC4               	btfss	(ldexp@newexp+1),7
  4230  0EA4  2EA6               	goto	u3861
  4231  0EA5  2EA7               	goto	u3860
  4232  0EA6                     u3861:
  4233  0EA6  2EB4               	goto	l5977
  4234  0EA7                     u3860:
  4235                           	line	288
  4236                           	
  4237  0EA7                     l5971:	
  4238  0EA7  3022               	movlw	low(022h)
  4239  0EA8  00EE               	movwf	(_errno)
  4240  0EA9  3000               	movlw	high(022h)
  4241  0EAA  00EF               	movwf	((_errno))+1
  4242                           	line	289
  4243  0EAB  3000               	movlw	0x0
  4244  0EAC  00C0               	movwf	(?_ldexp)
  4245  0EAD  3000               	movlw	0x0
  4246  0EAE  00C1               	movwf	(?_ldexp+1)
  4247  0EAF  3000               	movlw	0x0
  4248  0EB0  00C2               	movwf	(?_ldexp+2)
  4249  0EB1  2F39               	goto	l3248
  4250                           	
  4251  0EB2                     l5973:	
  4252  0EB2  2F39               	goto	l3248
  4253                           	line	290
  4254                           	
  4255  0EB3                     l5975:	
  4256  0EB3  2F38               	goto	l6005
  4257                           	line	291
  4258                           	
  4259  0EB4                     l3249:	
  4260                           	
  4261  0EB4                     l5977:	
  4262  0EB4  0844               	movf	(ldexp@newexp+1),w
  4263  0EB5  3A80               	xorlw	80h
  4264  0EB6  00FF               	movwf	btemp+1
  4265  0EB7  3081               	movlw	(high(0100h))^80h
  4266  0EB8  027F               	subwf	btemp+1,w
  4267  0EB9  1D03               	skipz
  4268  0EBA  2EBD               	goto	u3875
  4269  0EBB  3000               	movlw	low(0100h)
  4270  0EBC  0243               	subwf	(ldexp@newexp),w
  4271  0EBD                     u3875:
  4272                           
  4273  0EBD  1C03               	skipc
  4274  0EBE  2EC0               	goto	u3871
  4275  0EBF  2EC1               	goto	u3870
  4276  0EC0                     u3871:
  4277  0EC0  2F1A               	goto	l6001
  4278  0EC1                     u3870:
  4279                           	line	292
  4280                           	
  4281  0EC1                     l5979:	
  4282  0EC1  3022               	movlw	low(022h)
  4283  0EC2  1283               	bcf	status, 5	;RP0=0, select bank0
  4284  0EC3  1303               	bcf	status, 6	;RP1=0, select bank0
  4285  0EC4  00EE               	movwf	(_errno)
  4286  0EC5  3000               	movlw	high(022h)
  4287  0EC6  00EF               	movwf	((_errno))+1
  4288                           	line	293
  4289                           	
  4290  0EC7                     l5981:	
  4291  0EC7  0840               	movf	(ldexp@value),w
  4292  0EC8  00F0               	movwf	(?___ftge)
  4293  0EC9  0841               	movf	(ldexp@value+1),w
  4294  0ECA  00F1               	movwf	(?___ftge+1)
  4295  0ECB  0842               	movf	(ldexp@value+2),w
  4296  0ECC  00F2               	movwf	(?___ftge+2)
  4297  0ECD  3000               	movlw	0x0
  4298  0ECE  00F3               	movwf	0+(?___ftge)+03h
  4299  0ECF  3000               	movlw	0x0
  4300  0ED0  00F4               	movwf	1+(?___ftge)+03h
  4301  0ED1  3000               	movlw	0x0
  4302  0ED2  00F5               	movwf	2+(?___ftge)+03h
  4303  0ED3  120A  158A  22C8   	fcall	___ftge
              120A  158A         
  4304  0ED8  1803               	btfsc	status,0
  4305  0ED9  2EDB               	goto	u3881
  4306  0EDA  2EDC               	goto	u3880
  4307  0EDB                     u3881:
  4308  0EDB  2F0E               	goto	l5997
  4309  0EDC                     u3880:
  4310  0EDC  2EE7               	goto	l5987
  4311                           	line	294
  4312                           	
  4313  0EDD                     l5983:	
  4314  0EDD  2EE7               	goto	l5987
  4315                           	
  4316  0EDE                     l5985:	
  4317  0EDE  3000               	movlw	0x0
  4318  0EDF  1283               	bcf	status, 5	;RP0=0, select bank0
  4319  0EE0  1303               	bcf	status, 6	;RP1=0, select bank0
  4320  0EE1  00C7               	movwf	(_ldexp$3584)
  4321  0EE2  3080               	movlw	0x80
  4322  0EE3  00C8               	movwf	(_ldexp$3584+1)
  4323  0EE4  307F               	movlw	0x7f
  4324  0EE5  00C9               	movwf	(_ldexp$3584+2)
  4325  0EE6  2EF0               	goto	l5989
  4326                           	
  4327  0EE7                     l3254:	
  4328                           	
  4329  0EE7                     l5987:	
  4330  0EE7  30FF               	movlw	0xff
  4331  0EE8  1283               	bcf	status, 5	;RP0=0, select bank0
  4332  0EE9  1303               	bcf	status, 6	;RP1=0, select bank0
  4333  0EEA  00C7               	movwf	(_ldexp$3584)
  4334  0EEB  307F               	movlw	0x7f
  4335  0EEC  00C8               	movwf	(_ldexp$3584+1)
  4336  0EED  307F               	movlw	0x7f
  4337  0EEE  00C9               	movwf	(_ldexp$3584+2)
  4338  0EEF  2EF0               	goto	l5989
  4339                           	
  4340  0EF0                     l3256:	
  4341                           	
  4342  0EF0                     l5989:	
  4343  0EF0  0847               	movf	(_ldexp$3584),w
  4344  0EF1  00F8               	movwf	(?___ftneg)
  4345  0EF2  0848               	movf	(_ldexp$3584+1),w
  4346  0EF3  00F9               	movwf	(?___ftneg+1)
  4347  0EF4  0849               	movf	(_ldexp$3584+2),w
  4348  0EF5  00FA               	movwf	(?___ftneg+2)
  4349  0EF6  160A  118A  2738   	fcall	___ftneg
              120A  158A         
  4350  0EFB  0878               	movf	(0+(?___ftneg)),w
  4351  0EFC  1283               	bcf	status, 5	;RP0=0, select bank0
  4352  0EFD  1303               	bcf	status, 6	;RP1=0, select bank0
  4353  0EFE  00C0               	movwf	(?_ldexp)
  4354  0EFF  0879               	movf	(1+(?___ftneg)),w
  4355  0F00  00C1               	movwf	(?_ldexp+1)
  4356  0F01  087A               	movf	(2+(?___ftneg)),w
  4357  0F02  00C2               	movwf	(?_ldexp+2)
  4358  0F03  2F39               	goto	l3248
  4359                           	
  4360  0F04                     l5991:	
  4361  0F04  2F39               	goto	l3248
  4362                           	
  4363  0F05                     l5993:	
  4364  0F05  2F38               	goto	l6005
  4365                           	line	295
  4366                           	
  4367  0F06                     l3252:	
  4368                           	line	296
  4369  0F06  2F0E               	goto	l5997
  4370                           	
  4371  0F07                     l5995:	
  4372  0F07  3000               	movlw	0x0
  4373  0F08  00C0               	movwf	(?_ldexp)
  4374  0F09  3080               	movlw	0x80
  4375  0F0A  00C1               	movwf	(?_ldexp+1)
  4376  0F0B  307F               	movlw	0x7f
  4377  0F0C  00C2               	movwf	(?_ldexp+2)
  4378  0F0D  2F39               	goto	l3248
  4379                           	
  4380  0F0E                     l3259:	
  4381                           	
  4382  0F0E                     l5997:	
  4383  0F0E  30FF               	movlw	0xff
  4384  0F0F  1283               	bcf	status, 5	;RP0=0, select bank0
  4385  0F10  1303               	bcf	status, 6	;RP1=0, select bank0
  4386  0F11  00C0               	movwf	(?_ldexp)
  4387  0F12  307F               	movlw	0x7f
  4388  0F13  00C1               	movwf	(?_ldexp+1)
  4389  0F14  307F               	movlw	0x7f
  4390  0F15  00C2               	movwf	(?_ldexp+2)
  4391  0F16  2F39               	goto	l3248
  4392                           	
  4393  0F17                     l3261:	
  4394  0F17  2F39               	goto	l3248
  4395                           	
  4396  0F18                     l5999:	
  4397  0F18  2F39               	goto	l3248
  4398                           	
  4399  0F19                     l3257:	
  4400                           	line	297
  4401  0F19  2F38               	goto	l6005
  4402                           	line	298
  4403                           	
  4404  0F1A                     l3251:	
  4405                           	line	300
  4406                           	
  4407  0F1A                     l6001:	
  4408  0F1A  1283               	bcf	status, 5	;RP0=0, select bank0
  4409  0F1B  1303               	bcf	status, 6	;RP1=0, select bank0
  4410  0F1C  0844               	movf	(ldexp@newexp+1),w
  4411  0F1D  00C6               	movwf	(??_ldexp+0)+0+1
  4412  0F1E  0843               	movf	(ldexp@newexp),w
  4413  0F1F  00C5               	movwf	(??_ldexp+0)+0
  4414  0F20  3001               	movlw	01h
  4415  0F21  00FF               	movwf	btemp+1
  4416  0F22                     u3895:
  4417  0F22  0D46               	rlf	(??_ldexp+0)+1,w
  4418  0F23  0CC6               	rrf	(??_ldexp+0)+1,f
  4419  0F24  0CC5               	rrf	(??_ldexp+0)+0,f
  4420  0F25  0BFF               	decfsz	btemp+1,f
  4421  0F26  2F22               	goto	u3895
  4422  0F27  0842               	movf	0+(ldexp@value)+02h,w
  4423  0F28  0645               	xorwf	0+(??_ldexp+0)+0,w
  4424  0F29  3980               	andlw	not ((1<<7)-1)
  4425  0F2A  0645               	xorwf	0+(??_ldexp+0)+0,w
  4426  0F2B  00C2               	movwf	0+(ldexp@value)+02h
  4427                           	line	301
  4428                           	
  4429  0F2C                     l6003:	
  4430  0F2C  0843               	movf	(ldexp@newexp),w
  4431  0F2D  3901               	andlw	01h
  4432  0F2E  00C5               	movwf	(??_ldexp+0)+0
  4433  0F2F  0CC5               	rrf	(??_ldexp+0)+0,f
  4434  0F30  0CC5               	rrf	(??_ldexp+0)+0,f
  4435  0F31  0841               	movf	0+(ldexp@value)+01h,w
  4436  0F32  0645               	xorwf	(??_ldexp+0)+0,w
  4437  0F33  397F               	andlw	not (((1<<1)-1)<<7)
  4438  0F34  0645               	xorwf	(??_ldexp+0)+0,w
  4439  0F35  00C1               	movwf	0+(ldexp@value)+01h
  4440  0F36  2F38               	goto	l6005
  4441                           	line	305
  4442                           	
  4443  0F37                     l3262:	
  4444  0F37  2F38               	goto	l6005
  4445                           	
  4446  0F38                     l3250:	
  4447                           	line	306
  4448                           	
  4449  0F38                     l6005:	
  4450  0F38  2F39               	goto	l3248
  4451                           	
  4452  0F39                     l6007:	
  4453                           	line	307
  4454                           	
  4455  0F39                     l3248:	
  4456  0F39  0008               	return
  4457                           	opt stack 0
  4458                           GLOBAL	__end_of_ldexp
  4459  0F3A                     	__end_of_ldexp:
  4460 ;; =============== function _ldexp ends ============
  4461                           
  4462                           	signat	_ldexp,8315
  4463                           	global	___lltoft
  4464                           psect	text752,local,class=CODE,delta=2
  4465                           global __ptext752
  4466  08F1                     __ptext752:
  4467                           
  4468 ;; *************** function ___lltoft *****************
  4469 ;; Defined at:
  4470 ;;		line 36 in file "C:\Program Files (x86)\HI-TECH Software\PICC\9.83\sources\lltoft.c"
  4471 ;; Parameters:    Size  Location     Type
  4472 ;;  c               4    8[COMMON] unsigned long 
  4473 ;; Auto vars:     Size  Location     Type
  4474 ;;  exp             1   13[COMMON] unsigned char 
  4475 ;; Return value:  Size  Location     Type
  4476 ;;                  3    8[COMMON] float 
  4477 ;; Registers used:
  4478 ;;		wreg, status,2, status,0, pclath, cstack
  4479 ;; Tracked objects:
  4480 ;;		On entry : 0/0
  4481 ;;		On exit  : 0/0
  4482 ;;		Unchanged: 0/0
  4483 ;; Data sizes:     COMMON   BANK0   BANK1   BANK3   BANK2
  4484 ;;      Params:         4       0       0       0       0
  4485 ;;      Locals:         1       0       0       0       0
  4486 ;;      Temps:          1       0       0       0       0
  4487 ;;      Totals:         6       0       0       0       0
  4488 ;;Total ram usage:        6 bytes
  4489 ;; Hardware stack levels used:    1
  4490 ;; Hardware stack levels required when called:    1
  4491 ;; This function calls:
  4492 ;;		___ftpack
  4493 ;; This function is called by:
  4494 ;;		_pow
  4495 ;; This function uses a non-reentrant model
  4496 ;;
  4497                           psect	text752
  4498                           	file	"C:\Program Files (x86)\HI-TECH Software\PICC\9.83\sources\lltoft.c"
  4499                           	line	36
  4500                           	global	__size_of___lltoft
  4501  0032                     	__size_of___lltoft	equ	__end_of___lltoft-___lltoft
  4502                           	
  4503  08F1                     ___lltoft:	
  4504                           	opt	stack 4
  4505                           ; Regs used in ___lltoft: [wreg+status,2+status,0+pclath+cstack]
  4506                           	line	38
  4507                           	
  4508  08F1                     l5949:	
  4509  08F1  308E               	movlw	(08Eh)
  4510  08F2  00FC               	movwf	(??___lltoft+0)+0
  4511  08F3  087C               	movf	(??___lltoft+0)+0,w
  4512  08F4  00FD               	movwf	(___lltoft@exp)
  4513                           	line	41
  4514  08F5  2904               	goto	l5953
  4515                           	
  4516  08F6                     l3095:	
  4517                           	line	42
  4518                           	
  4519  08F6                     l5951:	
  4520  08F6  3001               	movlw	01h
  4521  08F7                     u3825:
  4522  08F7  1003               	clrc
  4523  08F8  0CFB               	rrf	(___lltoft@c+3),f
  4524  08F9  0CFA               	rrf	(___lltoft@c+2),f
  4525  08FA  0CF9               	rrf	(___lltoft@c+1),f
  4526  08FB  0CF8               	rrf	(___lltoft@c),f
  4527  08FC  3EFF               	addlw	-1
  4528  08FD  1D03               	skipz
  4529  08FE  28F7               	goto	u3825
  4530                           
  4531                           	line	43
  4532  08FF  3001               	movlw	(01h)
  4533  0900  00FC               	movwf	(??___lltoft+0)+0
  4534  0901  087C               	movf	(??___lltoft+0)+0,w
  4535  0902  07FD               	addwf	(___lltoft@exp),f
  4536  0903  2904               	goto	l5953
  4537                           	line	44
  4538                           	
  4539  0904                     l3094:	
  4540                           	line	41
  4541                           	
  4542  0904                     l5953:	
  4543  0904  30FF               	movlw	high highword(-16777216)
  4544  0905  057B               	andwf	(___lltoft@c+3),w
  4545  0906  1D03               	btfss	status,2
  4546  0907  2909               	goto	u3831
  4547  0908  290A               	goto	u3830
  4548  0909                     u3831:
  4549  0909  28F6               	goto	l5951
  4550  090A                     u3830:
  4551  090A  290B               	goto	l5955
  4552                           	
  4553  090B                     l3096:	
  4554                           	line	45
  4555                           	
  4556  090B                     l5955:	
  4557  090B  0878               	movf	(___lltoft@c),w
  4558  090C  00F0               	movwf	(?___ftpack)
  4559  090D  0879               	movf	(___lltoft@c+1),w
  4560  090E  00F1               	movwf	(?___ftpack+1)
  4561  090F  087A               	movf	(___lltoft@c+2),w
  4562  0910  00F2               	movwf	(?___ftpack+2)
  4563  0911  087D               	movf	(___lltoft@exp),w
  4564  0912  00FC               	movwf	(??___lltoft+0)+0
  4565  0913  087C               	movf	(??___lltoft+0)+0,w
  4566  0914  00F3               	movwf	0+(?___ftpack)+03h
  4567  0915  01F4               	clrf	0+(?___ftpack)+04h
  4568  0916  120A  158A  23A8   	fcall	___ftpack
              120A  158A         
  4569  091B  0870               	movf	(0+(?___ftpack)),w
  4570  091C  00F8               	movwf	(?___lltoft)
  4571  091D  0871               	movf	(1+(?___ftpack)),w
  4572  091E  00F9               	movwf	(?___lltoft+1)
  4573  091F  0872               	movf	(2+(?___ftpack)),w
  4574  0920  00FA               	movwf	(?___lltoft+2)
  4575  0921  2922               	goto	l3097
  4576                           	
  4577  0922                     l5957:	
  4578                           	line	46
  4579                           	
  4580  0922                     l3097:	
  4581  0922  0008               	return
  4582                           	opt stack 0
  4583                           GLOBAL	__end_of___lltoft
  4584  0923                     	__end_of___lltoft:
  4585 ;; =============== function ___lltoft ends ============
  4586                           
  4587                           	signat	___lltoft,4219
  4588                           	global	___altoft
  4589                           psect	text753,local,class=CODE,delta=2
  4590                           global __ptext753
  4591  09BA                     __ptext753:
  4592                           
  4593 ;; *************** function ___altoft *****************
  4594 ;; Defined at:
  4595 ;;		line 43 in file "C:\Program Files (x86)\HI-TECH Software\PICC\9.83\sources\altoft.c"
  4596 ;; Parameters:    Size  Location     Type
  4597 ;;  c               4    0[BANK0 ] long 
  4598 ;; Auto vars:     Size  Location     Type
  4599 ;;  sign            1    7[BANK0 ] unsigned char 
  4600 ;;  exp             1    6[BANK0 ] unsigned char 
  4601 ;; Return value:  Size  Location     Type
  4602 ;;                  3    0[BANK0 ] float 
  4603 ;; Registers used:
  4604 ;;		wreg, status,2, status,0, pclath, cstack
  4605 ;; Tracked objects:
  4606 ;;		On entry : 0/0
  4607 ;;		On exit  : 0/0
  4608 ;;		Unchanged: 0/0
  4609 ;; Data sizes:     COMMON   BANK0   BANK1   BANK3   BANK2
  4610 ;;      Params:         0       4       0       0       0
  4611 ;;      Locals:         0       2       0       0       0
  4612 ;;      Temps:          0       2       0       0       0
  4613 ;;      Totals:         0       8       0       0       0
  4614 ;;Total ram usage:        8 bytes
  4615 ;; Hardware stack levels used:    1
  4616 ;; Hardware stack levels required when called:    1
  4617 ;; This function calls:
  4618 ;;		___ftpack
  4619 ;; This function is called by:
  4620 ;;		_floor
  4621 ;; This function uses a non-reentrant model
  4622 ;;
  4623                           psect	text753
  4624                           	file	"C:\Program Files (x86)\HI-TECH Software\PICC\9.83\sources\altoft.c"
  4625                           	line	43
  4626                           	global	__size_of___altoft
  4627  004D                     	__size_of___altoft	equ	__end_of___altoft-___altoft
  4628                           	
  4629  09BA                     ___altoft:	
  4630                           	opt	stack 2
  4631                           ; Regs used in ___altoft: [wreg+status,2+status,0+pclath+cstack]
  4632                           	line	45
  4633                           	
  4634  09BA                     l5931:	
  4635  09BA  1283               	bcf	status, 5	;RP0=0, select bank0
  4636  09BB  1303               	bcf	status, 6	;RP1=0, select bank0
  4637  09BC  01A7               	clrf	(___altoft@sign)
  4638                           	line	46
  4639                           	
  4640  09BD                     l5933:	
  4641  09BD  308E               	movlw	(08Eh)
  4642  09BE  00A4               	movwf	(??___altoft+0)+0
  4643  09BF  0824               	movf	(??___altoft+0)+0,w
  4644  09C0  00A6               	movwf	(___altoft@exp)
  4645                           	line	47
  4646                           	
  4647  09C1                     l5935:	
  4648  09C1  1FA3               	btfss	(___altoft@c+3),7
  4649  09C2  29C4               	goto	u3791
  4650  09C3  29C5               	goto	u3790
  4651  09C4                     u3791:
  4652  09C4  29E3               	goto	l5943
  4653  09C5                     u3790:
  4654                           	line	48
  4655                           	
  4656  09C5                     l5937:	
  4657  09C5  09A0               	comf	(___altoft@c),f
  4658  09C6  09A1               	comf	(___altoft@c+1),f
  4659  09C7  09A2               	comf	(___altoft@c+2),f
  4660  09C8  09A3               	comf	(___altoft@c+3),f
  4661  09C9  0AA0               	incf	(___altoft@c),f
  4662  09CA  1903               	skipnz
  4663  09CB  0AA1               	incf	(___altoft@c+1),f
  4664  09CC  1903               	skipnz
  4665  09CD  0AA2               	incf	(___altoft@c+2),f
  4666  09CE  1903               	skipnz
  4667  09CF  0AA3               	incf	(___altoft@c+3),f
  4668                           	line	49
  4669                           	
  4670  09D0                     l5939:	
  4671  09D0  01A7               	clrf	(___altoft@sign)
  4672  09D1  1403               	bsf	status,0
  4673  09D2  0DA7               	rlf	(___altoft@sign),f
  4674  09D3  29E3               	goto	l5943
  4675                           	line	50
  4676                           	
  4677  09D4                     l3085:	
  4678                           	line	52
  4679  09D4  29E3               	goto	l5943
  4680                           	
  4681  09D5                     l3087:	
  4682                           	line	53
  4683                           	
  4684  09D5                     l5941:	
  4685  09D5  3001               	movlw	01h
  4686  09D6                     u3805:
  4687  09D6  1003               	clrc
  4688  09D7  0CA3               	rrf	(___altoft@c+3),f
  4689  09D8  0CA2               	rrf	(___altoft@c+2),f
  4690  09D9  0CA1               	rrf	(___altoft@c+1),f
  4691  09DA  0CA0               	rrf	(___altoft@c),f
  4692  09DB  3EFF               	addlw	-1
  4693  09DC  1D03               	skipz
  4694  09DD  29D6               	goto	u3805
  4695                           
  4696                           	line	54
  4697  09DE  3001               	movlw	(01h)
  4698  09DF  00A4               	movwf	(??___altoft+0)+0
  4699  09E0  0824               	movf	(??___altoft+0)+0,w
  4700  09E1  07A6               	addwf	(___altoft@exp),f
  4701  09E2  29E3               	goto	l5943
  4702                           	line	55
  4703                           	
  4704  09E3                     l3086:	
  4705                           	line	52
  4706                           	
  4707  09E3                     l5943:	
  4708  09E3  30FF               	movlw	high highword(-16777216)
  4709  09E4  0523               	andwf	(___altoft@c+3),w
  4710  09E5  1D03               	btfss	status,2
  4711  09E6  29E8               	goto	u3811
  4712  09E7  29E9               	goto	u3810
  4713  09E8                     u3811:
  4714  09E8  29D5               	goto	l5941
  4715  09E9                     u3810:
  4716  09E9  29EA               	goto	l5945
  4717                           	
  4718  09EA                     l3088:	
  4719                           	line	56
  4720                           	
  4721  09EA                     l5945:	
  4722  09EA  0820               	movf	(___altoft@c),w
  4723  09EB  00F0               	movwf	(?___ftpack)
  4724  09EC  0821               	movf	(___altoft@c+1),w
  4725  09ED  00F1               	movwf	(?___ftpack+1)
  4726  09EE  0822               	movf	(___altoft@c+2),w
  4727  09EF  00F2               	movwf	(?___ftpack+2)
  4728  09F0  0826               	movf	(___altoft@exp),w
  4729  09F1  00A4               	movwf	(??___altoft+0)+0
  4730  09F2  0824               	movf	(??___altoft+0)+0,w
  4731  09F3  00F3               	movwf	0+(?___ftpack)+03h
  4732  09F4  0827               	movf	(___altoft@sign),w
  4733  09F5  00A5               	movwf	(??___altoft+1)+0
  4734  09F6  0825               	movf	(??___altoft+1)+0,w
  4735  09F7  00F4               	movwf	0+(?___ftpack)+04h
  4736  09F8  120A  158A  23A8   	fcall	___ftpack
              120A  158A         
  4737  09FD  0870               	movf	(0+(?___ftpack)),w
  4738  09FE  1283               	bcf	status, 5	;RP0=0, select bank0
  4739  09FF  1303               	bcf	status, 6	;RP1=0, select bank0
  4740  0A00  00A0               	movwf	(?___altoft)
  4741  0A01  0871               	movf	(1+(?___ftpack)),w
  4742  0A02  00A1               	movwf	(?___altoft+1)
  4743  0A03  0872               	movf	(2+(?___ftpack)),w
  4744  0A04  00A2               	movwf	(?___altoft+2)
  4745  0A05  2A06               	goto	l3089
  4746                           	
  4747  0A06                     l5947:	
  4748                           	line	57
  4749                           	
  4750  0A06                     l3089:	
  4751  0A06  0008               	return
  4752                           	opt stack 0
  4753                           GLOBAL	__end_of___altoft
  4754  0A07                     	__end_of___altoft:
  4755 ;; =============== function ___altoft ends ============
  4756                           
  4757                           	signat	___altoft,4219
  4758                           	global	___awtoft
  4759                           psect	text754,local,class=CODE,delta=2
  4760                           global __ptext754
  4761  089C                     __ptext754:
  4762                           
  4763 ;; *************** function ___awtoft *****************
  4764 ;; Defined at:
  4765 ;;		line 33 in file "C:\Program Files (x86)\HI-TECH Software\PICC\9.83\sources\awtoft.c"
  4766 ;; Parameters:    Size  Location     Type
  4767 ;;  c               2   11[COMMON] int 
  4768 ;; Auto vars:     Size  Location     Type
  4769 ;;  sign            1    2[BANK0 ] unsigned char 
  4770 ;; Return value:  Size  Location     Type
  4771 ;;                  3   11[COMMON] float 
  4772 ;; Registers used:
  4773 ;;		wreg, status,2, status,0, pclath, cstack
  4774 ;; Tracked objects:
  4775 ;;		On entry : 0/0
  4776 ;;		On exit  : 0/0
  4777 ;;		Unchanged: 0/0
  4778 ;; Data sizes:     COMMON   BANK0   BANK1   BANK3   BANK2
  4779 ;;      Params:         3       0       0       0       0
  4780 ;;      Locals:         0       1       0       0       0
  4781 ;;      Temps:          0       2       0       0       0
  4782 ;;      Totals:         3       3       0       0       0
  4783 ;;Total ram usage:        6 bytes
  4784 ;; Hardware stack levels used:    1
  4785 ;; Hardware stack levels required when called:    1
  4786 ;; This function calls:
  4787 ;;		___ftpack
  4788 ;; This function is called by:
  4789 ;;		_ftoa
  4790 ;;		_exp
  4791 ;;		_log
  4792 ;; This function uses a non-reentrant model
  4793 ;;
  4794                           psect	text754
  4795                           	file	"C:\Program Files (x86)\HI-TECH Software\PICC\9.83\sources\awtoft.c"
  4796                           	line	33
  4797                           	global	__size_of___awtoft
  4798  002A                     	__size_of___awtoft	equ	__end_of___awtoft-___awtoft
  4799                           	
  4800  089C                     ___awtoft:	
  4801                           	opt	stack 3
  4802                           ; Regs used in ___awtoft: [wreg+status,2+status,0+pclath+cstack]
  4803                           	line	36
  4804                           	
  4805  089C                     l5923:	
  4806  089C  1283               	bcf	status, 5	;RP0=0, select bank0
  4807  089D  1303               	bcf	status, 6	;RP1=0, select bank0
  4808  089E  01A2               	clrf	(___awtoft@sign)
  4809                           	line	37
  4810  089F  1FFC               	btfss	(___awtoft@c+1),7
  4811  08A0  28A2               	goto	u3781
  4812  08A1  28A3               	goto	u3780
  4813  08A2                     u3781:
  4814  08A2  28AC               	goto	l5927
  4815  08A3                     u3780:
  4816                           	line	38
  4817                           	
  4818  08A3                     l5925:	
  4819  08A3  09FB               	comf	(___awtoft@c),f
  4820  08A4  09FC               	comf	(___awtoft@c+1),f
  4821  08A5  0AFB               	incf	(___awtoft@c),f
  4822  08A6  1903               	skipnz
  4823  08A7  0AFC               	incf	(___awtoft@c+1),f
  4824                           	line	39
  4825  08A8  01A2               	clrf	(___awtoft@sign)
  4826  08A9  1403               	bsf	status,0
  4827  08AA  0DA2               	rlf	(___awtoft@sign),f
  4828  08AB  28AC               	goto	l5927
  4829                           	line	40
  4830                           	
  4831  08AC                     l2993:	
  4832                           	line	41
  4833                           	
  4834  08AC                     l5927:	
  4835  08AC  087B               	movf	(___awtoft@c),w
  4836  08AD  00F0               	movwf	(?___ftpack)
  4837  08AE  087C               	movf	(___awtoft@c+1),w
  4838  08AF  00F1               	movwf	(?___ftpack+1)
  4839  08B0  01F2               	clrf	(?___ftpack+2)
  4840  08B1  308E               	movlw	(08Eh)
  4841  08B2  00A0               	movwf	(??___awtoft+0)+0
  4842  08B3  0820               	movf	(??___awtoft+0)+0,w
  4843  08B4  00F3               	movwf	0+(?___ftpack)+03h
  4844  08B5  0822               	movf	(___awtoft@sign),w
  4845  08B6  00A1               	movwf	(??___awtoft+1)+0
  4846  08B7  0821               	movf	(??___awtoft+1)+0,w
  4847  08B8  00F4               	movwf	0+(?___ftpack)+04h
  4848  08B9  120A  158A  23A8   	fcall	___ftpack
              120A  158A         
  4849  08BE  0870               	movf	(0+(?___ftpack)),w
  4850  08BF  00FB               	movwf	(?___awtoft)
  4851  08C0  0871               	movf	(1+(?___ftpack)),w
  4852  08C1  00FC               	movwf	(?___awtoft+1)
  4853  08C2  0872               	movf	(2+(?___ftpack)),w
  4854  08C3  00FD               	movwf	(?___awtoft+2)
  4855  08C4  28C5               	goto	l2994
  4856                           	
  4857  08C5                     l5929:	
  4858                           	line	42
  4859                           	
  4860  08C5                     l2994:	
  4861  08C5  0008               	return
  4862                           	opt stack 0
  4863                           GLOBAL	__end_of___awtoft
  4864  08C6                     	__end_of___awtoft:
  4865 ;; =============== function ___awtoft ends ============
  4866                           
  4867                           	signat	___awtoft,4219
  4868                           	global	___lbtoft
  4869                           psect	text755,local,class=CODE,delta=2
  4870                           global __ptext755
  4871  1781                     __ptext755:
  4872                           
  4873 ;; *************** function ___lbtoft *****************
  4874 ;; Defined at:
  4875 ;;		line 28 in file "C:\Program Files (x86)\HI-TECH Software\PICC\9.83\sources\lbtoft.c"
  4876 ;; Parameters:    Size  Location     Type
  4877 ;;  c               1    wreg     unsigned char 
  4878 ;; Auto vars:     Size  Location     Type
  4879 ;;  c               1   11[COMMON] unsigned char 
  4880 ;; Return value:  Size  Location     Type
  4881 ;;                  3    8[COMMON] float 
  4882 ;; Registers used:
  4883 ;;		wreg, status,2, status,0, pclath, cstack
  4884 ;; Tracked objects:
  4885 ;;		On entry : 0/0
  4886 ;;		On exit  : 0/0
  4887 ;;		Unchanged: 0/0
  4888 ;; Data sizes:     COMMON   BANK0   BANK1   BANK3   BANK2
  4889 ;;      Params:         3       0       0       0       0
  4890 ;;      Locals:         1       0       0       0       0
  4891 ;;      Temps:          0       4       0       0       0
  4892 ;;      Totals:         4       4       0       0       0
  4893 ;;Total ram usage:        8 bytes
  4894 ;; Hardware stack levels used:    1
  4895 ;; Hardware stack levels required when called:    1
  4896 ;; This function calls:
  4897 ;;		___ftpack
  4898 ;; This function is called by:
  4899 ;;		_read_a2d
  4900 ;; This function uses a non-reentrant model
  4901 ;;
  4902                           psect	text755
  4903                           	file	"C:\Program Files (x86)\HI-TECH Software\PICC\9.83\sources\lbtoft.c"
  4904                           	line	28
  4905                           	global	__size_of___lbtoft
  4906  001F                     	__size_of___lbtoft	equ	__end_of___lbtoft-___lbtoft
  4907                           	
  4908  1781                     ___lbtoft:	
  4909                           	opt	stack 5
  4910                           ; Regs used in ___lbtoft: [wreg+status,2+status,0+pclath+cstack]
  4911                           ;___lbtoft@c stored from wreg
  4912  1781  00FB               	movwf	(___lbtoft@c)
  4913                           	line	29
  4914                           	
  4915  1782                     l5919:	
  4916  1782  087B               	movf	(___lbtoft@c),w
  4917  1783  1283               	bcf	status, 5	;RP0=0, select bank0
  4918  1784  1303               	bcf	status, 6	;RP1=0, select bank0
  4919  1785  00A0               	movwf	((??___lbtoft+0)+0)
  4920  1786  01A1               	clrf	((??___lbtoft+0)+0+1)
  4921  1787  01A2               	clrf	((??___lbtoft+0)+0+2)
  4922  1788  0820               	movf	0+(??___lbtoft+0)+0,w
  4923  1789  00F0               	movwf	(?___ftpack)
  4924  178A  0821               	movf	1+(??___lbtoft+0)+0,w
  4925  178B  00F1               	movwf	(?___ftpack+1)
  4926  178C  0822               	movf	2+(??___lbtoft+0)+0,w
  4927  178D  00F2               	movwf	(?___ftpack+2)
  4928  178E  308E               	movlw	(08Eh)
  4929  178F  00A3               	movwf	(??___lbtoft+3)+0
  4930  1790  0823               	movf	(??___lbtoft+3)+0,w
  4931  1791  00F3               	movwf	0+(?___ftpack)+03h
  4932  1792  01F4               	clrf	0+(?___ftpack)+04h
  4933  1793  120A  158A  23A8   	fcall	___ftpack
              160A  118A         
  4934  1798  0870               	movf	(0+(?___ftpack)),w
  4935  1799  00F8               	movwf	(?___lbtoft)
  4936  179A  0871               	movf	(1+(?___ftpack)),w
  4937  179B  00F9               	movwf	(?___lbtoft+1)
  4938  179C  0872               	movf	(2+(?___ftpack)),w
  4939  179D  00FA               	movwf	(?___lbtoft+2)
  4940  179E  2F9F               	goto	l2982
  4941                           	
  4942  179F                     l5921:	
  4943                           	line	30
  4944                           	
  4945  179F                     l2982:	
  4946  179F  0008               	return
  4947                           	opt stack 0
  4948                           GLOBAL	__end_of___lbtoft
  4949  17A0                     	__end_of___lbtoft:
  4950 ;; =============== function ___lbtoft ends ============
  4951                           
  4952                           	signat	___lbtoft,4219
  4953                           	global	___ftmul
  4954                           psect	text756,local,class=CODE,delta=2
  4955                           global __ptext756
  4956  0204                     __ptext756:
  4957                           
  4958 ;; *************** function ___ftmul *****************
  4959 ;; Defined at:
  4960 ;;		line 52 in file "C:\Program Files (x86)\HI-TECH Software\PICC\9.83\sources\ftmul.c"
  4961 ;; Parameters:    Size  Location     Type
  4962 ;;  f1              3    3[BANK0 ] float 
  4963 ;;  f2              3    6[BANK0 ] float 
  4964 ;; Auto vars:     Size  Location     Type
  4965 ;;  f3_as_produc    3   14[BANK0 ] unsigned um
  4966 ;;  sign            1   18[BANK0 ] unsigned char 
  4967 ;;  cntr            1   17[BANK0 ] unsigned char 
  4968 ;;  exp             1   13[BANK0 ] unsigned char 
  4969 ;; Return value:  Size  Location     Type
  4970 ;;                  3    3[BANK0 ] float 
  4971 ;; Registers used:
  4972 ;;		wreg, status,2, status,0, pclath, cstack
  4973 ;; Tracked objects:
  4974 ;;		On entry : 0/0
  4975 ;;		On exit  : 0/0
  4976 ;;		Unchanged: 0/0
  4977 ;; Data sizes:     COMMON   BANK0   BANK1   BANK3   BANK2
  4978 ;;      Params:         0       6       0       0       0
  4979 ;;      Locals:         0       6       0       0       0
  4980 ;;      Temps:          0       4       0       0       0
  4981 ;;      Totals:         0      16       0       0       0
  4982 ;;Total ram usage:       16 bytes
  4983 ;; Hardware stack levels used:    1
  4984 ;; Hardware stack levels required when called:    1
  4985 ;; This function calls:
  4986 ;;		___ftpack
  4987 ;; This function is called by:
  4988 ;;		_ftoa
  4989 ;;		_pow
  4990 ;;		_exp
  4991 ;;		_log
  4992 ;;		_eval_poly
  4993 ;;		_log10
  4994 ;; This function uses a non-reentrant model
  4995 ;;
  4996                           psect	text756
  4997                           	file	"C:\Program Files (x86)\HI-TECH Software\PICC\9.83\sources\ftmul.c"
  4998                           	line	52
  4999                           	global	__size_of___ftmul
  5000  00EE                     	__size_of___ftmul	equ	__end_of___ftmul-___ftmul
  5001                           	
  5002  0204                     ___ftmul:	
  5003                           	opt	stack 5
  5004                           ; Regs used in ___ftmul: [wreg+status,2+status,0+pclath+cstack]
  5005                           	line	56
  5006                           	
  5007  0204                     l5869:	
  5008  0204  1283               	bcf	status, 5	;RP0=0, select bank0
  5009  0205  1303               	bcf	status, 6	;RP1=0, select bank0
  5010  0206  0823               	movf	(___ftmul@f1),w
  5011  0207  00A9               	movwf	((??___ftmul+0)+0)
  5012  0208  0824               	movf	(___ftmul@f1+1),w
  5013  0209  00AA               	movwf	((??___ftmul+0)+0+1)
  5014  020A  0825               	movf	(___ftmul@f1+2),w
  5015  020B  00AB               	movwf	((??___ftmul+0)+0+2)
  5016  020C  1003               	clrc
  5017  020D  0D2A               	rlf	(??___ftmul+0)+1,w
  5018  020E  0D2B               	rlf	(??___ftmul+0)+2,w
  5019  020F  00AC               	movwf	(??___ftmul+3)+0
  5020  0210  082C               	movf	(??___ftmul+3)+0,w
  5021  0211  00AD               	movwf	(___ftmul@exp)
  5022  0212  08AD               	movf	((___ftmul@exp)),f
  5023  0213  1D03               	skipz
  5024  0214  2A16               	goto	u3641
  5025  0215  2A17               	goto	u3640
  5026  0216                     u3641:
  5027  0216  2A1F               	goto	l5875
  5028  0217                     u3640:
  5029                           	line	57
  5030                           	
  5031  0217                     l5871:	
  5032  0217  3000               	movlw	0x0
  5033  0218  00A3               	movwf	(?___ftmul)
  5034  0219  3000               	movlw	0x0
  5035  021A  00A4               	movwf	(?___ftmul+1)
  5036  021B  3000               	movlw	0x0
  5037  021C  00A5               	movwf	(?___ftmul+2)
  5038  021D  2AF1               	goto	l2956
  5039                           	
  5040  021E                     l5873:	
  5041  021E  2AF1               	goto	l2956
  5042                           	
  5043  021F                     l2955:	
  5044                           	line	58
  5045                           	
  5046  021F                     l5875:	
  5047  021F  0826               	movf	(___ftmul@f2),w
  5048  0220  00A9               	movwf	((??___ftmul+0)+0)
  5049  0221  0827               	movf	(___ftmul@f2+1),w
  5050  0222  00AA               	movwf	((??___ftmul+0)+0+1)
  5051  0223  0828               	movf	(___ftmul@f2+2),w
  5052  0224  00AB               	movwf	((??___ftmul+0)+0+2)
  5053  0225  1003               	clrc
  5054  0226  0D2A               	rlf	(??___ftmul+0)+1,w
  5055  0227  0D2B               	rlf	(??___ftmul+0)+2,w
  5056  0228  00AC               	movwf	(??___ftmul+3)+0
  5057  0229  082C               	movf	(??___ftmul+3)+0,w
  5058  022A  00B2               	movwf	(___ftmul@sign)
  5059  022B  08B2               	movf	((___ftmul@sign)),f
  5060  022C  1D03               	skipz
  5061  022D  2A2F               	goto	u3651
  5062  022E  2A30               	goto	u3650
  5063  022F                     u3651:
  5064  022F  2A38               	goto	l5881
  5065  0230                     u3650:
  5066                           	line	59
  5067                           	
  5068  0230                     l5877:	
  5069  0230  3000               	movlw	0x0
  5070  0231  00A3               	movwf	(?___ftmul)
  5071  0232  3000               	movlw	0x0
  5072  0233  00A4               	movwf	(?___ftmul+1)
  5073  0234  3000               	movlw	0x0
  5074  0235  00A5               	movwf	(?___ftmul+2)
  5075  0236  2AF1               	goto	l2956
  5076                           	
  5077  0237                     l5879:	
  5078  0237  2AF1               	goto	l2956
  5079                           	
  5080  0238                     l2957:	
  5081                           	line	60
  5082                           	
  5083  0238                     l5881:	
  5084  0238  0832               	movf	(___ftmul@sign),w
  5085  0239  3E7B               	addlw	07Bh
  5086  023A  00A9               	movwf	(??___ftmul+0)+0
  5087  023B  0829               	movf	(??___ftmul+0)+0,w
  5088  023C  07AD               	addwf	(___ftmul@exp),f
  5089                           	line	61
  5090  023D  0823               	movf	(___ftmul@f1),w
  5091  023E  00A9               	movwf	((??___ftmul+0)+0)
  5092  023F  0824               	movf	(___ftmul@f1+1),w
  5093  0240  00AA               	movwf	((??___ftmul+0)+0+1)
  5094  0241  0825               	movf	(___ftmul@f1+2),w
  5095  0242  00AB               	movwf	((??___ftmul+0)+0+2)
  5096  0243  3010               	movlw	010h
  5097  0244                     u3665:
  5098  0244  1003               	clrc
  5099  0245  0CAB               	rrf	(??___ftmul+0)+2,f
  5100  0246  0CAA               	rrf	(??___ftmul+0)+1,f
  5101  0247  0CA9               	rrf	(??___ftmul+0)+0,f
  5102  0248                     u3660:
  5103  0248  3EFF               	addlw	-1
  5104  0249  1D03               	skipz
  5105  024A  2A44               	goto	u3665
  5106  024B  0829               	movf	0+(??___ftmul+0)+0,w
  5107  024C  00AC               	movwf	(??___ftmul+3)+0
  5108  024D  082C               	movf	(??___ftmul+3)+0,w
  5109  024E  00B2               	movwf	(___ftmul@sign)
  5110                           	line	62
  5111  024F  0826               	movf	(___ftmul@f2),w
  5112  0250  00A9               	movwf	((??___ftmul+0)+0)
  5113  0251  0827               	movf	(___ftmul@f2+1),w
  5114  0252  00AA               	movwf	((??___ftmul+0)+0+1)
  5115  0253  0828               	movf	(___ftmul@f2+2),w
  5116  0254  00AB               	movwf	((??___ftmul+0)+0+2)
  5117  0255  3010               	movlw	010h
  5118  0256                     u3675:
  5119  0256  1003               	clrc
  5120  0257  0CAB               	rrf	(??___ftmul+0)+2,f
  5121  0258  0CAA               	rrf	(??___ftmul+0)+1,f
  5122  0259  0CA9               	rrf	(??___ftmul+0)+0,f
  5123  025A                     u3670:
  5124  025A  3EFF               	addlw	-1
  5125  025B  1D03               	skipz
  5126  025C  2A56               	goto	u3675
  5127  025D  0829               	movf	0+(??___ftmul+0)+0,w
  5128  025E  00AC               	movwf	(??___ftmul+3)+0
  5129  025F  082C               	movf	(??___ftmul+3)+0,w
  5130  0260  06B2               	xorwf	(___ftmul@sign),f
  5131                           	line	63
  5132  0261  3080               	movlw	(080h)
  5133  0262  00A9               	movwf	(??___ftmul+0)+0
  5134  0263  0829               	movf	(??___ftmul+0)+0,w
  5135  0264  05B2               	andwf	(___ftmul@sign),f
  5136                           	line	64
  5137                           	
  5138  0265                     l5883:	
  5139  0265  17A4               	bsf	(___ftmul@f1)+(15/8),(15)&7
  5140                           	line	66
  5141                           	
  5142  0266                     l5885:	
  5143  0266  17A7               	bsf	(___ftmul@f2)+(15/8),(15)&7
  5144                           	line	67
  5145                           	
  5146  0267                     l5887:	
  5147  0267  30FF               	movlw	0FFh
  5148  0268  05A6               	andwf	(___ftmul@f2),f
  5149  0269  30FF               	movlw	0FFh
  5150  026A  05A7               	andwf	(___ftmul@f2+1),f
  5151  026B  3000               	movlw	0
  5152  026C  05A8               	andwf	(___ftmul@f2+2),f
  5153                           	line	68
  5154                           	
  5155  026D                     l5889:	
  5156  026D  3000               	movlw	0
  5157  026E  00AE               	movwf	(___ftmul@f3_as_product)
  5158  026F  3000               	movlw	0
  5159  0270  00AF               	movwf	(___ftmul@f3_as_product+1)
  5160  0271  3000               	movlw	0
  5161  0272  00B0               	movwf	(___ftmul@f3_as_product+2)
  5162                           	line	69
  5163                           	
  5164  0273                     l5891:	
  5165  0273  3007               	movlw	(07h)
  5166  0274  00A9               	movwf	(??___ftmul+0)+0
  5167  0275  0829               	movf	(??___ftmul+0)+0,w
  5168  0276  00B1               	movwf	(___ftmul@cntr)
  5169  0277  2A78               	goto	l5893
  5170                           	line	70
  5171                           	
  5172  0278                     l2958:	
  5173                           	line	71
  5174                           	
  5175  0278                     l5893:	
  5176  0278  1C23               	btfss	(___ftmul@f1),(0)&7
  5177  0279  2A7B               	goto	u3681
  5178  027A  2A7C               	goto	u3680
  5179  027B                     u3681:
  5180  027B  2A8D               	goto	l5897
  5181  027C                     u3680:
  5182                           	line	72
  5183                           	
  5184  027C                     l5895:	
  5185  027C  0826               	movf	(___ftmul@f2),w
  5186  027D  07AE               	addwf	(___ftmul@f3_as_product),f
  5187  027E  0827               	movf	(___ftmul@f2+1),w
  5188  027F  1103               	clrz
  5189  0280  1803               	skipnc
  5190  0281  0A27               	incf	(___ftmul@f2+1),w
  5191  0282  1903               	skipnz
  5192  0283  2A85               	goto	u3691
  5193  0284  07AF               	addwf	(___ftmul@f3_as_product+1),f
  5194  0285                     u3691:
  5195  0285  0828               	movf	(___ftmul@f2+2),w
  5196  0286  1103               	clrz
  5197  0287  1803               	skipnc
  5198  0288  0A28               	incf	(___ftmul@f2+2),w
  5199  0289  1903               	skipnz
  5200  028A  2A8C               	goto	u3692
  5201  028B  07B0               	addwf	(___ftmul@f3_as_product+2),f
  5202  028C                     u3692:
  5203                           
  5204  028C  2A8D               	goto	l5897
  5205                           	
  5206  028D                     l2959:	
  5207                           	line	73
  5208                           	
  5209  028D                     l5897:	
  5210  028D  3001               	movlw	01h
  5211  028E                     u3705:
  5212  028E  1003               	clrc
  5213  028F  0CA5               	rrf	(___ftmul@f1+2),f
  5214  0290  0CA4               	rrf	(___ftmul@f1+1),f
  5215  0291  0CA3               	rrf	(___ftmul@f1),f
  5216  0292  3EFF               	addlw	-1
  5217  0293  1D03               	skipz
  5218  0294  2A8E               	goto	u3705
  5219                           
  5220                           	line	74
  5221                           	
  5222  0295                     l5899:	
  5223  0295  3001               	movlw	01h
  5224  0296                     u3715:
  5225  0296  1003               	clrc
  5226  0297  0DA6               	rlf	(___ftmul@f2),f
  5227  0298  0DA7               	rlf	(___ftmul@f2+1),f
  5228  0299  0DA8               	rlf	(___ftmul@f2+2),f
  5229  029A  3EFF               	addlw	-1
  5230  029B  1D03               	skipz
  5231  029C  2A96               	goto	u3715
  5232                           	line	75
  5233                           	
  5234  029D                     l5901:	
  5235  029D  3001               	movlw	low(01h)
  5236  029E  02B1               	subwf	(___ftmul@cntr),f
  5237  029F  1D03               	btfss	status,2
  5238  02A0  2AA2               	goto	u3721
  5239  02A1  2AA3               	goto	u3720
  5240  02A2                     u3721:
  5241  02A2  2A78               	goto	l5893
  5242  02A3                     u3720:
  5243  02A3  2AA4               	goto	l5903
  5244                           	
  5245  02A4                     l2960:	
  5246                           	line	76
  5247                           	
  5248  02A4                     l5903:	
  5249  02A4  3009               	movlw	(09h)
  5250  02A5  00A9               	movwf	(??___ftmul+0)+0
  5251  02A6  0829               	movf	(??___ftmul+0)+0,w
  5252  02A7  00B1               	movwf	(___ftmul@cntr)
  5253  02A8  2AA9               	goto	l5905
  5254                           	line	77
  5255                           	
  5256  02A9                     l2961:	
  5257                           	line	78
  5258                           	
  5259  02A9                     l5905:	
  5260  02A9  1C23               	btfss	(___ftmul@f1),(0)&7
  5261  02AA  2AAC               	goto	u3731
  5262  02AB  2AAD               	goto	u3730
  5263  02AC                     u3731:
  5264  02AC  2ABE               	goto	l5909
  5265  02AD                     u3730:
  5266                           	line	79
  5267                           	
  5268  02AD                     l5907:	
  5269  02AD  0826               	movf	(___ftmul@f2),w
  5270  02AE  07AE               	addwf	(___ftmul@f3_as_product),f
  5271  02AF  0827               	movf	(___ftmul@f2+1),w
  5272  02B0  1103               	clrz
  5273  02B1  1803               	skipnc
  5274  02B2  0A27               	incf	(___ftmul@f2+1),w
  5275  02B3  1903               	skipnz
  5276  02B4  2AB6               	goto	u3741
  5277  02B5  07AF               	addwf	(___ftmul@f3_as_product+1),f
  5278  02B6                     u3741:
  5279  02B6  0828               	movf	(___ftmul@f2+2),w
  5280  02B7  1103               	clrz
  5281  02B8  1803               	skipnc
  5282  02B9  0A28               	incf	(___ftmul@f2+2),w
  5283  02BA  1903               	skipnz
  5284  02BB  2ABD               	goto	u3742
  5285  02BC  07B0               	addwf	(___ftmul@f3_as_product+2),f
  5286  02BD                     u3742:
  5287                           
  5288  02BD  2ABE               	goto	l5909
  5289                           	
  5290  02BE                     l2962:	
  5291                           	line	80
  5292                           	
  5293  02BE                     l5909:	
  5294  02BE  3001               	movlw	01h
  5295  02BF                     u3755:
  5296  02BF  1003               	clrc
  5297  02C0  0CA5               	rrf	(___ftmul@f1+2),f
  5298  02C1  0CA4               	rrf	(___ftmul@f1+1),f
  5299  02C2  0CA3               	rrf	(___ftmul@f1),f
  5300  02C3  3EFF               	addlw	-1
  5301  02C4  1D03               	skipz
  5302  02C5  2ABF               	goto	u3755
  5303                           
  5304                           	line	81
  5305                           	
  5306  02C6                     l5911:	
  5307  02C6  3001               	movlw	01h
  5308  02C7                     u3765:
  5309  02C7  1003               	clrc
  5310  02C8  0CB0               	rrf	(___ftmul@f3_as_product+2),f
  5311  02C9  0CAF               	rrf	(___ftmul@f3_as_product+1),f
  5312  02CA  0CAE               	rrf	(___ftmul@f3_as_product),f
  5313  02CB  3EFF               	addlw	-1
  5314  02CC  1D03               	skipz
  5315  02CD  2AC7               	goto	u3765
  5316                           
  5317                           	line	82
  5318                           	
  5319  02CE                     l5913:	
  5320  02CE  3001               	movlw	low(01h)
  5321  02CF  02B1               	subwf	(___ftmul@cntr),f
  5322  02D0  1D03               	btfss	status,2
  5323  02D1  2AD3               	goto	u3771
  5324  02D2  2AD4               	goto	u3770
  5325  02D3                     u3771:
  5326  02D3  2AA9               	goto	l5905
  5327  02D4                     u3770:
  5328  02D4  2AD5               	goto	l5915
  5329                           	
  5330  02D5                     l2963:	
  5331                           	line	83
  5332                           	
  5333  02D5                     l5915:	
  5334  02D5  082E               	movf	(___ftmul@f3_as_product),w
  5335  02D6  00F0               	movwf	(?___ftpack)
  5336  02D7  082F               	movf	(___ftmul@f3_as_product+1),w
  5337  02D8  00F1               	movwf	(?___ftpack+1)
  5338  02D9  0830               	movf	(___ftmul@f3_as_product+2),w
  5339  02DA  00F2               	movwf	(?___ftpack+2)
  5340  02DB  082D               	movf	(___ftmul@exp),w
  5341  02DC  00A9               	movwf	(??___ftmul+0)+0
  5342  02DD  0829               	movf	(??___ftmul+0)+0,w
  5343  02DE  00F3               	movwf	0+(?___ftpack)+03h
  5344  02DF  0832               	movf	(___ftmul@sign),w
  5345  02E0  00AA               	movwf	(??___ftmul+1)+0
  5346  02E1  082A               	movf	(??___ftmul+1)+0,w
  5347  02E2  00F4               	movwf	0+(?___ftpack)+04h
  5348  02E3  120A  158A  23A8   	fcall	___ftpack
              120A  118A         
  5349  02E8  0870               	movf	(0+(?___ftpack)),w
  5350  02E9  1283               	bcf	status, 5	;RP0=0, select bank0
  5351  02EA  1303               	bcf	status, 6	;RP1=0, select bank0
  5352  02EB  00A3               	movwf	(?___ftmul)
  5353  02EC  0871               	movf	(1+(?___ftpack)),w
  5354  02ED  00A4               	movwf	(?___ftmul+1)
  5355  02EE  0872               	movf	(2+(?___ftpack)),w
  5356  02EF  00A5               	movwf	(?___ftmul+2)
  5357  02F0  2AF1               	goto	l2956
  5358                           	
  5359  02F1                     l5917:	
  5360                           	line	84
  5361                           	
  5362  02F1                     l2956:	
  5363  02F1  0008               	return
  5364                           	opt stack 0
  5365                           GLOBAL	__end_of___ftmul
  5366  02F2                     	__end_of___ftmul:
  5367 ;; =============== function ___ftmul ends ============
  5368                           
  5369                           	signat	___ftmul,8315
  5370                           	global	___ftdiv
  5371                           psect	text757,local,class=CODE,delta=2
  5372                           global __ptext757
  5373  0F3A                     __ptext757:
  5374                           
  5375 ;; *************** function ___ftdiv *****************
  5376 ;; Defined at:
  5377 ;;		line 50 in file "C:\Program Files (x86)\HI-TECH Software\PICC\9.83\sources\ftdiv.c"
  5378 ;; Parameters:    Size  Location     Type
  5379 ;;  f2              3    8[COMMON] float 
  5380 ;;  f1              3   11[COMMON] float 
  5381 ;; Auto vars:     Size  Location     Type
  5382 ;;  f3              3    5[BANK0 ] float 
  5383 ;;  sign            1    9[BANK0 ] unsigned char 
  5384 ;;  exp             1    8[BANK0 ] unsigned char 
  5385 ;;  cntr            1    4[BANK0 ] unsigned char 
  5386 ;; Return value:  Size  Location     Type
  5387 ;;                  3    8[COMMON] float 
  5388 ;; Registers used:
  5389 ;;		wreg, status,2, status,0, pclath, cstack
  5390 ;; Tracked objects:
  5391 ;;		On entry : 0/0
  5392 ;;		On exit  : 0/0
  5393 ;;		Unchanged: 0/0
  5394 ;; Data sizes:     COMMON   BANK0   BANK1   BANK3   BANK2
  5395 ;;      Params:         6       0       0       0       0
  5396 ;;      Locals:         0       6       0       0       0
  5397 ;;      Temps:          0       4       0       0       0
  5398 ;;      Totals:         6      10       0       0       0
  5399 ;;Total ram usage:       16 bytes
  5400 ;; Hardware stack levels used:    1
  5401 ;; Hardware stack levels required when called:    1
  5402 ;; This function calls:
  5403 ;;		___ftpack
  5404 ;; This function is called by:
  5405 ;;		_main
  5406 ;;		_exp
  5407 ;; This function uses a non-reentrant model
  5408 ;;
  5409                           psect	text757
  5410                           	file	"C:\Program Files (x86)\HI-TECH Software\PICC\9.83\sources\ftdiv.c"
  5411                           	line	50
  5412                           	global	__size_of___ftdiv
  5413  00C6                     	__size_of___ftdiv	equ	__end_of___ftdiv-___ftdiv
  5414                           	
  5415  0F3A                     ___ftdiv:	
  5416                           	opt	stack 3
  5417                           ; Regs used in ___ftdiv: [wreg+status,2+status,0+pclath+cstack]
  5418                           	line	55
  5419                           	
  5420  0F3A                     l5827:	
  5421  0F3A  087B               	movf	(___ftdiv@f1),w
  5422  0F3B  1283               	bcf	status, 5	;RP0=0, select bank0
  5423  0F3C  1303               	bcf	status, 6	;RP1=0, select bank0
  5424  0F3D  00A0               	movwf	((??___ftdiv+0)+0)
  5425  0F3E  087C               	movf	(___ftdiv@f1+1),w
  5426  0F3F  00A1               	movwf	((??___ftdiv+0)+0+1)
  5427  0F40  087D               	movf	(___ftdiv@f1+2),w
  5428  0F41  00A2               	movwf	((??___ftdiv+0)+0+2)
  5429  0F42  1003               	clrc
  5430  0F43  0D21               	rlf	(??___ftdiv+0)+1,w
  5431  0F44  0D22               	rlf	(??___ftdiv+0)+2,w
  5432  0F45  00A3               	movwf	(??___ftdiv+3)+0
  5433  0F46  0823               	movf	(??___ftdiv+3)+0,w
  5434  0F47  00A8               	movwf	(___ftdiv@exp)
  5435  0F48  08A8               	movf	((___ftdiv@exp)),f
  5436  0F49  1D03               	skipz
  5437  0F4A  2F4C               	goto	u3561
  5438  0F4B  2F4D               	goto	u3560
  5439  0F4C                     u3561:
  5440  0F4C  2F55               	goto	l5833
  5441  0F4D                     u3560:
  5442                           	line	56
  5443                           	
  5444  0F4D                     l5829:	
  5445  0F4D  3000               	movlw	0x0
  5446  0F4E  00F8               	movwf	(?___ftdiv)
  5447  0F4F  3000               	movlw	0x0
  5448  0F50  00F9               	movwf	(?___ftdiv+1)
  5449  0F51  3000               	movlw	0x0
  5450  0F52  00FA               	movwf	(?___ftdiv+2)
  5451  0F53  2FFF               	goto	l2946
  5452                           	
  5453  0F54                     l5831:	
  5454  0F54  2FFF               	goto	l2946
  5455                           	
  5456  0F55                     l2945:	
  5457                           	line	57
  5458                           	
  5459  0F55                     l5833:	
  5460  0F55  0878               	movf	(___ftdiv@f2),w
  5461  0F56  00A0               	movwf	((??___ftdiv+0)+0)
  5462  0F57  0879               	movf	(___ftdiv@f2+1),w
  5463  0F58  00A1               	movwf	((??___ftdiv+0)+0+1)
  5464  0F59  087A               	movf	(___ftdiv@f2+2),w
  5465  0F5A  00A2               	movwf	((??___ftdiv+0)+0+2)
  5466  0F5B  1003               	clrc
  5467  0F5C  0D21               	rlf	(??___ftdiv+0)+1,w
  5468  0F5D  0D22               	rlf	(??___ftdiv+0)+2,w
  5469  0F5E  00A3               	movwf	(??___ftdiv+3)+0
  5470  0F5F  0823               	movf	(??___ftdiv+3)+0,w
  5471  0F60  00A9               	movwf	(___ftdiv@sign)
  5472  0F61  08A9               	movf	((___ftdiv@sign)),f
  5473  0F62  1D03               	skipz
  5474  0F63  2F65               	goto	u3571
  5475  0F64  2F66               	goto	u3570
  5476  0F65                     u3571:
  5477  0F65  2F6E               	goto	l5839
  5478  0F66                     u3570:
  5479                           	line	58
  5480                           	
  5481  0F66                     l5835:	
  5482  0F66  3000               	movlw	0x0
  5483  0F67  00F8               	movwf	(?___ftdiv)
  5484  0F68  3000               	movlw	0x0
  5485  0F69  00F9               	movwf	(?___ftdiv+1)
  5486  0F6A  3000               	movlw	0x0
  5487  0F6B  00FA               	movwf	(?___ftdiv+2)
  5488  0F6C  2FFF               	goto	l2946
  5489                           	
  5490  0F6D                     l5837:	
  5491  0F6D  2FFF               	goto	l2946
  5492                           	
  5493  0F6E                     l2947:	
  5494                           	line	59
  5495                           	
  5496  0F6E                     l5839:	
  5497  0F6E  3000               	movlw	0
  5498  0F6F  00A5               	movwf	(___ftdiv@f3)
  5499  0F70  3000               	movlw	0
  5500  0F71  00A6               	movwf	(___ftdiv@f3+1)
  5501  0F72  3000               	movlw	0
  5502  0F73  00A7               	movwf	(___ftdiv@f3+2)
  5503                           	line	60
  5504                           	
  5505  0F74                     l5841:	
  5506  0F74  3089               	movlw	(089h)
  5507  0F75  0729               	addwf	(___ftdiv@sign),w
  5508  0F76  00A0               	movwf	(??___ftdiv+0)+0
  5509  0F77  0820               	movf	0+(??___ftdiv+0)+0,w
  5510  0F78  02A8               	subwf	(___ftdiv@exp),f
  5511                           	line	61
  5512                           	
  5513  0F79                     l5843:	
  5514  0F79  087B               	movf	(___ftdiv@f1),w
  5515  0F7A  00A0               	movwf	((??___ftdiv+0)+0)
  5516  0F7B  087C               	movf	(___ftdiv@f1+1),w
  5517  0F7C  00A1               	movwf	((??___ftdiv+0)+0+1)
  5518  0F7D  087D               	movf	(___ftdiv@f1+2),w
  5519  0F7E  00A2               	movwf	((??___ftdiv+0)+0+2)
  5520  0F7F  3010               	movlw	010h
  5521  0F80                     u3585:
  5522  0F80  1003               	clrc
  5523  0F81  0CA2               	rrf	(??___ftdiv+0)+2,f
  5524  0F82  0CA1               	rrf	(??___ftdiv+0)+1,f
  5525  0F83  0CA0               	rrf	(??___ftdiv+0)+0,f
  5526  0F84                     u3580:
  5527  0F84  3EFF               	addlw	-1
  5528  0F85  1D03               	skipz
  5529  0F86  2F80               	goto	u3585
  5530  0F87  0820               	movf	0+(??___ftdiv+0)+0,w
  5531  0F88  00A3               	movwf	(??___ftdiv+3)+0
  5532  0F89  0823               	movf	(??___ftdiv+3)+0,w
  5533  0F8A  00A9               	movwf	(___ftdiv@sign)
  5534                           	line	62
  5535                           	
  5536  0F8B                     l5845:	
  5537  0F8B  0878               	movf	(___ftdiv@f2),w
  5538  0F8C  00A0               	movwf	((??___ftdiv+0)+0)
  5539  0F8D  0879               	movf	(___ftdiv@f2+1),w
  5540  0F8E  00A1               	movwf	((??___ftdiv+0)+0+1)
  5541  0F8F  087A               	movf	(___ftdiv@f2+2),w
  5542  0F90  00A2               	movwf	((??___ftdiv+0)+0+2)
  5543  0F91  3010               	movlw	010h
  5544  0F92                     u3595:
  5545  0F92  1003               	clrc
  5546  0F93  0CA2               	rrf	(??___ftdiv+0)+2,f
  5547  0F94  0CA1               	rrf	(??___ftdiv+0)+1,f
  5548  0F95  0CA0               	rrf	(??___ftdiv+0)+0,f
  5549  0F96                     u3590:
  5550  0F96  3EFF               	addlw	-1
  5551  0F97  1D03               	skipz
  5552  0F98  2F92               	goto	u3595
  5553  0F99  0820               	movf	0+(??___ftdiv+0)+0,w
  5554  0F9A  00A3               	movwf	(??___ftdiv+3)+0
  5555  0F9B  0823               	movf	(??___ftdiv+3)+0,w
  5556  0F9C  06A9               	xorwf	(___ftdiv@sign),f
  5557                           	line	63
  5558                           	
  5559  0F9D                     l5847:	
  5560  0F9D  3080               	movlw	(080h)
  5561  0F9E  00A0               	movwf	(??___ftdiv+0)+0
  5562  0F9F  0820               	movf	(??___ftdiv+0)+0,w
  5563  0FA0  05A9               	andwf	(___ftdiv@sign),f
  5564                           	line	64
  5565                           	
  5566  0FA1                     l5849:	
  5567  0FA1  17FC               	bsf	(___ftdiv@f1)+(15/8),(15)&7
  5568                           	line	65
  5569  0FA2  30FF               	movlw	0FFh
  5570  0FA3  05FB               	andwf	(___ftdiv@f1),f
  5571  0FA4  30FF               	movlw	0FFh
  5572  0FA5  05FC               	andwf	(___ftdiv@f1+1),f
  5573  0FA6  3000               	movlw	0
  5574  0FA7  05FD               	andwf	(___ftdiv@f1+2),f
  5575                           	line	66
  5576                           	
  5577  0FA8                     l5851:	
  5578  0FA8  17F9               	bsf	(___ftdiv@f2)+(15/8),(15)&7
  5579                           	line	67
  5580  0FA9  30FF               	movlw	0FFh
  5581  0FAA  05F8               	andwf	(___ftdiv@f2),f
  5582  0FAB  30FF               	movlw	0FFh
  5583  0FAC  05F9               	andwf	(___ftdiv@f2+1),f
  5584  0FAD  3000               	movlw	0
  5585  0FAE  05FA               	andwf	(___ftdiv@f2+2),f
  5586                           	line	68
  5587  0FAF  3018               	movlw	(018h)
  5588  0FB0  00A0               	movwf	(??___ftdiv+0)+0
  5589  0FB1  0820               	movf	(??___ftdiv+0)+0,w
  5590  0FB2  00A4               	movwf	(___ftdiv@cntr)
  5591  0FB3  2FB4               	goto	l5853
  5592                           	line	69
  5593                           	
  5594  0FB4                     l2948:	
  5595                           	line	70
  5596                           	
  5597  0FB4                     l5853:	
  5598  0FB4  3001               	movlw	01h
  5599  0FB5                     u3605:
  5600  0FB5  1003               	clrc
  5601  0FB6  0DA5               	rlf	(___ftdiv@f3),f
  5602  0FB7  0DA6               	rlf	(___ftdiv@f3+1),f
  5603  0FB8  0DA7               	rlf	(___ftdiv@f3+2),f
  5604  0FB9  3EFF               	addlw	-1
  5605  0FBA  1D03               	skipz
  5606  0FBB  2FB5               	goto	u3605
  5607                           	line	71
  5608                           	
  5609  0FBC                     l5855:	
  5610  0FBC  087A               	movf	(___ftdiv@f2+2),w
  5611  0FBD  027D               	subwf	(___ftdiv@f1+2),w
  5612  0FBE  1D03               	skipz
  5613  0FBF  2FC6               	goto	u3615
  5614  0FC0  0879               	movf	(___ftdiv@f2+1),w
  5615  0FC1  027C               	subwf	(___ftdiv@f1+1),w
  5616  0FC2  1D03               	skipz
  5617  0FC3  2FC6               	goto	u3615
  5618  0FC4  0878               	movf	(___ftdiv@f2),w
  5619  0FC5  027B               	subwf	(___ftdiv@f1),w
  5620  0FC6                     u3615:
  5621  0FC6  1C03               	skipc
  5622  0FC7  2FC9               	goto	u3611
  5623  0FC8  2FCA               	goto	u3610
  5624  0FC9                     u3611:
  5625  0FC9  2FD6               	goto	l5861
  5626  0FCA                     u3610:
  5627                           	line	72
  5628                           	
  5629  0FCA                     l5857:	
  5630  0FCA  0878               	movf	(___ftdiv@f2),w
  5631  0FCB  02FB               	subwf	(___ftdiv@f1),f
  5632  0FCC  0879               	movf	(___ftdiv@f2+1),w
  5633  0FCD  1C03               	skipc
  5634  0FCE  0F79               	incfsz	(___ftdiv@f2+1),w
  5635  0FCF  02FC               	subwf	(___ftdiv@f1+1),f
  5636  0FD0  087A               	movf	(___ftdiv@f2+2),w
  5637  0FD1  1C03               	skipc
  5638  0FD2  0A7A               	incf	(___ftdiv@f2+2),w
  5639  0FD3  02FD               	subwf	(___ftdiv@f1+2),f
  5640                           	line	73
  5641                           	
  5642  0FD4                     l5859:	
  5643  0FD4  1425               	bsf	(___ftdiv@f3)+(0/8),(0)&7
  5644  0FD5  2FD6               	goto	l5861
  5645                           	line	74
  5646                           	
  5647  0FD6                     l2949:	
  5648                           	line	75
  5649                           	
  5650  0FD6                     l5861:	
  5651  0FD6  3001               	movlw	01h
  5652  0FD7                     u3625:
  5653  0FD7  1003               	clrc
  5654  0FD8  0DFB               	rlf	(___ftdiv@f1),f
  5655  0FD9  0DFC               	rlf	(___ftdiv@f1+1),f
  5656  0FDA  0DFD               	rlf	(___ftdiv@f1+2),f
  5657  0FDB  3EFF               	addlw	-1
  5658  0FDC  1D03               	skipz
  5659  0FDD  2FD7               	goto	u3625
  5660                           	line	76
  5661                           	
  5662  0FDE                     l5863:	
  5663  0FDE  3001               	movlw	low(01h)
  5664  0FDF  02A4               	subwf	(___ftdiv@cntr),f
  5665  0FE0  1D03               	btfss	status,2
  5666  0FE1  2FE3               	goto	u3631
  5667  0FE2  2FE4               	goto	u3630
  5668  0FE3                     u3631:
  5669  0FE3  2FB4               	goto	l5853
  5670  0FE4                     u3630:
  5671  0FE4  2FE5               	goto	l5865
  5672                           	
  5673  0FE5                     l2950:	
  5674                           	line	77
  5675                           	
  5676  0FE5                     l5865:	
  5677  0FE5  0825               	movf	(___ftdiv@f3),w
  5678  0FE6  00F0               	movwf	(?___ftpack)
  5679  0FE7  0826               	movf	(___ftdiv@f3+1),w
  5680  0FE8  00F1               	movwf	(?___ftpack+1)
  5681  0FE9  0827               	movf	(___ftdiv@f3+2),w
  5682  0FEA  00F2               	movwf	(?___ftpack+2)
  5683  0FEB  0828               	movf	(___ftdiv@exp),w
  5684  0FEC  00A0               	movwf	(??___ftdiv+0)+0
  5685  0FED  0820               	movf	(??___ftdiv+0)+0,w
  5686  0FEE  00F3               	movwf	0+(?___ftpack)+03h
  5687  0FEF  0829               	movf	(___ftdiv@sign),w
  5688  0FF0  00A1               	movwf	(??___ftdiv+1)+0
  5689  0FF1  0821               	movf	(??___ftdiv+1)+0,w
  5690  0FF2  00F4               	movwf	0+(?___ftpack)+04h
  5691  0FF3  120A  158A  23A8   	fcall	___ftpack
              120A  158A         
  5692  0FF8  0870               	movf	(0+(?___ftpack)),w
  5693  0FF9  00F8               	movwf	(?___ftdiv)
  5694  0FFA  0871               	movf	(1+(?___ftpack)),w
  5695  0FFB  00F9               	movwf	(?___ftdiv+1)
  5696  0FFC  0872               	movf	(2+(?___ftpack)),w
  5697  0FFD  00FA               	movwf	(?___ftdiv+2)
  5698  0FFE  2FFF               	goto	l2946
  5699                           	
  5700  0FFF                     l5867:	
  5701                           	line	78
  5702                           	
  5703  0FFF                     l2946:	
  5704  0FFF  0008               	return
  5705                           	opt stack 0
  5706                           GLOBAL	__end_of___ftdiv
  5707  1000                     	__end_of___ftdiv:
  5708 ;; =============== function ___ftdiv ends ============
  5709                           
  5710                           	signat	___ftdiv,8315
  5711                           	global	___ftadd
  5712                           psect	text758,local,class=CODE,delta=2
  5713                           global __ptext758
  5714  0553                     __ptext758:
  5715                           
  5716 ;; *************** function ___ftadd *****************
  5717 ;; Defined at:
  5718 ;;		line 87 in file "C:\Program Files (x86)\HI-TECH Software\PICC\9.83\sources\ftadd.c"
  5719 ;; Parameters:    Size  Location     Type
  5720 ;;  f1              3   19[BANK0 ] float 
  5721 ;;  f2              3   22[BANK0 ] float 
  5722 ;; Auto vars:     Size  Location     Type
  5723 ;;  exp1            1   31[BANK0 ] unsigned char 
  5724 ;;  exp2            1   30[BANK0 ] unsigned char 
  5725 ;;  sign            1   29[BANK0 ] unsigned char 
  5726 ;; Return value:  Size  Location     Type
  5727 ;;                  3   19[BANK0 ] float 
  5728 ;; Registers used:
  5729 ;;		wreg, status,2, status,0, pclath, cstack
  5730 ;; Tracked objects:
  5731 ;;		On entry : 0/0
  5732 ;;		On exit  : 0/0
  5733 ;;		Unchanged: 0/0
  5734 ;; Data sizes:     COMMON   BANK0   BANK1   BANK3   BANK2
  5735 ;;      Params:         0       6       0       0       0
  5736 ;;      Locals:         0       3       0       0       0
  5737 ;;      Temps:          0       4       0       0       0
  5738 ;;      Totals:         0      13       0       0       0
  5739 ;;Total ram usage:       13 bytes
  5740 ;; Hardware stack levels used:    1
  5741 ;; Hardware stack levels required when called:    1
  5742 ;; This function calls:
  5743 ;;		___ftpack
  5744 ;; This function is called by:
  5745 ;;		_ftoa
  5746 ;;		___ftsub
  5747 ;;		_floor
  5748 ;;		_log
  5749 ;;		_eval_poly
  5750 ;; This function uses a non-reentrant model
  5751 ;;
  5752                           psect	text758
  5753                           	file	"C:\Program Files (x86)\HI-TECH Software\PICC\9.83\sources\ftadd.c"
  5754                           	line	87
  5755                           	global	__size_of___ftadd
  5756  0146                     	__size_of___ftadd	equ	__end_of___ftadd-___ftadd
  5757                           	
  5758  0553                     ___ftadd:	
  5759                           	opt	stack 2
  5760                           ; Regs used in ___ftadd: [wreg+status,2+status,0+pclath+cstack]
  5761                           	line	90
  5762                           	
  5763  0553                     l5757:	
  5764  0553  1283               	bcf	status, 5	;RP0=0, select bank0
  5765  0554  1303               	bcf	status, 6	;RP1=0, select bank0
  5766  0555  0833               	movf	(___ftadd@f1),w
  5767  0556  00B9               	movwf	((??___ftadd+0)+0)
  5768  0557  0834               	movf	(___ftadd@f1+1),w
  5769  0558  00BA               	movwf	((??___ftadd+0)+0+1)
  5770  0559  0835               	movf	(___ftadd@f1+2),w
  5771  055A  00BB               	movwf	((??___ftadd+0)+0+2)
  5772  055B  1003               	clrc
  5773  055C  0D3A               	rlf	(??___ftadd+0)+1,w
  5774  055D  0D3B               	rlf	(??___ftadd+0)+2,w
  5775  055E  00BC               	movwf	(??___ftadd+3)+0
  5776  055F  083C               	movf	(??___ftadd+3)+0,w
  5777  0560  00BF               	movwf	(___ftadd@exp1)
  5778                           	line	91
  5779  0561  0836               	movf	(___ftadd@f2),w
  5780  0562  00B9               	movwf	((??___ftadd+0)+0)
  5781  0563  0837               	movf	(___ftadd@f2+1),w
  5782  0564  00BA               	movwf	((??___ftadd+0)+0+1)
  5783  0565  0838               	movf	(___ftadd@f2+2),w
  5784  0566  00BB               	movwf	((??___ftadd+0)+0+2)
  5785  0567  1003               	clrc
  5786  0568  0D3A               	rlf	(??___ftadd+0)+1,w
  5787  0569  0D3B               	rlf	(??___ftadd+0)+2,w
  5788  056A  00BC               	movwf	(??___ftadd+3)+0
  5789  056B  083C               	movf	(??___ftadd+3)+0,w
  5790  056C  00BE               	movwf	(___ftadd@exp2)
  5791                           	line	92
  5792                           	
  5793  056D                     l5759:	
  5794  056D  083F               	movf	(___ftadd@exp1),w
  5795  056E  1D03               	skipz
  5796  056F  2D71               	goto	u3320
  5797  0570  2D82               	goto	l5765
  5798  0571                     u3320:
  5799                           	
  5800  0571                     l5761:	
  5801  0571  083E               	movf	(___ftadd@exp2),w
  5802  0572  023F               	subwf	(___ftadd@exp1),w
  5803  0573  1803               	skipnc
  5804  0574  2D76               	goto	u3331
  5805  0575  2D77               	goto	u3330
  5806  0576                     u3331:
  5807  0576  2D8A               	goto	l5769
  5808  0577                     u3330:
  5809                           	
  5810  0577                     l5763:	
  5811  0577  033F               	decf	(___ftadd@exp1),w
  5812  0578  3AFF               	xorlw	0ffh
  5813  0579  073E               	addwf	(___ftadd@exp2),w
  5814  057A  00B9               	movwf	(??___ftadd+0)+0
  5815  057B  3019               	movlw	(019h)
  5816  057C  0239               	subwf	0+(??___ftadd+0)+0,w
  5817  057D  1C03               	skipc
  5818  057E  2D80               	goto	u3341
  5819  057F  2D81               	goto	u3340
  5820  0580                     u3341:
  5821  0580  2D8A               	goto	l5769
  5822  0581                     u3340:
  5823  0581  2D82               	goto	l5765
  5824                           	
  5825  0582                     l2903:	
  5826                           	line	93
  5827                           	
  5828  0582                     l5765:	
  5829  0582  0836               	movf	(___ftadd@f2),w
  5830  0583  00B3               	movwf	(?___ftadd)
  5831  0584  0837               	movf	(___ftadd@f2+1),w
  5832  0585  00B4               	movwf	(?___ftadd+1)
  5833  0586  0838               	movf	(___ftadd@f2+2),w
  5834  0587  00B5               	movwf	(?___ftadd+2)
  5835  0588  2E98               	goto	l2904
  5836                           	
  5837  0589                     l5767:	
  5838  0589  2E98               	goto	l2904
  5839                           	
  5840  058A                     l2901:	
  5841                           	line	94
  5842                           	
  5843  058A                     l5769:	
  5844  058A  083E               	movf	(___ftadd@exp2),w
  5845  058B  1D03               	skipz
  5846  058C  2D8E               	goto	u3350
  5847  058D  2D9E               	goto	l2907
  5848  058E                     u3350:
  5849                           	
  5850  058E                     l5771:	
  5851  058E  083F               	movf	(___ftadd@exp1),w
  5852  058F  023E               	subwf	(___ftadd@exp2),w
  5853  0590  1803               	skipnc
  5854  0591  2D93               	goto	u3361
  5855  0592  2D94               	goto	u3360
  5856  0593                     u3361:
  5857  0593  2D9F               	goto	l5775
  5858  0594                     u3360:
  5859                           	
  5860  0594                     l5773:	
  5861  0594  033E               	decf	(___ftadd@exp2),w
  5862  0595  3AFF               	xorlw	0ffh
  5863  0596  073F               	addwf	(___ftadd@exp1),w
  5864  0597  00B9               	movwf	(??___ftadd+0)+0
  5865  0598  3019               	movlw	(019h)
  5866  0599  0239               	subwf	0+(??___ftadd+0)+0,w
  5867  059A  1C03               	skipc
  5868  059B  2D9D               	goto	u3371
  5869  059C  2D9E               	goto	u3370
  5870  059D                     u3371:
  5871  059D  2D9F               	goto	l5775
  5872  059E                     u3370:
  5873                           	
  5874  059E                     l2907:	
  5875                           	line	95
  5876  059E  2E98               	goto	l2904
  5877                           	
  5878  059F                     l2905:	
  5879                           	line	96
  5880                           	
  5881  059F                     l5775:	
  5882  059F  3006               	movlw	(06h)
  5883  05A0  00B9               	movwf	(??___ftadd+0)+0
  5884  05A1  0839               	movf	(??___ftadd+0)+0,w
  5885  05A2  00BD               	movwf	(___ftadd@sign)
  5886                           	line	97
  5887                           	
  5888  05A3                     l5777:	
  5889  05A3  1FB5               	btfss	(___ftadd@f1+2),(23)&7
  5890  05A4  2DA6               	goto	u3381
  5891  05A5  2DA7               	goto	u3380
  5892  05A6                     u3381:
  5893  05A6  2DA8               	goto	l2908
  5894  05A7                     u3380:
  5895                           	line	98
  5896                           	
  5897  05A7                     l5779:	
  5898  05A7  17BD               	bsf	(___ftadd@sign)+(7/8),(7)&7
  5899                           	
  5900  05A8                     l2908:	
  5901                           	line	99
  5902  05A8  1FB8               	btfss	(___ftadd@f2+2),(23)&7
  5903  05A9  2DAB               	goto	u3391
  5904  05AA  2DAC               	goto	u3390
  5905  05AB                     u3391:
  5906  05AB  2DAD               	goto	l2909
  5907  05AC                     u3390:
  5908                           	line	100
  5909                           	
  5910  05AC                     l5781:	
  5911  05AC  173D               	bsf	(___ftadd@sign)+(6/8),(6)&7
  5912                           	
  5913  05AD                     l2909:	
  5914                           	line	101
  5915  05AD  17B4               	bsf	(___ftadd@f1)+(15/8),(15)&7
  5916                           	line	102
  5917                           	
  5918  05AE                     l5783:	
  5919  05AE  30FF               	movlw	0FFh
  5920  05AF  05B3               	andwf	(___ftadd@f1),f
  5921  05B0  30FF               	movlw	0FFh
  5922  05B1  05B4               	andwf	(___ftadd@f1+1),f
  5923  05B2  3000               	movlw	0
  5924  05B3  05B5               	andwf	(___ftadd@f1+2),f
  5925                           	line	103
  5926                           	
  5927  05B4                     l5785:	
  5928  05B4  17B7               	bsf	(___ftadd@f2)+(15/8),(15)&7
  5929                           	line	104
  5930  05B5  30FF               	movlw	0FFh
  5931  05B6  05B6               	andwf	(___ftadd@f2),f
  5932  05B7  30FF               	movlw	0FFh
  5933  05B8  05B7               	andwf	(___ftadd@f2+1),f
  5934  05B9  3000               	movlw	0
  5935  05BA  05B8               	andwf	(___ftadd@f2+2),f
  5936                           	line	106
  5937  05BB  083E               	movf	(___ftadd@exp2),w
  5938  05BC  023F               	subwf	(___ftadd@exp1),w
  5939  05BD  1803               	skipnc
  5940  05BE  2DC0               	goto	u3401
  5941  05BF  2DC1               	goto	u3400
  5942  05C0                     u3401:
  5943  05C0  2DF2               	goto	l5797
  5944  05C1                     u3400:
  5945  05C1  2DC2               	goto	l5787
  5946                           	line	109
  5947                           	
  5948  05C2                     l2911:	
  5949                           	line	110
  5950                           	
  5951  05C2                     l5787:	
  5952  05C2  3001               	movlw	01h
  5953  05C3                     u3415:
  5954  05C3  1003               	clrc
  5955  05C4  0DB6               	rlf	(___ftadd@f2),f
  5956  05C5  0DB7               	rlf	(___ftadd@f2+1),f
  5957  05C6  0DB8               	rlf	(___ftadd@f2+2),f
  5958  05C7  3EFF               	addlw	-1
  5959  05C8  1D03               	skipz
  5960  05C9  2DC3               	goto	u3415
  5961                           	line	111
  5962  05CA  3001               	movlw	low(01h)
  5963  05CB  02BE               	subwf	(___ftadd@exp2),f
  5964                           	line	112
  5965                           	
  5966  05CC                     l5789:	
  5967  05CC  083E               	movf	(___ftadd@exp2),w
  5968  05CD  063F               	xorwf	(___ftadd@exp1),w
  5969  05CE  1903               	skipnz
  5970  05CF  2DD1               	goto	u3421
  5971  05D0  2DD2               	goto	u3420
  5972  05D1                     u3421:
  5973  05D1  2DEA               	goto	l5795
  5974  05D2                     u3420:
  5975                           	
  5976  05D2                     l5791:	
  5977  05D2  3001               	movlw	low(01h)
  5978  05D3  02BD               	subwf	(___ftadd@sign),f
  5979  05D4  083D               	movf	((___ftadd@sign)),w
  5980  05D5  3907               	andlw	07h
  5981  05D6  1D03               	btfss	status,2
  5982  05D7  2DD9               	goto	u3431
  5983  05D8  2DDA               	goto	u3430
  5984  05D9                     u3431:
  5985  05D9  2DC2               	goto	l5787
  5986  05DA                     u3430:
  5987  05DA  2DEA               	goto	l5795
  5988                           	
  5989  05DB                     l2913:	
  5990  05DB  2DEA               	goto	l5795
  5991                           	
  5992  05DC                     l2914:	
  5993                           	line	113
  5994  05DC  2DEA               	goto	l5795
  5995                           	
  5996  05DD                     l2916:	
  5997                           	line	114
  5998                           	
  5999  05DD                     l5793:	
  6000  05DD  3001               	movlw	01h
  6001  05DE                     u3445:
  6002  05DE  1003               	clrc
  6003  05DF  0CB5               	rrf	(___ftadd@f1+2),f
  6004  05E0  0CB4               	rrf	(___ftadd@f1+1),f
  6005  05E1  0CB3               	rrf	(___ftadd@f1),f
  6006  05E2  3EFF               	addlw	-1
  6007  05E3  1D03               	skipz
  6008  05E4  2DDE               	goto	u3445
  6009                           
  6010                           	line	115
  6011  05E5  3001               	movlw	(01h)
  6012  05E6  00B9               	movwf	(??___ftadd+0)+0
  6013  05E7  0839               	movf	(??___ftadd+0)+0,w
  6014  05E8  07BF               	addwf	(___ftadd@exp1),f
  6015  05E9  2DEA               	goto	l5795
  6016                           	line	116
  6017                           	
  6018  05EA                     l2915:	
  6019                           	line	113
  6020                           	
  6021  05EA                     l5795:	
  6022  05EA  083F               	movf	(___ftadd@exp1),w
  6023  05EB  063E               	xorwf	(___ftadd@exp2),w
  6024  05EC  1D03               	skipz
  6025  05ED  2DEF               	goto	u3451
  6026  05EE  2DF0               	goto	u3450
  6027  05EF                     u3451:
  6028  05EF  2DDD               	goto	l5793
  6029  05F0                     u3450:
  6030  05F0  2E29               	goto	l2918
  6031                           	
  6032  05F1                     l2917:	
  6033                           	line	117
  6034  05F1  2E29               	goto	l2918
  6035                           	
  6036  05F2                     l2910:	
  6037                           	
  6038  05F2                     l5797:	
  6039  05F2  083F               	movf	(___ftadd@exp1),w
  6040  05F3  023E               	subwf	(___ftadd@exp2),w
  6041  05F4  1803               	skipnc
  6042  05F5  2DF7               	goto	u3461
  6043  05F6  2DF8               	goto	u3460
  6044  05F7                     u3461:
  6045  05F7  2E29               	goto	l2918
  6046  05F8                     u3460:
  6047  05F8  2DF9               	goto	l5799
  6048                           	line	120
  6049                           	
  6050  05F9                     l2920:	
  6051                           	line	121
  6052                           	
  6053  05F9                     l5799:	
  6054  05F9  3001               	movlw	01h
  6055  05FA                     u3475:
  6056  05FA  1003               	clrc
  6057  05FB  0DB3               	rlf	(___ftadd@f1),f
  6058  05FC  0DB4               	rlf	(___ftadd@f1+1),f
  6059  05FD  0DB5               	rlf	(___ftadd@f1+2),f
  6060  05FE  3EFF               	addlw	-1
  6061  05FF  1D03               	skipz
  6062  0600  2DFA               	goto	u3475
  6063                           	line	122
  6064  0601  3001               	movlw	low(01h)
  6065  0602  02BF               	subwf	(___ftadd@exp1),f
  6066                           	line	123
  6067                           	
  6068  0603                     l5801:	
  6069  0603  083E               	movf	(___ftadd@exp2),w
  6070  0604  063F               	xorwf	(___ftadd@exp1),w
  6071  0605  1903               	skipnz
  6072  0606  2E08               	goto	u3481
  6073  0607  2E09               	goto	u3480
  6074  0608                     u3481:
  6075  0608  2E21               	goto	l5807
  6076  0609                     u3480:
  6077                           	
  6078  0609                     l5803:	
  6079  0609  3001               	movlw	low(01h)
  6080  060A  02BD               	subwf	(___ftadd@sign),f
  6081  060B  083D               	movf	((___ftadd@sign)),w
  6082  060C  3907               	andlw	07h
  6083  060D  1D03               	btfss	status,2
  6084  060E  2E10               	goto	u3491
  6085  060F  2E11               	goto	u3490
  6086  0610                     u3491:
  6087  0610  2DF9               	goto	l5799
  6088  0611                     u3490:
  6089  0611  2E21               	goto	l5807
  6090                           	
  6091  0612                     l2922:	
  6092  0612  2E21               	goto	l5807
  6093                           	
  6094  0613                     l2923:	
  6095                           	line	124
  6096  0613  2E21               	goto	l5807
  6097                           	
  6098  0614                     l2925:	
  6099                           	line	125
  6100                           	
  6101  0614                     l5805:	
  6102  0614  3001               	movlw	01h
  6103  0615                     u3505:
  6104  0615  1003               	clrc
  6105  0616  0CB8               	rrf	(___ftadd@f2+2),f
  6106  0617  0CB7               	rrf	(___ftadd@f2+1),f
  6107  0618  0CB6               	rrf	(___ftadd@f2),f
  6108  0619  3EFF               	addlw	-1
  6109  061A  1D03               	skipz
  6110  061B  2E15               	goto	u3505
  6111                           
  6112                           	line	126
  6113  061C  3001               	movlw	(01h)
  6114  061D  00B9               	movwf	(??___ftadd+0)+0
  6115  061E  0839               	movf	(??___ftadd+0)+0,w
  6116  061F  07BE               	addwf	(___ftadd@exp2),f
  6117  0620  2E21               	goto	l5807
  6118                           	line	127
  6119                           	
  6120  0621                     l2924:	
  6121                           	line	124
  6122                           	
  6123  0621                     l5807:	
  6124  0621  083F               	movf	(___ftadd@exp1),w
  6125  0622  063E               	xorwf	(___ftadd@exp2),w
  6126  0623  1D03               	skipz
  6127  0624  2E26               	goto	u3511
  6128  0625  2E27               	goto	u3510
  6129  0626                     u3511:
  6130  0626  2E14               	goto	l5805
  6131  0627                     u3510:
  6132  0627  2E29               	goto	l2918
  6133                           	
  6134  0628                     l2926:	
  6135  0628  2E29               	goto	l2918
  6136                           	line	128
  6137                           	
  6138  0629                     l2919:	
  6139                           	line	129
  6140                           	
  6141  0629                     l2918:	
  6142  0629  1FBD               	btfss	(___ftadd@sign),(7)&7
  6143  062A  2E2C               	goto	u3521
  6144  062B  2E2D               	goto	u3520
  6145  062C                     u3521:
  6146  062C  2E3E               	goto	l5811
  6147  062D                     u3520:
  6148                           	line	131
  6149                           	
  6150  062D                     l5809:	
  6151  062D  30FF               	movlw	0FFh
  6152  062E  06B3               	xorwf	(___ftadd@f1),f
  6153  062F  30FF               	movlw	0FFh
  6154  0630  06B4               	xorwf	(___ftadd@f1+1),f
  6155  0631  30FF               	movlw	0FFh
  6156  0632  06B5               	xorwf	(___ftadd@f1+2),f
  6157                           	line	132
  6158  0633  3001               	movlw	01h
  6159  0634  07B3               	addwf	(___ftadd@f1),f
  6160  0635  3000               	movlw	0
  6161  0636  1803               	skipnc
  6162  0637  3001               movlw 1
  6163  0638  07B4               	addwf	(___ftadd@f1+1),f
  6164  0639  3000               	movlw	0
  6165  063A  1803               	skipnc
  6166  063B  3001               movlw 1
  6167  063C  07B5               	addwf	(___ftadd@f1+2),f
  6168  063D  2E3E               	goto	l5811
  6169                           	line	133
  6170                           	
  6171  063E                     l2927:	
  6172                           	line	134
  6173                           	
  6174  063E                     l5811:	
  6175  063E  1F3D               	btfss	(___ftadd@sign),(6)&7
  6176  063F  2E41               	goto	u3531
  6177  0640  2E42               	goto	u3530
  6178  0641                     u3531:
  6179  0641  2E53               	goto	l5815
  6180  0642                     u3530:
  6181                           	line	136
  6182                           	
  6183  0642                     l5813:	
  6184  0642  30FF               	movlw	0FFh
  6185  0643  06B6               	xorwf	(___ftadd@f2),f
  6186  0644  30FF               	movlw	0FFh
  6187  0645  06B7               	xorwf	(___ftadd@f2+1),f
  6188  0646  30FF               	movlw	0FFh
  6189  0647  06B8               	xorwf	(___ftadd@f2+2),f
  6190                           	line	137
  6191  0648  3001               	movlw	01h
  6192  0649  07B6               	addwf	(___ftadd@f2),f
  6193  064A  3000               	movlw	0
  6194  064B  1803               	skipnc
  6195  064C  3001               movlw 1
  6196  064D  07B7               	addwf	(___ftadd@f2+1),f
  6197  064E  3000               	movlw	0
  6198  064F  1803               	skipnc
  6199  0650  3001               movlw 1
  6200  0651  07B8               	addwf	(___ftadd@f2+2),f
  6201  0652  2E53               	goto	l5815
  6202                           	line	138
  6203                           	
  6204  0653                     l2928:	
  6205                           	line	139
  6206                           	
  6207  0653                     l5815:	
  6208  0653  01BD               	clrf	(___ftadd@sign)
  6209                           	line	140
  6210  0654  0833               	movf	(___ftadd@f1),w
  6211  0655  07B6               	addwf	(___ftadd@f2),f
  6212  0656  0834               	movf	(___ftadd@f1+1),w
  6213  0657  1103               	clrz
  6214  0658  1803               	skipnc
  6215  0659  0A34               	incf	(___ftadd@f1+1),w
  6216  065A  1903               	skipnz
  6217  065B  2E5D               	goto	u3541
  6218  065C  07B7               	addwf	(___ftadd@f2+1),f
  6219  065D                     u3541:
  6220  065D  0835               	movf	(___ftadd@f1+2),w
  6221  065E  1103               	clrz
  6222  065F  1803               	skipnc
  6223  0660  0A35               	incf	(___ftadd@f1+2),w
  6224  0661  1903               	skipnz
  6225  0662  2E64               	goto	u3542
  6226  0663  07B8               	addwf	(___ftadd@f2+2),f
  6227  0664                     u3542:
  6228                           
  6229                           	line	141
  6230                           	
  6231  0664                     l5817:	
  6232  0664  1FB8               	btfss	(___ftadd@f2+2),(23)&7
  6233  0665  2E67               	goto	u3551
  6234  0666  2E68               	goto	u3550
  6235  0667                     u3551:
  6236  0667  2E7C               	goto	l5823
  6237  0668                     u3550:
  6238                           	line	142
  6239                           	
  6240  0668                     l5819:	
  6241  0668  30FF               	movlw	0FFh
  6242  0669  06B6               	xorwf	(___ftadd@f2),f
  6243  066A  30FF               	movlw	0FFh
  6244  066B  06B7               	xorwf	(___ftadd@f2+1),f
  6245  066C  30FF               	movlw	0FFh
  6246  066D  06B8               	xorwf	(___ftadd@f2+2),f
  6247                           	line	143
  6248  066E  3001               	movlw	01h
  6249  066F  07B6               	addwf	(___ftadd@f2),f
  6250  0670  3000               	movlw	0
  6251  0671  1803               	skipnc
  6252  0672  3001               movlw 1
  6253  0673  07B7               	addwf	(___ftadd@f2+1),f
  6254  0674  3000               	movlw	0
  6255  0675  1803               	skipnc
  6256  0676  3001               movlw 1
  6257  0677  07B8               	addwf	(___ftadd@f2+2),f
  6258                           	line	144
  6259                           	
  6260  0678                     l5821:	
  6261  0678  01BD               	clrf	(___ftadd@sign)
  6262  0679  1403               	bsf	status,0
  6263  067A  0DBD               	rlf	(___ftadd@sign),f
  6264  067B  2E7C               	goto	l5823
  6265                           	line	145
  6266                           	
  6267  067C                     l2929:	
  6268                           	line	146
  6269                           	
  6270  067C                     l5823:	
  6271  067C  0836               	movf	(___ftadd@f2),w
  6272  067D  00F0               	movwf	(?___ftpack)
  6273  067E  0837               	movf	(___ftadd@f2+1),w
  6274  067F  00F1               	movwf	(?___ftpack+1)
  6275  0680  0838               	movf	(___ftadd@f2+2),w
  6276  0681  00F2               	movwf	(?___ftpack+2)
  6277  0682  083F               	movf	(___ftadd@exp1),w
  6278  0683  00B9               	movwf	(??___ftadd+0)+0
  6279  0684  0839               	movf	(??___ftadd+0)+0,w
  6280  0685  00F3               	movwf	0+(?___ftpack)+03h
  6281  0686  083D               	movf	(___ftadd@sign),w
  6282  0687  00BA               	movwf	(??___ftadd+1)+0
  6283  0688  083A               	movf	(??___ftadd+1)+0,w
  6284  0689  00F4               	movwf	0+(?___ftpack)+04h
  6285  068A  120A  158A  23A8   	fcall	___ftpack
              120A  118A         
  6286  068F  0870               	movf	(0+(?___ftpack)),w
  6287  0690  1283               	bcf	status, 5	;RP0=0, select bank0
  6288  0691  1303               	bcf	status, 6	;RP1=0, select bank0
  6289  0692  00B3               	movwf	(?___ftadd)
  6290  0693  0871               	movf	(1+(?___ftpack)),w
  6291  0694  00B4               	movwf	(?___ftadd+1)
  6292  0695  0872               	movf	(2+(?___ftpack)),w
  6293  0696  00B5               	movwf	(?___ftadd+2)
  6294  0697  2E98               	goto	l2904
  6295                           	
  6296  0698                     l5825:	
  6297                           	line	148
  6298                           	
  6299  0698                     l2904:	
  6300  0698  0008               	return
  6301                           	opt stack 0
  6302                           GLOBAL	__end_of___ftadd
  6303  0699                     	__end_of___ftadd:
  6304 ;; =============== function ___ftadd ends ============
  6305                           
  6306                           	signat	___ftadd,8315
  6307                           	global	_intToStr
  6308                           psect	text759,local,class=CODE,delta=2
  6309                           global __ptext759
  6310  0CA2                     __ptext759:
  6311                           
  6312 ;; *************** function _intToStr *****************
  6313 ;; Defined at:
  6314 ;;		line 24 in file "C:\Users\abdal\Desktop\University\Year 4\Second Semester\Real Time Lab\Experiments and Codes\exp3\S
       erial-Requirements\Codes\string.c"
  6315 ;; Parameters:    Size  Location     Type
  6316 ;;  x               2    0[BANK0 ] int 
  6317 ;;  str             1    2[BANK0 ] PTR unsigned char 
  6318 ;;		 -> str(10), 
  6319 ;;  d               2    3[BANK0 ] int 
  6320 ;; Auto vars:     Size  Location     Type
  6321 ;;  i               2    7[BANK0 ] int 
  6322 ;; Return value:  Size  Location     Type
  6323 ;;                  2    0[BANK0 ] int 
  6324 ;; Registers used:
  6325 ;;		wreg, fsr0l, fsr0h, status,2, status,0, pclath, cstack
  6326 ;; Tracked objects:
  6327 ;;		On entry : 0/0
  6328 ;;		On exit  : 0/0
  6329 ;;		Unchanged: 0/0
  6330 ;; Data sizes:     COMMON   BANK0   BANK1   BANK3   BANK2
  6331 ;;      Params:         0       5       0       0       0
  6332 ;;      Locals:         0       2       0       0       0
  6333 ;;      Temps:          0       2       0       0       0
  6334 ;;      Totals:         0       9       0       0       0
  6335 ;;Total ram usage:        9 bytes
  6336 ;; Hardware stack levels used:    1
  6337 ;; Hardware stack levels required when called:    1
  6338 ;; This function calls:
  6339 ;;		___awmod
  6340 ;;		___awdiv
  6341 ;;		_reverse
  6342 ;; This function is called by:
  6343 ;;		_ftoa
  6344 ;; This function uses a non-reentrant model
  6345 ;;
  6346                           psect	text759
  6347                           	file	"C:\Users\abdal\Desktop\University\Year 4\Second Semester\Real Time Lab\Experiment
                                 s and Codes\exp3\Serial-Requirements\Codes\string.c"
  6348                           	line	24
  6349                           	global	__size_of_intToStr
  6350  0088                     	__size_of_intToStr	equ	__end_of_intToStr-_intToStr
  6351                           	
  6352  0CA2                     _intToStr:	
  6353                           	opt	stack 5
  6354                           ; Regs used in _intToStr: [wreg-fsr0h+status,2+status,0+pclath+cstack]
  6355                           	line	25
  6356                           	
  6357  0CA2                     l5733:	
  6358                           ;string.c: 25: int i = 0;
  6359  0CA2  1283               	bcf	status, 5	;RP0=0, select bank0
  6360  0CA3  1303               	bcf	status, 6	;RP1=0, select bank0
  6361  0CA4  01A7               	clrf	(intToStr@i)
  6362  0CA5  01A8               	clrf	(intToStr@i+1)
  6363                           	line	26
  6364                           ;string.c: 26: while (x)
  6365  0CA6  2CE1               	goto	l5741
  6366                           	
  6367  0CA7                     l2148:	
  6368                           	line	28
  6369                           	
  6370  0CA7                     l5735:	
  6371                           ;string.c: 27: {
  6372                           ;string.c: 28: str[i++] = (x%10) + '0';
  6373  0CA7  300A               	movlw	low(0Ah)
  6374  0CA8  00F0               	movwf	(?___awmod)
  6375  0CA9  3000               	movlw	high(0Ah)
  6376  0CAA  00F1               	movwf	((?___awmod))+1
  6377  0CAB  0821               	movf	(intToStr@x+1),w
  6378  0CAC  01F3               	clrf	1+(?___awmod)+02h
  6379  0CAD  07F3               	addwf	1+(?___awmod)+02h
  6380  0CAE  0820               	movf	(intToStr@x),w
  6381  0CAF  01F2               	clrf	0+(?___awmod)+02h
  6382  0CB0  07F2               	addwf	0+(?___awmod)+02h
  6383                           
  6384  0CB1  120A  158A  2262   	fcall	___awmod
              120A  158A         
  6385  0CB6  0870               	movf	(0+(?___awmod)),w
  6386  0CB7  3E30               	addlw	030h
  6387  0CB8  1283               	bcf	status, 5	;RP0=0, select bank0
  6388  0CB9  1303               	bcf	status, 6	;RP1=0, select bank0
  6389  0CBA  00A5               	movwf	(??_intToStr+0)+0
  6390  0CBB  0827               	movf	(intToStr@i),w
  6391  0CBC  0722               	addwf	(intToStr@str),w
  6392  0CBD  00A6               	movwf	(??_intToStr+1)+0
  6393  0CBE  0826               	movf	0+(??_intToStr+1)+0,w
  6394  0CBF  0084               	movwf	fsr0
  6395  0CC0  0825               	movf	(??_intToStr+0)+0,w
  6396  0CC1  1383               	bcf	status, 7	;select IRP bank0
  6397  0CC2  0080               	movwf	indf
  6398                           	
  6399  0CC3                     l5737:	
  6400  0CC3  3001               	movlw	low(01h)
  6401  0CC4  07A7               	addwf	(intToStr@i),f
  6402  0CC5  1803               	skipnc
  6403  0CC6  0AA8               	incf	(intToStr@i+1),f
  6404  0CC7  3000               	movlw	high(01h)
  6405  0CC8  07A8               	addwf	(intToStr@i+1),f
  6406                           	line	29
  6407                           	
  6408  0CC9                     l5739:	
  6409                           ;string.c: 29: x = x/10;
  6410  0CC9  300A               	movlw	low(0Ah)
  6411  0CCA  00F0               	movwf	(?___awdiv)
  6412  0CCB  3000               	movlw	high(0Ah)
  6413  0CCC  00F1               	movwf	((?___awdiv))+1
  6414  0CCD  0821               	movf	(intToStr@x+1),w
  6415  0CCE  01F3               	clrf	1+(?___awdiv)+02h
  6416  0CCF  07F3               	addwf	1+(?___awdiv)+02h
  6417  0CD0  0820               	movf	(intToStr@x),w
  6418  0CD1  01F2               	clrf	0+(?___awdiv)+02h
  6419  0CD2  07F2               	addwf	0+(?___awdiv)+02h
  6420                           
  6421  0CD3  120A  158A  2334   	fcall	___awdiv
              120A  158A         
  6422  0CD8  0871               	movf	(1+(?___awdiv)),w
  6423  0CD9  1283               	bcf	status, 5	;RP0=0, select bank0
  6424  0CDA  1303               	bcf	status, 6	;RP1=0, select bank0
  6425  0CDB  01A1               	clrf	(intToStr@x+1)
  6426  0CDC  07A1               	addwf	(intToStr@x+1)
  6427  0CDD  0870               	movf	(0+(?___awdiv)),w
  6428  0CDE  01A0               	clrf	(intToStr@x)
  6429  0CDF  07A0               	addwf	(intToStr@x)
  6430                           
  6431  0CE0  2CE1               	goto	l5741
  6432                           	line	30
  6433                           	
  6434  0CE1                     l2147:	
  6435                           	line	26
  6436                           	
  6437  0CE1                     l5741:	
  6438  0CE1  0821               	movf	((intToStr@x+1)),w
  6439  0CE2  0420               	iorwf	((intToStr@x)),w
  6440  0CE3  1D03               	skipz
  6441  0CE4  2CE6               	goto	u3301
  6442  0CE5  2CE7               	goto	u3300
  6443  0CE6                     u3301:
  6444  0CE6  2CA7               	goto	l5735
  6445  0CE7                     u3300:
  6446  0CE7  2CFC               	goto	l5747
  6447                           	
  6448  0CE8                     l2149:	
  6449                           	line	34
  6450                           ;string.c: 30: }
  6451                           ;string.c: 34: while (i < d)
  6452  0CE8  2CFC               	goto	l5747
  6453                           	
  6454  0CE9                     l2151:	
  6455                           	line	35
  6456                           	
  6457  0CE9                     l5743:	
  6458                           ;string.c: 35: str[i++] = '0';
  6459  0CE9  3030               	movlw	(030h)
  6460  0CEA  1283               	bcf	status, 5	;RP0=0, select bank0
  6461  0CEB  1303               	bcf	status, 6	;RP1=0, select bank0
  6462  0CEC  00A5               	movwf	(??_intToStr+0)+0
  6463  0CED  0827               	movf	(intToStr@i),w
  6464  0CEE  0722               	addwf	(intToStr@str),w
  6465  0CEF  00A6               	movwf	(??_intToStr+1)+0
  6466  0CF0  0826               	movf	0+(??_intToStr+1)+0,w
  6467  0CF1  0084               	movwf	fsr0
  6468  0CF2  0825               	movf	(??_intToStr+0)+0,w
  6469  0CF3  1383               	bcf	status, 7	;select IRP bank0
  6470  0CF4  0080               	movwf	indf
  6471                           	
  6472  0CF5                     l5745:	
  6473  0CF5  3001               	movlw	low(01h)
  6474  0CF6  07A7               	addwf	(intToStr@i),f
  6475  0CF7  1803               	skipnc
  6476  0CF8  0AA8               	incf	(intToStr@i+1),f
  6477  0CF9  3000               	movlw	high(01h)
  6478  0CFA  07A8               	addwf	(intToStr@i+1),f
  6479  0CFB  2CFC               	goto	l5747
  6480                           	
  6481  0CFC                     l2150:	
  6482                           	line	34
  6483                           	
  6484  0CFC                     l5747:	
  6485  0CFC  0828               	movf	(intToStr@i+1),w
  6486  0CFD  3A80               	xorlw	80h
  6487  0CFE  00A5               	movwf	(??_intToStr+0)+0
  6488  0CFF  0824               	movf	(intToStr@d+1),w
  6489  0D00  3A80               	xorlw	80h
  6490  0D01  0225               	subwf	(??_intToStr+0)+0,w
  6491  0D02  1D03               	skipz
  6492  0D03  2D06               	goto	u3315
  6493  0D04  0823               	movf	(intToStr@d),w
  6494  0D05  0227               	subwf	(intToStr@i),w
  6495  0D06                     u3315:
  6496                           
  6497  0D06  1C03               	skipc
  6498  0D07  2D09               	goto	u3311
  6499  0D08  2D0A               	goto	u3310
  6500  0D09                     u3311:
  6501  0D09  2CE9               	goto	l5743
  6502  0D0A                     u3310:
  6503  0D0A  2D0B               	goto	l5749
  6504                           	
  6505  0D0B                     l2152:	
  6506                           	line	37
  6507                           	
  6508  0D0B                     l5749:	
  6509                           ;string.c: 37: reverse(str, i);
  6510  0D0B  1283               	bcf	status, 5	;RP0=0, select bank0
  6511  0D0C  1303               	bcf	status, 6	;RP1=0, select bank0
  6512  0D0D  0828               	movf	(intToStr@i+1),w
  6513  0D0E  01F1               	clrf	(?_reverse+1)
  6514  0D0F  07F1               	addwf	(?_reverse+1)
  6515  0D10  0827               	movf	(intToStr@i),w
  6516  0D11  01F0               	clrf	(?_reverse)
  6517  0D12  07F0               	addwf	(?_reverse)
  6518                           
  6519  0D13  0822               	movf	(intToStr@str),w
  6520  0D14  120A  158A  216D   	fcall	_reverse
              120A  158A         
  6521                           	line	38
  6522                           	
  6523  0D19                     l5751:	
  6524                           ;string.c: 38: str[i] = '\0';
  6525  0D19  1283               	bcf	status, 5	;RP0=0, select bank0
  6526  0D1A  1303               	bcf	status, 6	;RP1=0, select bank0
  6527  0D1B  0827               	movf	(intToStr@i),w
  6528  0D1C  0722               	addwf	(intToStr@str),w
  6529  0D1D  00A5               	movwf	(??_intToStr+0)+0
  6530  0D1E  0825               	movf	0+(??_intToStr+0)+0,w
  6531  0D1F  0084               	movwf	fsr0
  6532  0D20  1383               	bcf	status, 7	;select IRP bank0
  6533  0D21  0180               	clrf	indf
  6534                           	line	39
  6535                           	
  6536  0D22                     l5753:	
  6537                           ;string.c: 39: return i;
  6538  0D22  0828               	movf	(intToStr@i+1),w
  6539  0D23  01A1               	clrf	(?_intToStr+1)
  6540  0D24  07A1               	addwf	(?_intToStr+1)
  6541  0D25  0827               	movf	(intToStr@i),w
  6542  0D26  01A0               	clrf	(?_intToStr)
  6543  0D27  07A0               	addwf	(?_intToStr)
  6544                           
  6545  0D28  2D29               	goto	l2153
  6546                           	
  6547  0D29                     l5755:	
  6548                           	line	40
  6549                           	
  6550  0D29                     l2153:	
  6551  0D29  0008               	return
  6552                           	opt stack 0
  6553                           GLOBAL	__end_of_intToStr
  6554  0D2A                     	__end_of_intToStr:
  6555 ;; =============== function _intToStr ends ============
  6556                           
  6557                           	signat	_intToStr,12410
  6558                           	global	_lcd_goto
  6559                           psect	text760,local,class=CODE,delta=2
  6560                           global __ptext760
  6561  0006                     __ptext760:
  6562                           
  6563 ;; *************** function _lcd_goto *****************
  6564 ;; Defined at:
  6565 ;;		line 52 in file "C:\Users\abdal\Desktop\University\Year 4\Second Semester\Real Time Lab\Experiments and Codes\exp3\S
       erial-Requirements\Codes\lcd.c"
  6566 ;; Parameters:    Size  Location     Type
  6567 ;;  pos             1    wreg     unsigned char 
  6568 ;; Auto vars:     Size  Location     Type
  6569 ;;  pos             1    3[COMMON] unsigned char 
  6570 ;; Return value:  Size  Location     Type
  6571 ;;		None               void
  6572 ;; Registers used:
  6573 ;;		wreg, status,2, status,0, pclath, cstack
  6574 ;; Tracked objects:
  6575 ;;		On entry : 0/0
  6576 ;;		On exit  : 0/0
  6577 ;;		Unchanged: 0/0
  6578 ;; Data sizes:     COMMON   BANK0   BANK1   BANK3   BANK2
  6579 ;;      Params:         0       0       0       0       0
  6580 ;;      Locals:         1       0       0       0       0
  6581 ;;      Temps:          0       0       0       0       0
  6582 ;;      Totals:         1       0       0       0       0
  6583 ;;Total ram usage:        1 bytes
  6584 ;; Hardware stack levels used:    1
  6585 ;; Hardware stack levels required when called:    1
  6586 ;; This function calls:
  6587 ;;		_lcd_write
  6588 ;; This function is called by:
  6589 ;;		_main
  6590 ;; This function uses a non-reentrant model
  6591 ;;
  6592                           psect	text760
  6593                           	file	"C:\Users\abdal\Desktop\University\Year 4\Second Semester\Real Time Lab\Experiment
                                 s and Codes\exp3\Serial-Requirements\Codes\lcd.c"
  6594                           	line	52
  6595                           	global	__size_of_lcd_goto
  6596  000C                     	__size_of_lcd_goto	equ	__end_of_lcd_goto-_lcd_goto
  6597                           	
  6598  0006                     _lcd_goto:	
  6599                           	opt	stack 6
  6600                           ; Regs used in _lcd_goto: [wreg+status,2+status,0+pclath+cstack]
  6601                           ;lcd_goto@pos stored from wreg
  6602  0006  00F3               	movwf	(lcd_goto@pos)
  6603                           	line	53
  6604                           	
  6605  0007                     l5729:	
  6606                           ;lcd.c: 53: RE0 = 0;
  6607  0007  1283               	bcf	status, 5	;RP0=0, select bank0
  6608  0008  1303               	bcf	status, 6	;RP1=0, select bank0
  6609  0009  1009               	bcf	(72/8),(72)&7
  6610                           	line	54
  6611                           	
  6612  000A                     l5731:	
  6613                           ;lcd.c: 54: lcd_write(0x80+pos);
  6614  000A  0873               	movf	(lcd_goto@pos),w
  6615  000B  3E80               	addlw	080h
  6616  000C  120A  158A  2077   	fcall	_lcd_write
              120A  118A         
  6617                           	line	55
  6618                           	
  6619  0011                     l1445:	
  6620  0011  0008               	return
  6621                           	opt stack 0
  6622                           GLOBAL	__end_of_lcd_goto
  6623  0012                     	__end_of_lcd_goto:
  6624 ;; =============== function _lcd_goto ends ============
  6625                           
  6626                           	signat	_lcd_goto,4216
  6627                           	global	_lcd_puts
  6628                           psect	text761,local,class=CODE,delta=2
  6629                           global __ptext761
  6630  08C6                     __ptext761:
  6631                           
  6632 ;; *************** function _lcd_puts *****************
  6633 ;; Defined at:
  6634 ;;		line 37 in file "C:\Users\abdal\Desktop\University\Year 4\Second Semester\Real Time Lab\Experiments and Codes\exp3\S
       erial-Requirements\Codes\lcd.c"
  6635 ;; Parameters:    Size  Location     Type
  6636 ;;  s               2    3[COMMON] PTR const unsigned char 
  6637 ;;		 -> STR_3(14), STR_2(11), str(10), STR_1(12), 
  6638 ;; Auto vars:     Size  Location     Type
  6639 ;;		None
  6640 ;; Return value:  Size  Location     Type
  6641 ;;		None               void
  6642 ;; Registers used:
  6643 ;;		wreg, fsr0l, fsr0h, status,2, status,0, btemp+1, pclath, cstack
  6644 ;; Tracked objects:
  6645 ;;		On entry : 0/0
  6646 ;;		On exit  : 0/0
  6647 ;;		Unchanged: 0/0
  6648 ;; Data sizes:     COMMON   BANK0   BANK1   BANK3   BANK2
  6649 ;;      Params:         2       0       0       0       0
  6650 ;;      Locals:         0       0       0       0       0
  6651 ;;      Temps:          0       0       0       0       0
  6652 ;;      Totals:         2       0       0       0       0
  6653 ;;Total ram usage:        2 bytes
  6654 ;; Hardware stack levels used:    1
  6655 ;; Hardware stack levels required when called:    1
  6656 ;; This function calls:
  6657 ;;		_lcd_write
  6658 ;; This function is called by:
  6659 ;;		_main
  6660 ;; This function uses a non-reentrant model
  6661 ;;
  6662                           psect	text761
  6663                           	file	"C:\Users\abdal\Desktop\University\Year 4\Second Semester\Real Time Lab\Experiment
                                 s and Codes\exp3\Serial-Requirements\Codes\lcd.c"
  6664                           	line	37
  6665                           	global	__size_of_lcd_puts
  6666  002B                     	__size_of_lcd_puts	equ	__end_of_lcd_puts-_lcd_puts
  6667                           	
  6668  08C6                     _lcd_puts:	
  6669                           	opt	stack 6
  6670                           ; Regs used in _lcd_puts: [wreg-fsr0h+status,2+status,0+btemp+1+pclath+cstack]
  6671                           	line	38
  6672                           	
  6673  08C6                     l5721:	
  6674                           ;lcd.c: 38: RE0 = 1;
  6675  08C6  1283               	bcf	status, 5	;RP0=0, select bank0
  6676  08C7  1303               	bcf	status, 6	;RP1=0, select bank0
  6677  08C8  1409               	bsf	(72/8),(72)&7
  6678                           	line	39
  6679                           ;lcd.c: 39: while(*s)
  6680  08C9  28DF               	goto	l5727
  6681                           	
  6682  08CA                     l1434:	
  6683                           	line	40
  6684                           	
  6685  08CA                     l5723:	
  6686                           ;lcd.c: 40: lcd_write(*s++);
  6687  08CA  0874               	movf	(lcd_puts@s+1),w
  6688  08CB  00FF               	movwf	btemp+1
  6689  08CC  0873               	movf	(lcd_puts@s),w
  6690  08CD  0084               	movwf	fsr0
  6691  08CE  120A  158A  2000   	fcall	stringtab
              120A  158A         
  6692  08D3  120A  158A  2077   	fcall	_lcd_write
              120A  158A         
  6693                           	
  6694  08D8                     l5725:	
  6695  08D8  3001               	movlw	low(01h)
  6696  08D9  07F3               	addwf	(lcd_puts@s),f
  6697  08DA  1803               	skipnc
  6698  08DB  0AF4               	incf	(lcd_puts@s+1),f
  6699  08DC  3000               	movlw	high(01h)
  6700  08DD  07F4               	addwf	(lcd_puts@s+1),f
  6701  08DE  28DF               	goto	l5727
  6702                           	
  6703  08DF                     l1433:	
  6704                           	line	39
  6705                           	
  6706  08DF                     l5727:	
  6707  08DF  0874               	movf	(lcd_puts@s+1),w
  6708  08E0  1283               	bcf	status, 5	;RP0=0, select bank0
  6709  08E1  1303               	bcf	status, 6	;RP1=0, select bank0
  6710  08E2  00FF               	movwf	btemp+1
  6711  08E3  0873               	movf	(lcd_puts@s),w
  6712  08E4  0084               	movwf	fsr0
  6713  08E5  120A  158A  2000   	fcall	stringtab
              120A  158A         
  6714  08EA  3800               	iorlw	0
  6715  08EB  1D03               	skipz
  6716  08EC  28EE               	goto	u3291
  6717  08ED  28EF               	goto	u3290
  6718  08EE                     u3291:
  6719  08EE  28CA               	goto	l5723
  6720  08EF                     u3290:
  6721  08EF  28F0               	goto	l1436
  6722                           	
  6723  08F0                     l1435:	
  6724                           	line	41
  6725                           	
  6726  08F0                     l1436:	
  6727  08F0  0008               	return
  6728                           	opt stack 0
  6729                           GLOBAL	__end_of_lcd_puts
  6730  08F1                     	__end_of_lcd_puts:
  6731 ;; =============== function _lcd_puts ends ============
  6732                           
  6733                           	signat	_lcd_puts,4216
  6734                           	global	_lcd_clear
  6735                           psect	text762,local,class=CODE,delta=2
  6736                           global __ptext762
  6737  1744                     __ptext762:
  6738                           
  6739 ;; *************** function _lcd_clear *****************
  6740 ;; Defined at:
  6741 ;;		line 31 in file "C:\Users\abdal\Desktop\University\Year 4\Second Semester\Real Time Lab\Experiments and Codes\exp3\S
       erial-Requirements\Codes\lcd.c"
  6742 ;; Parameters:    Size  Location     Type
  6743 ;;		None
  6744 ;; Auto vars:     Size  Location     Type
  6745 ;;		None
  6746 ;; Return value:  Size  Location     Type
  6747 ;;		None               void
  6748 ;; Registers used:
  6749 ;;		wreg, status,2, status,0, pclath, cstack
  6750 ;; Tracked objects:
  6751 ;;		On entry : 0/0
  6752 ;;		On exit  : 0/0
  6753 ;;		Unchanged: 0/0
  6754 ;; Data sizes:     COMMON   BANK0   BANK1   BANK3   BANK2
  6755 ;;      Params:         0       0       0       0       0
  6756 ;;      Locals:         0       0       0       0       0
  6757 ;;      Temps:          0       0       0       0       0
  6758 ;;      Totals:         0       0       0       0       0
  6759 ;;Total ram usage:        0 bytes
  6760 ;; Hardware stack levels used:    1
  6761 ;; Hardware stack levels required when called:    1
  6762 ;; This function calls:
  6763 ;;		_lcd_write
  6764 ;;		_DelayMs
  6765 ;; This function is called by:
  6766 ;;		_main
  6767 ;; This function uses a non-reentrant model
  6768 ;;
  6769                           psect	text762
  6770                           	file	"C:\Users\abdal\Desktop\University\Year 4\Second Semester\Real Time Lab\Experiment
                                 s and Codes\exp3\Serial-Requirements\Codes\lcd.c"
  6771                           	line	31
  6772                           	global	__size_of_lcd_clear
  6773  0010                     	__size_of_lcd_clear	equ	__end_of_lcd_clear-_lcd_clear
  6774                           	
  6775  1744                     _lcd_clear:	
  6776                           	opt	stack 6
  6777                           ; Regs used in _lcd_clear: [wreg+status,2+status,0+pclath+cstack]
  6778                           	line	32
  6779                           	
  6780  1744                     l5717:	
  6781                           ;lcd.c: 32: RE0 = 0;
  6782  1744  1283               	bcf	status, 5	;RP0=0, select bank0
  6783  1745  1303               	bcf	status, 6	;RP1=0, select bank0
  6784  1746  1009               	bcf	(72/8),(72)&7
  6785                           	line	33
  6786                           	
  6787  1747                     l5719:	
  6788                           ;lcd.c: 33: lcd_write(0x1);
  6789  1747  3001               	movlw	(01h)
  6790  1748  120A  158A  2077   	fcall	_lcd_write
              160A  118A         
  6791                           	line	34
  6792                           ;lcd.c: 34: DelayMs(2);
  6793  174D  3002               	movlw	(02h)
  6794  174E  160A  118A  27DF   	fcall	_DelayMs
              160A  118A         
  6795                           	line	35
  6796                           	
  6797  1753                     l1430:	
  6798  1753  0008               	return
  6799                           	opt stack 0
  6800                           GLOBAL	__end_of_lcd_clear
  6801  1754                     	__end_of_lcd_clear:
  6802 ;; =============== function _lcd_clear ends ============
  6803                           
  6804                           	signat	_lcd_clear,88
  6805                           	global	_lcd_init
  6806                           psect	text763,local,class=CODE,delta=2
  6807                           global __ptext763
  6808  0A07                     __ptext763:
  6809                           
  6810 ;; *************** function _lcd_init *****************
  6811 ;; Defined at:
  6812 ;;		line 57 in file "C:\Users\abdal\Desktop\University\Year 4\Second Semester\Real Time Lab\Experiments and Codes\exp3\S
       erial-Requirements\Codes\lcd.c"
  6813 ;; Parameters:    Size  Location     Type
  6814 ;;		None
  6815 ;; Auto vars:     Size  Location     Type
  6816 ;;  _dcnt           1    6[COMMON] unsigned char 
  6817 ;;  _dcnt           1    5[COMMON] unsigned char 
  6818 ;; Return value:  Size  Location     Type
  6819 ;;		None               void
  6820 ;; Registers used:
  6821 ;;		wreg, status,2, status,0, pclath, cstack
  6822 ;; Tracked objects:
  6823 ;;		On entry : 0/0
  6824 ;;		On exit  : 0/0
  6825 ;;		Unchanged: 0/0
  6826 ;; Data sizes:     COMMON   BANK0   BANK1   BANK3   BANK2
  6827 ;;      Params:         0       0       0       0       0
  6828 ;;      Locals:         2       0       0       0       0
  6829 ;;      Temps:          1       0       0       0       0
  6830 ;;      Totals:         3       0       0       0       0
  6831 ;;Total ram usage:        3 bytes
  6832 ;; Hardware stack levels used:    1
  6833 ;; Hardware stack levels required when called:    1
  6834 ;; This function calls:
  6835 ;;		_DelayMs
  6836 ;;		_lcd_write
  6837 ;; This function is called by:
  6838 ;;		_main
  6839 ;; This function uses a non-reentrant model
  6840 ;;
  6841                           psect	text763
  6842                           	file	"C:\Users\abdal\Desktop\University\Year 4\Second Semester\Real Time Lab\Experiment
                                 s and Codes\exp3\Serial-Requirements\Codes\lcd.c"
  6843                           	line	57
  6844                           	global	__size_of_lcd_init
  6845  005B                     	__size_of_lcd_init	equ	__end_of_lcd_init-_lcd_init
  6846                           	
  6847  0A07                     _lcd_init:	
  6848                           	opt	stack 6
  6849                           ; Regs used in _lcd_init: [wreg+status,2+status,0+pclath+cstack]
  6850                           	line	58
  6851                           	
  6852  0A07                     l5685:	
  6853                           ;lcd.c: 58: RE0 = 0;
  6854  0A07  1283               	bcf	status, 5	;RP0=0, select bank0
  6855  0A08  1303               	bcf	status, 6	;RP1=0, select bank0
  6856  0A09  1009               	bcf	(72/8),(72)&7
  6857                           	line	59
  6858                           	
  6859  0A0A                     l5687:	
  6860                           ;lcd.c: 59: DelayMs(15);
  6861  0A0A  300F               	movlw	(0Fh)
  6862  0A0B  160A  118A  27DF   	fcall	_DelayMs
              120A  158A         
  6863                           	line	60
  6864                           	
  6865  0A10                     l5689:	
  6866                           ;lcd.c: 60: PORTD = (0x3 << 4);
  6867  0A10  3030               	movlw	(030h)
  6868  0A11  1283               	bcf	status, 5	;RP0=0, select bank0
  6869  0A12  1303               	bcf	status, 6	;RP1=0, select bank0
  6870  0A13  0088               	movwf	(8)	;volatile
  6871                           	line	61
  6872                           	
  6873  0A14                     l5691:	
  6874                           ;lcd.c: 61: ((RE1 = 1),(RE1=0));
  6875  0A14  1489               	bsf	(73/8),(73)&7
  6876                           	
  6877  0A15                     l5693:	
  6878  0A15  1089               	bcf	(73/8),(73)&7
  6879                           	line	62
  6880                           	
  6881  0A16                     l5695:	
  6882                           ;lcd.c: 62: DelayMs(5);
  6883  0A16  3005               	movlw	(05h)
  6884  0A17  160A  118A  27DF   	fcall	_DelayMs
              120A  158A         
  6885                           	line	63
  6886                           	
  6887  0A1C                     l5697:	
  6888                           ;lcd.c: 63: ((RE1 = 1),(RE1=0));
  6889  0A1C  1283               	bcf	status, 5	;RP0=0, select bank0
  6890  0A1D  1303               	bcf	status, 6	;RP1=0, select bank0
  6891  0A1E  1489               	bsf	(73/8),(73)&7
  6892                           	
  6893  0A1F                     l5699:	
  6894  0A1F  1089               	bcf	(73/8),(73)&7
  6895                           	line	64
  6896                           ;lcd.c: 64: { unsigned char _dcnt; _dcnt = (100)/((12*1000L)/(4*1000L))|1; while(--_dcnt
                                  != 0) continue; };
  6897  0A20  3021               	movlw	(021h)
  6898  0A21  00F4               	movwf	(??_lcd_init+0)+0
  6899  0A22  0874               	movf	(??_lcd_init+0)+0,w
  6900  0A23  00F5               	movwf	(lcd_init@_dcnt)
  6901  0A24  2A26               	goto	l5701
  6902                           	
  6903  0A25                     l1449:	
  6904  0A25  2A26               	goto	l5701
  6905                           	
  6906  0A26                     l1448:	
  6907                           	
  6908  0A26                     l5701:	
  6909  0A26  3001               	movlw	low(01h)
  6910  0A27  02F5               	subwf	(lcd_init@_dcnt),f
  6911  0A28  1D03               	btfss	status,2
  6912  0A29  2A2B               	goto	u3271
  6913  0A2A  2A2C               	goto	u3270
  6914  0A2B                     u3271:
  6915  0A2B  2A26               	goto	l5701
  6916  0A2C                     u3270:
  6917                           	
  6918  0A2C                     l1450:	
  6919                           	line	65
  6920                           ;lcd.c: 65: ((RE1 = 1),(RE1=0));
  6921  0A2C  1283               	bcf	status, 5	;RP0=0, select bank0
  6922  0A2D  1303               	bcf	status, 6	;RP1=0, select bank0
  6923  0A2E  1489               	bsf	(73/8),(73)&7
  6924  0A2F  1089               	bcf	(73/8),(73)&7
  6925                           	line	66
  6926                           	
  6927  0A30                     l5703:	
  6928                           ;lcd.c: 66: DelayMs(5);
  6929  0A30  3005               	movlw	(05h)
  6930  0A31  160A  118A  27DF   	fcall	_DelayMs
              120A  158A         
  6931                           	line	67
  6932                           	
  6933  0A36                     l5705:	
  6934                           ;lcd.c: 67: PORTD = (0x2 << 4);
  6935  0A36  3020               	movlw	(020h)
  6936  0A37  1283               	bcf	status, 5	;RP0=0, select bank0
  6937  0A38  1303               	bcf	status, 6	;RP1=0, select bank0
  6938  0A39  0088               	movwf	(8)	;volatile
  6939                           	line	68
  6940                           	
  6941  0A3A                     l5707:	
  6942                           ;lcd.c: 68: ((RE1 = 1),(RE1=0));
  6943  0A3A  1489               	bsf	(73/8),(73)&7
  6944                           	
  6945  0A3B                     l5709:	
  6946  0A3B  1089               	bcf	(73/8),(73)&7
  6947                           	line	69
  6948                           	
  6949  0A3C                     l5711:	
  6950                           ;lcd.c: 69: { unsigned char _dcnt; _dcnt = (40)/((12*1000L)/(4*1000L))|1; while(--_dcnt 
                                 != 0) continue; };
  6951  0A3C  300D               	movlw	(0Dh)
  6952  0A3D  00F4               	movwf	(??_lcd_init+0)+0
  6953  0A3E  0874               	movf	(??_lcd_init+0)+0,w
  6954  0A3F  00F6               	movwf	(lcd_init@_dcnt_2125)
  6955  0A40  2A42               	goto	l5713
  6956                           	
  6957  0A41                     l1452:	
  6958  0A41  2A42               	goto	l5713
  6959                           	
  6960  0A42                     l1451:	
  6961                           	
  6962  0A42                     l5713:	
  6963  0A42  3001               	movlw	low(01h)
  6964  0A43  02F6               	subwf	(lcd_init@_dcnt_2125),f
  6965  0A44  1D03               	btfss	status,2
  6966  0A45  2A47               	goto	u3281
  6967  0A46  2A48               	goto	u3280
  6968  0A47                     u3281:
  6969  0A47  2A42               	goto	l5713
  6970  0A48                     u3280:
  6971  0A48  2A49               	goto	l5715
  6972                           	
  6973  0A49                     l1453:	
  6974                           	line	70
  6975                           	
  6976  0A49                     l5715:	
  6977                           ;lcd.c: 70: lcd_write(0x28);
  6978  0A49  3028               	movlw	(028h)
  6979  0A4A  120A  158A  2077   	fcall	_lcd_write
              120A  158A         
  6980                           	line	71
  6981                           ;lcd.c: 71: lcd_write(0x08);
  6982  0A4F  3008               	movlw	(08h)
  6983  0A50  120A  158A  2077   	fcall	_lcd_write
              120A  158A         
  6984                           	line	72
  6985                           ;lcd.c: 72: lcd_write(0x0F);
  6986  0A55  300F               	movlw	(0Fh)
  6987  0A56  120A  158A  2077   	fcall	_lcd_write
              120A  158A         
  6988                           	line	73
  6989                           ;lcd.c: 73: lcd_write(0x06);
  6990  0A5B  3006               	movlw	(06h)
  6991  0A5C  120A  158A  2077   	fcall	_lcd_write
              120A  158A         
  6992                           	line	74
  6993                           	
  6994  0A61                     l1454:	
  6995  0A61  0008               	return
  6996                           	opt stack 0
  6997                           GLOBAL	__end_of_lcd_init
  6998  0A62                     	__end_of_lcd_init:
  6999 ;; =============== function _lcd_init ends ============
  7000                           
  7001                           	signat	_lcd_init,88
  7002                           	global	_DelaySec
  7003                           psect	text764,local,class=CODE,delta=2
  7004                           global __ptext764
  7005  17BF                     __ptext764:
  7006                           
  7007 ;; *************** function _DelaySec *****************
  7008 ;; Defined at:
  7009 ;;		line 96 in file "C:\Users\abdal\Desktop\University\Year 4\Second Semester\Real Time Lab\Experiments and Codes\exp3\A
       DC (motors and LCD)\ADC_EXMAPLE.c"
  7010 ;; Parameters:    Size  Location     Type
  7011 ;;  sec             2    4[COMMON] int 
  7012 ;; Auto vars:     Size  Location     Type
  7013 ;;  i               2    7[COMMON] int 
  7014 ;; Return value:  Size  Location     Type
  7015 ;;		None               void
  7016 ;; Registers used:
  7017 ;;		wreg, status,2, status,0, pclath, cstack
  7018 ;; Tracked objects:
  7019 ;;		On entry : 0/0
  7020 ;;		On exit  : 0/0
  7021 ;;		Unchanged: 0/0
  7022 ;; Data sizes:     COMMON   BANK0   BANK1   BANK3   BANK2
  7023 ;;      Params:         2       0       0       0       0
  7024 ;;      Locals:         2       0       0       0       0
  7025 ;;      Temps:          1       0       0       0       0
  7026 ;;      Totals:         5       0       0       0       0
  7027 ;;Total ram usage:        5 bytes
  7028 ;; Hardware stack levels used:    1
  7029 ;; Hardware stack levels required when called:    1
  7030 ;; This function calls:
  7031 ;;		_DelayMs
  7032 ;; This function is called by:
  7033 ;;		_main
  7034 ;; This function uses a non-reentrant model
  7035 ;;
  7036                           psect	text764
  7037                           	file	"C:\Users\abdal\Desktop\University\Year 4\Second Semester\Real Time Lab\Experiment
                                 s and Codes\exp3\ADC (motors and LCD)\ADC_EXMAPLE.c"
  7038                           	line	96
  7039                           	global	__size_of_DelaySec
  7040  0020                     	__size_of_DelaySec	equ	__end_of_DelaySec-_DelaySec
  7041                           	
  7042  17BF                     _DelaySec:	
  7043                           	opt	stack 6
  7044                           ; Regs used in _DelaySec: [wreg+status,2+status,0+pclath+cstack]
  7045                           	line	97
  7046                           	
  7047  17BF                     l5677:	
  7048                           ;ADC_EXMAPLE.c: 97: for(int i=0;i<sec;i++)
  7049  17BF  01F7               	clrf	(DelaySec@i)
  7050  17C0  01F8               	clrf	(DelaySec@i+1)
  7051  17C1  2FCF               	goto	l5683
  7052                           	line	98
  7053                           	
  7054  17C2                     l725:	
  7055                           	
  7056  17C2                     l5679:	
  7057                           ;ADC_EXMAPLE.c: 98: DelayMs(1000);
  7058  17C2  30E8               	movlw	(0E8h)
  7059  17C3  160A  118A  27DF   	fcall	_DelayMs
              160A  118A         
  7060                           	line	97
  7061                           	
  7062  17C8                     l5681:	
  7063  17C8  3001               	movlw	low(01h)
  7064  17C9  07F7               	addwf	(DelaySec@i),f
  7065  17CA  1803               	skipnc
  7066  17CB  0AF8               	incf	(DelaySec@i+1),f
  7067  17CC  3000               	movlw	high(01h)
  7068  17CD  07F8               	addwf	(DelaySec@i+1),f
  7069  17CE  2FCF               	goto	l5683
  7070                           	
  7071  17CF                     l724:	
  7072                           	
  7073  17CF                     l5683:	
  7074  17CF  0878               	movf	(DelaySec@i+1),w
  7075  17D0  3A80               	xorlw	80h
  7076  17D1  00F6               	movwf	(??_DelaySec+0)+0
  7077  17D2  0875               	movf	(DelaySec@sec+1),w
  7078  17D3  3A80               	xorlw	80h
  7079  17D4  0276               	subwf	(??_DelaySec+0)+0,w
  7080  17D5  1D03               	skipz
  7081  17D6  2FD9               	goto	u3265
  7082  17D7  0874               	movf	(DelaySec@sec),w
  7083  17D8  0277               	subwf	(DelaySec@i),w
  7084  17D9                     u3265:
  7085                           
  7086  17D9  1C03               	skipc
  7087  17DA  2FDC               	goto	u3261
  7088  17DB  2FDD               	goto	u3260
  7089  17DC                     u3261:
  7090  17DC  2FC2               	goto	l5679
  7091  17DD                     u3260:
  7092  17DD  2FDE               	goto	l727
  7093                           	
  7094  17DE                     l726:	
  7095                           	line	99
  7096                           	
  7097  17DE                     l727:	
  7098  17DE  0008               	return
  7099                           	opt stack 0
  7100                           GLOBAL	__end_of_DelaySec
  7101  17DF                     	__end_of_DelaySec:
  7102 ;; =============== function _DelaySec ends ============
  7103                           
  7104                           	signat	_DelaySec,4216
  7105                           	global	_frexp
  7106                           psect	text765,local,class=CODE,delta=2
  7107                           global __ptext765
  7108  0923                     __ptext765:
  7109                           
  7110 ;; *************** function _frexp *****************
  7111 ;; Defined at:
  7112 ;;		line 255 in file "C:\Program Files (x86)\HI-TECH Software\PICC\9.83\sources\frexp.c"
  7113 ;; Parameters:    Size  Location     Type
  7114 ;;  value           3    0[COMMON] int 
  7115 ;;  eptr            1    3[COMMON] PTR int 
  7116 ;;		 -> log@exp(2), floor@expon(2), 
  7117 ;; Auto vars:     Size  Location     Type
  7118 ;;		None
  7119 ;; Return value:  Size  Location     Type
  7120 ;;                  3    0[COMMON] PTR int 
  7121 ;; Registers used:
  7122 ;;		wreg, fsr0l, fsr0h, status,2, status,0, btemp+1
  7123 ;; Tracked objects:
  7124 ;;		On entry : 0/0
  7125 ;;		On exit  : 0/0
  7126 ;;		Unchanged: 0/0
  7127 ;; Data sizes:     COMMON   BANK0   BANK1   BANK3   BANK2
  7128 ;;      Params:         4       0       0       0       0
  7129 ;;      Locals:         0       0       0       0       0
  7130 ;;      Temps:          2       0       0       0       0
  7131 ;;      Totals:         6       0       0       0       0
  7132 ;;Total ram usage:        6 bytes
  7133 ;; Hardware stack levels used:    1
  7134 ;; This function calls:
  7135 ;;		Nothing
  7136 ;; This function is called by:
  7137 ;;		_floor
  7138 ;;		_log
  7139 ;; This function uses a non-reentrant model
  7140 ;;
  7141                           psect	text765
  7142                           	file	"C:\Program Files (x86)\HI-TECH Software\PICC\9.83\sources\frexp.c"
  7143                           	line	255
  7144                           	global	__size_of_frexp
  7145  004A                     	__size_of_frexp	equ	__end_of_frexp-_frexp
  7146                           	
  7147  0923                     _frexp:	
  7148                           	opt	stack 3
  7149                           ; Regs used in _frexp: [wreg-fsr0h+status,2+status,0+btemp+1]
  7150                           	line	256
  7151                           	
  7152  0923                     l5649:	
  7153  0923  0872               	movf	(frexp@value+2),w
  7154  0924  0471               	iorwf	(frexp@value+1),w
  7155  0925  0470               	iorwf	(frexp@value),w
  7156  0926  1D03               	skipz
  7157  0927  2929               	goto	u3241
  7158  0928  292A               	goto	u3240
  7159  0929                     u3241:
  7160  0929  293A               	goto	l5657
  7161  092A                     u3240:
  7162                           	line	257
  7163                           	
  7164  092A                     l5651:	
  7165  092A  0873               	movf	(frexp@eptr),w
  7166  092B  0084               	movwf	fsr0
  7167  092C  3000               	movlw	low(0)
  7168  092D  1383               	bcf	status, 7	;select IRP bank0
  7169  092E  0080               	movwf	indf
  7170  092F  0A84               	incf	fsr0,f
  7171  0930  3000               	movlw	high(0)
  7172  0931  0080               	movwf	indf
  7173                           	line	258
  7174                           	
  7175  0932                     l5653:	
  7176  0932  3000               	movlw	0x0
  7177  0933  00F0               	movwf	(?_frexp)
  7178  0934  3000               	movlw	0x0
  7179  0935  00F1               	movwf	(?_frexp+1)
  7180  0936  3000               	movlw	0x0
  7181  0937  00F2               	movwf	(?_frexp+2)
  7182  0938  296C               	goto	l3244
  7183                           	
  7184  0939                     l5655:	
  7185  0939  296C               	goto	l3244
  7186                           	line	259
  7187                           	
  7188  093A                     l3243:	
  7189                           	line	261
  7190                           	
  7191  093A                     l5657:	
  7192  093A  0872               	movf	0+(frexp@value)+02h,w
  7193  093B  397F               	andlw	(1<<7)-1
  7194  093C  00F4               	movwf	(??_frexp+0)+0
  7195  093D  01F5               	clrf	(??_frexp+0)+0+1
  7196  093E  3001               	movlw	01h
  7197  093F  00FF               	movwf	btemp+1
  7198  0940                     u3255:
  7199  0940  1003               	clrc
  7200  0941  0DF4               	rlf	(??_frexp+0)+0,f
  7201  0942  0DF5               	rlf	(??_frexp+0)+1,f
  7202  0943  0BFF               	decfsz	btemp+1,f
  7203  0944  2940               	goto	u3255
  7204  0945  0873               	movf	(frexp@eptr),w
  7205  0946  0084               	movwf	fsr0
  7206  0947  0874               	movf	0+(??_frexp+0)+0,w
  7207  0948  1383               	bcf	status, 7	;select IRP bank0
  7208  0949  0080               	movwf	indf
  7209  094A  0A84               	incf	fsr0,f
  7210  094B  0875               	movf	1+(??_frexp+0)+0,w
  7211  094C  0080               	movwf	indf
  7212                           	line	262
  7213                           	
  7214  094D                     l5659:	
  7215  094D  0D71               	rlf	0+(frexp@value)+01h,w
  7216  094E  0D71               	rlf	0+(frexp@value)+01h,w
  7217  094F  3901               	andlw	1
  7218  0950  00F4               	movwf	(??_frexp+0)+0
  7219  0951  01F5               	clrf	(??_frexp+0)+0+1
  7220  0952  0873               	movf	(frexp@eptr),w
  7221  0953  0084               	movwf	fsr0
  7222  0954  0874               	movf	0+(??_frexp+0)+0,w
  7223  0955  0480               	iorwf	indf,f
  7224  0956  0A84               	incf	fsr0,f
  7225  0957  0875               	movf	1+(??_frexp+0)+0,w
  7226  0958  0480               	iorwf	indf,f
  7227                           	line	263
  7228                           	
  7229  0959                     l5661:	
  7230  0959  0873               	movf	(frexp@eptr),w
  7231  095A  0084               	movwf	fsr0
  7232  095B  3082               	movlw	low(-126)
  7233  095C  0780               	addwf	indf,f
  7234  095D  0F84               	incfsz	fsr0,f
  7235  095E  0800               	movf	indf,w
  7236  095F  1803               	skipnc
  7237  0960  0A00               	incf	indf,w
  7238  0961  00FF               	movwf	btemp+1
  7239  0962  30FF               	movlw	high(-126)
  7240  0963  077F               	addwf	btemp+1,w
  7241  0964  0080               	movwf	indf
  7242  0965  0384               	decf	fsr0,f
  7243                           	line	268
  7244                           	
  7245  0966                     l5663:	
  7246  0966  0872               	movf	0+(frexp@value)+02h,w
  7247  0967  3980               	andlw	not (((1<<7)-1)<<0)
  7248  0968  383F               	iorlw	(03Fh & ((1<<7)-1))<<0
  7249  0969  00F2               	movwf	0+(frexp@value)+02h
  7250                           	line	269
  7251                           	
  7252  096A                     l5665:	
  7253  096A  13F1               	bcf	0+(frexp@value)+01h,7
  7254                           	line	273
  7255                           	
  7256  096B                     l5667:	
  7257  096B  296C               	goto	l3244
  7258                           	
  7259  096C                     l5669:	
  7260                           	line	274
  7261                           	
  7262  096C                     l3244:	
  7263  096C  0008               	return
  7264                           	opt stack 0
  7265                           GLOBAL	__end_of_frexp
  7266  096D                     	__end_of_frexp:
  7267 ;; =============== function _frexp ends ============
  7268                           
  7269                           	signat	_frexp,8315
  7270                           	global	___awmod
  7271                           psect	text766,local,class=CODE,delta=2
  7272                           global __ptext766
  7273  0A62                     __ptext766:
  7274                           
  7275 ;; *************** function ___awmod *****************
  7276 ;; Defined at:
  7277 ;;		line 5 in file "C:\Program Files (x86)\HI-TECH Software\PICC\9.83\sources\awmod.c"
  7278 ;; Parameters:    Size  Location     Type
  7279 ;;  divisor         2    0[COMMON] int 
  7280 ;;  dividend        2    2[COMMON] int 
  7281 ;; Auto vars:     Size  Location     Type
  7282 ;;  sign            1    6[COMMON] unsigned char 
  7283 ;;  counter         1    5[COMMON] unsigned char 
  7284 ;; Return value:  Size  Location     Type
  7285 ;;                  2    0[COMMON] int 
  7286 ;; Registers used:
  7287 ;;		wreg, status,2, status,0
  7288 ;; Tracked objects:
  7289 ;;		On entry : 0/0
  7290 ;;		On exit  : 0/0
  7291 ;;		Unchanged: 0/0
  7292 ;; Data sizes:     COMMON   BANK0   BANK1   BANK3   BANK2
  7293 ;;      Params:         4       0       0       0       0
  7294 ;;      Locals:         2       0       0       0       0
  7295 ;;      Temps:          1       0       0       0       0
  7296 ;;      Totals:         7       0       0       0       0
  7297 ;;Total ram usage:        7 bytes
  7298 ;; Hardware stack levels used:    1
  7299 ;; This function calls:
  7300 ;;		Nothing
  7301 ;; This function is called by:
  7302 ;;		_intToStr
  7303 ;; This function uses a non-reentrant model
  7304 ;;
  7305                           psect	text766
  7306                           	file	"C:\Program Files (x86)\HI-TECH Software\PICC\9.83\sources\awmod.c"
  7307                           	line	5
  7308                           	global	__size_of___awmod
  7309  0066                     	__size_of___awmod	equ	__end_of___awmod-___awmod
  7310                           	
  7311  0A62                     ___awmod:	
  7312                           	opt	stack 5
  7313                           ; Regs used in ___awmod: [wreg+status,2+status,0]
  7314                           	line	8
  7315                           	
  7316  0A62                     l5597:	
  7317  0A62  01F6               	clrf	(___awmod@sign)
  7318                           	line	9
  7319  0A63  1FF3               	btfss	(___awmod@dividend+1),7
  7320  0A64  2A66               	goto	u3141
  7321  0A65  2A67               	goto	u3140
  7322  0A66                     u3141:
  7323  0A66  2A70               	goto	l5601
  7324  0A67                     u3140:
  7325                           	line	10
  7326                           	
  7327  0A67                     l5599:	
  7328  0A67  09F2               	comf	(___awmod@dividend),f
  7329  0A68  09F3               	comf	(___awmod@dividend+1),f
  7330  0A69  0AF2               	incf	(___awmod@dividend),f
  7331  0A6A  1903               	skipnz
  7332  0A6B  0AF3               	incf	(___awmod@dividend+1),f
  7333                           	line	11
  7334  0A6C  01F6               	clrf	(___awmod@sign)
  7335  0A6D  1403               	bsf	status,0
  7336  0A6E  0DF6               	rlf	(___awmod@sign),f
  7337  0A6F  2A70               	goto	l5601
  7338                           	line	12
  7339                           	
  7340  0A70                     l3065:	
  7341                           	line	13
  7342                           	
  7343  0A70                     l5601:	
  7344  0A70  1FF1               	btfss	(___awmod@divisor+1),7
  7345  0A71  2A73               	goto	u3151
  7346  0A72  2A74               	goto	u3150
  7347  0A73                     u3151:
  7348  0A73  2A7A               	goto	l5605
  7349  0A74                     u3150:
  7350                           	line	14
  7351                           	
  7352  0A74                     l5603:	
  7353  0A74  09F0               	comf	(___awmod@divisor),f
  7354  0A75  09F1               	comf	(___awmod@divisor+1),f
  7355  0A76  0AF0               	incf	(___awmod@divisor),f
  7356  0A77  1903               	skipnz
  7357  0A78  0AF1               	incf	(___awmod@divisor+1),f
  7358  0A79  2A7A               	goto	l5605
  7359                           	
  7360  0A7A                     l3066:	
  7361                           	line	15
  7362                           	
  7363  0A7A                     l5605:	
  7364  0A7A  0871               	movf	(___awmod@divisor+1),w
  7365  0A7B  0470               	iorwf	(___awmod@divisor),w
  7366  0A7C  1903               	skipnz
  7367  0A7D  2A7F               	goto	u3161
  7368  0A7E  2A80               	goto	u3160
  7369  0A7F                     u3161:
  7370  0A7F  2AB6               	goto	l5623
  7371  0A80                     u3160:
  7372                           	line	16
  7373                           	
  7374  0A80                     l5607:	
  7375  0A80  01F5               	clrf	(___awmod@counter)
  7376  0A81  1403               	bsf	status,0
  7377  0A82  0DF5               	rlf	(___awmod@counter),f
  7378                           	line	17
  7379  0A83  2A90               	goto	l5613
  7380                           	
  7381  0A84                     l3069:	
  7382                           	line	18
  7383                           	
  7384  0A84                     l5609:	
  7385  0A84  3001               	movlw	01h
  7386                           	
  7387  0A85                     u3175:
  7388  0A85  1003               	clrc
  7389  0A86  0DF0               	rlf	(___awmod@divisor),f
  7390  0A87  0DF1               	rlf	(___awmod@divisor+1),f
  7391  0A88  3EFF               	addlw	-1
  7392  0A89  1D03               	skipz
  7393  0A8A  2A85               	goto	u3175
  7394                           	line	19
  7395                           	
  7396  0A8B                     l5611:	
  7397  0A8B  3001               	movlw	(01h)
  7398  0A8C  00F4               	movwf	(??___awmod+0)+0
  7399  0A8D  0874               	movf	(??___awmod+0)+0,w
  7400  0A8E  07F5               	addwf	(___awmod@counter),f
  7401  0A8F  2A90               	goto	l5613
  7402                           	line	20
  7403                           	
  7404  0A90                     l3068:	
  7405                           	line	17
  7406                           	
  7407  0A90                     l5613:	
  7408  0A90  1FF1               	btfss	(___awmod@divisor+1),(15)&7
  7409  0A91  2A93               	goto	u3181
  7410  0A92  2A94               	goto	u3180
  7411  0A93                     u3181:
  7412  0A93  2A84               	goto	l5609
  7413  0A94                     u3180:
  7414  0A94  2A96               	goto	l5615
  7415                           	
  7416  0A95                     l3070:	
  7417  0A95  2A96               	goto	l5615
  7418                           	line	21
  7419                           	
  7420  0A96                     l3071:	
  7421                           	line	22
  7422                           	
  7423  0A96                     l5615:	
  7424  0A96  0871               	movf	(___awmod@divisor+1),w
  7425  0A97  0273               	subwf	(___awmod@dividend+1),w
  7426  0A98  1D03               	skipz
  7427  0A99  2A9C               	goto	u3195
  7428  0A9A  0870               	movf	(___awmod@divisor),w
  7429  0A9B  0272               	subwf	(___awmod@dividend),w
  7430  0A9C                     u3195:
  7431  0A9C  1C03               	skipc
  7432  0A9D  2A9F               	goto	u3191
  7433  0A9E  2AA0               	goto	u3190
  7434  0A9F                     u3191:
  7435  0A9F  2AA7               	goto	l5619
  7436  0AA0                     u3190:
  7437                           	line	23
  7438                           	
  7439  0AA0                     l5617:	
  7440  0AA0  0870               	movf	(___awmod@divisor),w
  7441  0AA1  02F2               	subwf	(___awmod@dividend),f
  7442  0AA2  0871               	movf	(___awmod@divisor+1),w
  7443  0AA3  1C03               	skipc
  7444  0AA4  03F3               	decf	(___awmod@dividend+1),f
  7445  0AA5  02F3               	subwf	(___awmod@dividend+1),f
  7446  0AA6  2AA7               	goto	l5619
  7447                           	
  7448  0AA7                     l3072:	
  7449                           	line	24
  7450                           	
  7451  0AA7                     l5619:	
  7452  0AA7  3001               	movlw	01h
  7453                           	
  7454  0AA8                     u3205:
  7455  0AA8  1003               	clrc
  7456  0AA9  0CF1               	rrf	(___awmod@divisor+1),f
  7457  0AAA  0CF0               	rrf	(___awmod@divisor),f
  7458  0AAB  3EFF               	addlw	-1
  7459  0AAC  1D03               	skipz
  7460  0AAD  2AA8               	goto	u3205
  7461                           	line	25
  7462                           	
  7463  0AAE                     l5621:	
  7464  0AAE  3001               	movlw	low(01h)
  7465  0AAF  02F5               	subwf	(___awmod@counter),f
  7466  0AB0  1D03               	btfss	status,2
  7467  0AB1  2AB3               	goto	u3211
  7468  0AB2  2AB4               	goto	u3210
  7469  0AB3                     u3211:
  7470  0AB3  2A96               	goto	l5615
  7471  0AB4                     u3210:
  7472  0AB4  2AB6               	goto	l5623
  7473                           	
  7474  0AB5                     l3073:	
  7475  0AB5  2AB6               	goto	l5623
  7476                           	line	26
  7477                           	
  7478  0AB6                     l3067:	
  7479                           	line	27
  7480                           	
  7481  0AB6                     l5623:	
  7482  0AB6  0876               	movf	(___awmod@sign),w
  7483  0AB7  1D03               	skipz
  7484  0AB8  2ABA               	goto	u3220
  7485  0AB9  2AC0               	goto	l5627
  7486  0ABA                     u3220:
  7487                           	line	28
  7488                           	
  7489  0ABA                     l5625:	
  7490  0ABA  09F2               	comf	(___awmod@dividend),f
  7491  0ABB  09F3               	comf	(___awmod@dividend+1),f
  7492  0ABC  0AF2               	incf	(___awmod@dividend),f
  7493  0ABD  1903               	skipnz
  7494  0ABE  0AF3               	incf	(___awmod@dividend+1),f
  7495  0ABF  2AC0               	goto	l5627
  7496                           	
  7497  0AC0                     l3074:	
  7498                           	line	29
  7499                           	
  7500  0AC0                     l5627:	
  7501  0AC0  0873               	movf	(___awmod@dividend+1),w
  7502  0AC1  01F1               	clrf	(?___awmod+1)
  7503  0AC2  07F1               	addwf	(?___awmod+1)
  7504  0AC3  0872               	movf	(___awmod@dividend),w
  7505  0AC4  01F0               	clrf	(?___awmod)
  7506  0AC5  07F0               	addwf	(?___awmod)
  7507                           
  7508  0AC6  2AC7               	goto	l3075
  7509                           	
  7510  0AC7                     l5629:	
  7511                           	line	30
  7512                           	
  7513  0AC7                     l3075:	
  7514  0AC7  0008               	return
  7515                           	opt stack 0
  7516                           GLOBAL	__end_of___awmod
  7517  0AC8                     	__end_of___awmod:
  7518 ;; =============== function ___awmod ends ============
  7519                           
  7520                           	signat	___awmod,8314
  7521                           	global	___ftge
  7522                           psect	text767,local,class=CODE,delta=2
  7523                           global __ptext767
  7524  0AC8                     __ptext767:
  7525                           
  7526 ;; *************** function ___ftge *****************
  7527 ;; Defined at:
  7528 ;;		line 5 in file "C:\Program Files (x86)\HI-TECH Software\PICC\9.83\sources\ftge.c"
  7529 ;; Parameters:    Size  Location     Type
  7530 ;;  ff1             3    0[COMMON] float 
  7531 ;;  ff2             3    3[COMMON] float 
  7532 ;; Auto vars:     Size  Location     Type
  7533 ;;		None
  7534 ;; Return value:  Size  Location     Type
  7535 ;;		None               void
  7536 ;; Registers used:
  7537 ;;		wreg, status,2, status,0
  7538 ;; Tracked objects:
  7539 ;;		On entry : 0/0
  7540 ;;		On exit  : 0/0
  7541 ;;		Unchanged: 0/0
  7542 ;; Data sizes:     COMMON   BANK0   BANK1   BANK3   BANK2
  7543 ;;      Params:         6       0       0       0       0
  7544 ;;      Locals:         0       0       0       0       0
  7545 ;;      Temps:          6       0       0       0       0
  7546 ;;      Totals:        12       0       0       0       0
  7547 ;;Total ram usage:       12 bytes
  7548 ;; Hardware stack levels used:    1
  7549 ;; This function calls:
  7550 ;;		Nothing
  7551 ;; This function is called by:
  7552 ;;		_main
  7553 ;;		_pow
  7554 ;;		_exp
  7555 ;;		_floor
  7556 ;;		_log
  7557 ;;		_ldexp
  7558 ;; This function uses a non-reentrant model
  7559 ;;
  7560                           psect	text767
  7561                           	file	"C:\Program Files (x86)\HI-TECH Software\PICC\9.83\sources\ftge.c"
  7562                           	line	5
  7563                           	global	__size_of___ftge
  7564  006C                     	__size_of___ftge	equ	__end_of___ftge-___ftge
  7565                           	
  7566  0AC8                     ___ftge:	
  7567                           	opt	stack 7
  7568                           ; Regs used in ___ftge: [wreg+status,2+status,0]
  7569                           	line	6
  7570                           	
  7571  0AC8                     l5577:	
  7572  0AC8  1FF2               	btfss	(___ftge@ff1+2),(23)&7
  7573  0AC9  2ACB               	goto	u3091
  7574  0ACA  2ACC               	goto	u3090
  7575  0ACB                     u3091:
  7576  0ACB  2AF2               	goto	l5581
  7577  0ACC                     u3090:
  7578                           	line	7
  7579                           	
  7580  0ACC                     l5579:	
  7581  0ACC  3000               	movlw	0
  7582  0ACD  00F6               	movwf	((??___ftge+0)+0)
  7583  0ACE  3000               	movlw	0
  7584  0ACF  00F7               	movwf	((??___ftge+0)+0+1)
  7585  0AD0  3080               	movlw	080h
  7586  0AD1  00F8               	movwf	((??___ftge+0)+0+2)
  7587  0AD2  0970               	comf	(___ftge@ff1),w
  7588  0AD3  00F9               	movwf	(??___ftge+3)+0
  7589  0AD4  0971               	comf	(___ftge@ff1+1),w
  7590  0AD5  00FA               	movwf	((??___ftge+3)+0+1)
  7591  0AD6  0972               	comf	(___ftge@ff1+2),w
  7592  0AD7  00FB               	movwf	((??___ftge+3)+0+2)
  7593  0AD8  0AF9               	incf	(??___ftge+3)+0,f
  7594  0AD9  1903               	skipnz
  7595  0ADA  0AFA               	incf	((??___ftge+3)+0+1),f
  7596  0ADB  1903               	skipnz
  7597  0ADC  0AFB               	incf	((??___ftge+3)+0+2),f
  7598  0ADD  0879               	movf	0+(??___ftge+3)+0,w
  7599  0ADE  07F6               	addwf	(??___ftge+0)+0,f
  7600  0ADF  087A               	movf	1+(??___ftge+3)+0,w
  7601  0AE0  1803               	skipnc
  7602  0AE1  0F7A               	incfsz	1+(??___ftge+3)+0,w
  7603  0AE2  2AE4               	goto	u3101
  7604  0AE3  2AE5               	goto	u3102
  7605  0AE4                     u3101:
  7606  0AE4  07F7               	addwf	(??___ftge+0)+1,f
  7607                           	
  7608  0AE5                     u3102:
  7609  0AE5  087B               	movf	2+(??___ftge+3)+0,w
  7610  0AE6  1803               	skipnc
  7611  0AE7  0F7B               	incfsz	2+(??___ftge+3)+0,w
  7612  0AE8  2AEA               	goto	u3103
  7613  0AE9  2AEB               	goto	u3104
  7614  0AEA                     u3103:
  7615  0AEA  07F8               	addwf	(??___ftge+0)+2,f
  7616                           	
  7617  0AEB                     u3104:
  7618  0AEB  0876               	movf	0+(??___ftge+0)+0,w
  7619  0AEC  00F0               	movwf	(___ftge@ff1)
  7620  0AED  0877               	movf	1+(??___ftge+0)+0,w
  7621  0AEE  00F1               	movwf	(___ftge@ff1+1)
  7622  0AEF  0878               	movf	2+(??___ftge+0)+0,w
  7623  0AF0  00F2               	movwf	(___ftge@ff1+2)
  7624  0AF1  2AF2               	goto	l5581
  7625                           	
  7626  0AF2                     l3024:	
  7627                           	line	8
  7628                           	
  7629  0AF2                     l5581:	
  7630  0AF2  1FF5               	btfss	(___ftge@ff2+2),(23)&7
  7631  0AF3  2AF5               	goto	u3111
  7632  0AF4  2AF6               	goto	u3110
  7633  0AF5                     u3111:
  7634  0AF5  2B1C               	goto	l5585
  7635  0AF6                     u3110:
  7636                           	line	9
  7637                           	
  7638  0AF6                     l5583:	
  7639  0AF6  3000               	movlw	0
  7640  0AF7  00F6               	movwf	((??___ftge+0)+0)
  7641  0AF8  3000               	movlw	0
  7642  0AF9  00F7               	movwf	((??___ftge+0)+0+1)
  7643  0AFA  3080               	movlw	080h
  7644  0AFB  00F8               	movwf	((??___ftge+0)+0+2)
  7645  0AFC  0973               	comf	(___ftge@ff2),w
  7646  0AFD  00F9               	movwf	(??___ftge+3)+0
  7647  0AFE  0974               	comf	(___ftge@ff2+1),w
  7648  0AFF  00FA               	movwf	((??___ftge+3)+0+1)
  7649  0B00  0975               	comf	(___ftge@ff2+2),w
  7650  0B01  00FB               	movwf	((??___ftge+3)+0+2)
  7651  0B02  0AF9               	incf	(??___ftge+3)+0,f
  7652  0B03  1903               	skipnz
  7653  0B04  0AFA               	incf	((??___ftge+3)+0+1),f
  7654  0B05  1903               	skipnz
  7655  0B06  0AFB               	incf	((??___ftge+3)+0+2),f
  7656  0B07  0879               	movf	0+(??___ftge+3)+0,w
  7657  0B08  07F6               	addwf	(??___ftge+0)+0,f
  7658  0B09  087A               	movf	1+(??___ftge+3)+0,w
  7659  0B0A  1803               	skipnc
  7660  0B0B  0F7A               	incfsz	1+(??___ftge+3)+0,w
  7661  0B0C  2B0E               	goto	u3121
  7662  0B0D  2B0F               	goto	u3122
  7663  0B0E                     u3121:
  7664  0B0E  07F7               	addwf	(??___ftge+0)+1,f
  7665                           	
  7666  0B0F                     u3122:
  7667  0B0F  087B               	movf	2+(??___ftge+3)+0,w
  7668  0B10  1803               	skipnc
  7669  0B11  0F7B               	incfsz	2+(??___ftge+3)+0,w
  7670  0B12  2B14               	goto	u3123
  7671  0B13  2B15               	goto	u3124
  7672  0B14                     u3123:
  7673  0B14  07F8               	addwf	(??___ftge+0)+2,f
  7674                           	
  7675  0B15                     u3124:
  7676  0B15  0876               	movf	0+(??___ftge+0)+0,w
  7677  0B16  00F3               	movwf	(___ftge@ff2)
  7678  0B17  0877               	movf	1+(??___ftge+0)+0,w
  7679  0B18  00F4               	movwf	(___ftge@ff2+1)
  7680  0B19  0878               	movf	2+(??___ftge+0)+0,w
  7681  0B1A  00F5               	movwf	(___ftge@ff2+2)
  7682  0B1B  2B1C               	goto	l5585
  7683                           	
  7684  0B1C                     l3025:	
  7685                           	line	10
  7686                           	
  7687  0B1C                     l5585:	
  7688  0B1C  3080               	movlw	080h
  7689  0B1D  06F2               	xorwf	(___ftge@ff1+2),f
  7690                           	line	11
  7691                           	
  7692  0B1E                     l5587:	
  7693  0B1E  3080               	movlw	080h
  7694  0B1F  06F5               	xorwf	(___ftge@ff2+2),f
  7695                           	line	12
  7696                           	
  7697  0B20                     l5589:	
  7698  0B20  0875               	movf	(___ftge@ff2+2),w
  7699  0B21  0272               	subwf	(___ftge@ff1+2),w
  7700  0B22  1D03               	skipz
  7701  0B23  2B2A               	goto	u3135
  7702  0B24  0874               	movf	(___ftge@ff2+1),w
  7703  0B25  0271               	subwf	(___ftge@ff1+1),w
  7704  0B26  1D03               	skipz
  7705  0B27  2B2A               	goto	u3135
  7706  0B28  0873               	movf	(___ftge@ff2),w
  7707  0B29  0270               	subwf	(___ftge@ff1),w
  7708  0B2A                     u3135:
  7709  0B2A  1803               	skipnc
  7710  0B2B  2B2D               	goto	u3131
  7711  0B2C  2B2E               	goto	u3130
  7712  0B2D                     u3131:
  7713  0B2D  2B30               	goto	l5593
  7714  0B2E                     u3130:
  7715                           	
  7716  0B2E                     l5591:	
  7717  0B2E  1003               	clrc
  7718                           	
  7719  0B2F  2B33               	goto	l3026
  7720                           	
  7721  0B30                     l5387:	
  7722                           	
  7723  0B30                     l5593:	
  7724  0B30  1403               	setc
  7725                           	
  7726  0B31  2B33               	goto	l3026
  7727                           	
  7728  0B32                     l5389:	
  7729  0B32  2B33               	goto	l3026
  7730                           	
  7731  0B33                     l5595:	
  7732                           	line	13
  7733                           	
  7734  0B33                     l3026:	
  7735  0B33  0008               	return
  7736                           	opt stack 0
  7737                           GLOBAL	__end_of___ftge
  7738  0B34                     	__end_of___ftge:
  7739 ;; =============== function ___ftge ends ============
  7740                           
  7741                           	signat	___ftge,8312
  7742                           	global	___ftneg
  7743                           psect	text768,local,class=CODE,delta=2
  7744                           global __ptext768
  7745  1738                     __ptext768:
  7746                           
  7747 ;; *************** function ___ftneg *****************
  7748 ;; Defined at:
  7749 ;;		line 16 in file "C:\Program Files (x86)\HI-TECH Software\PICC\9.83\sources\ftneg.c"
  7750 ;; Parameters:    Size  Location     Type
  7751 ;;  f1              3    8[COMMON] float 
  7752 ;; Auto vars:     Size  Location     Type
  7753 ;;		None
  7754 ;; Return value:  Size  Location     Type
  7755 ;;                  3    8[COMMON] float 
  7756 ;; Registers used:
  7757 ;;		wreg
  7758 ;; Tracked objects:
  7759 ;;		On entry : 0/0
  7760 ;;		On exit  : 0/0
  7761 ;;		Unchanged: 0/0
  7762 ;; Data sizes:     COMMON   BANK0   BANK1   BANK3   BANK2
  7763 ;;      Params:         3       0       0       0       0
  7764 ;;      Locals:         0       0       0       0       0
  7765 ;;      Temps:          0       0       0       0       0
  7766 ;;      Totals:         3       0       0       0       0
  7767 ;;Total ram usage:        3 bytes
  7768 ;; Hardware stack levels used:    1
  7769 ;; This function calls:
  7770 ;;		Nothing
  7771 ;; This function is called by:
  7772 ;;		_ftoa
  7773 ;;		_pow
  7774 ;;		_exp
  7775 ;;		_ldexp
  7776 ;; This function uses a non-reentrant model
  7777 ;;
  7778                           psect	text768
  7779                           	file	"C:\Program Files (x86)\HI-TECH Software\PICC\9.83\sources\ftneg.c"
  7780                           	line	16
  7781                           	global	__size_of___ftneg
  7782  000C                     	__size_of___ftneg	equ	__end_of___ftneg-___ftneg
  7783                           	
  7784  1738                     ___ftneg:	
  7785                           	opt	stack 3
  7786                           ; Regs used in ___ftneg: [wreg]
  7787                           	line	17
  7788                           	
  7789  1738                     l5569:	
  7790  1738  087A               	movf	(___ftneg@f1+2),w
  7791  1739  0479               	iorwf	(___ftneg@f1+1),w
  7792  173A  0478               	iorwf	(___ftneg@f1),w
  7793  173B  1903               	skipnz
  7794  173C  2F3E               	goto	u3081
  7795  173D  2F3F               	goto	u3080
  7796  173E                     u3081:
  7797  173E  2F42               	goto	l5573
  7798  173F                     u3080:
  7799                           	line	18
  7800                           	
  7801  173F                     l5571:	
  7802  173F  3080               	movlw	080h
  7803  1740  06FA               	xorwf	(___ftneg@f1+2),f
  7804  1741  2F42               	goto	l5573
  7805                           	
  7806  1742                     l3020:	
  7807                           	line	19
  7808                           	
  7809  1742                     l5573:	
  7810  1742  2F43               	goto	l3021
  7811                           	
  7812  1743                     l5575:	
  7813                           	line	20
  7814                           	
  7815  1743                     l3021:	
  7816  1743  0008               	return
  7817                           	opt stack 0
  7818                           GLOBAL	__end_of___ftneg
  7819  1744                     	__end_of___ftneg:
  7820 ;; =============== function ___ftneg ends ============
  7821                           
  7822                           	signat	___ftneg,4219
  7823                           	global	___awdiv
  7824                           psect	text769,local,class=CODE,delta=2
  7825                           global __ptext769
  7826  0B34                     __ptext769:
  7827                           
  7828 ;; *************** function ___awdiv *****************
  7829 ;; Defined at:
  7830 ;;		line 5 in file "C:\Program Files (x86)\HI-TECH Software\PICC\9.83\sources\awdiv.c"
  7831 ;; Parameters:    Size  Location     Type
  7832 ;;  divisor         2    0[COMMON] int 
  7833 ;;  dividend        2    2[COMMON] int 
  7834 ;; Auto vars:     Size  Location     Type
  7835 ;;  quotient        2    7[COMMON] int 
  7836 ;;  sign            1    6[COMMON] unsigned char 
  7837 ;;  counter         1    5[COMMON] unsigned char 
  7838 ;; Return value:  Size  Location     Type
  7839 ;;                  2    0[COMMON] int 
  7840 ;; Registers used:
  7841 ;;		wreg, status,2, status,0
  7842 ;; Tracked objects:
  7843 ;;		On entry : 0/0
  7844 ;;		On exit  : 0/0
  7845 ;;		Unchanged: 0/0
  7846 ;; Data sizes:     COMMON   BANK0   BANK1   BANK3   BANK2
  7847 ;;      Params:         4       0       0       0       0
  7848 ;;      Locals:         4       0       0       0       0
  7849 ;;      Temps:          1       0       0       0       0
  7850 ;;      Totals:         9       0       0       0       0
  7851 ;;Total ram usage:        9 bytes
  7852 ;; Hardware stack levels used:    1
  7853 ;; This function calls:
  7854 ;;		Nothing
  7855 ;; This function is called by:
  7856 ;;		_intToStr
  7857 ;; This function uses a non-reentrant model
  7858 ;;
  7859                           psect	text769
  7860                           	file	"C:\Program Files (x86)\HI-TECH Software\PICC\9.83\sources\awdiv.c"
  7861                           	line	5
  7862                           	global	__size_of___awdiv
  7863  0074                     	__size_of___awdiv	equ	__end_of___awdiv-___awdiv
  7864                           	
  7865  0B34                     ___awdiv:	
  7866                           	opt	stack 5
  7867                           ; Regs used in ___awdiv: [wreg+status,2+status,0]
  7868                           	line	9
  7869                           	
  7870  0B34                     l5529:	
  7871  0B34  01F6               	clrf	(___awdiv@sign)
  7872                           	line	10
  7873  0B35  1FF1               	btfss	(___awdiv@divisor+1),7
  7874  0B36  2B38               	goto	u2981
  7875  0B37  2B39               	goto	u2980
  7876  0B38                     u2981:
  7877  0B38  2B42               	goto	l5533
  7878  0B39                     u2980:
  7879                           	line	11
  7880                           	
  7881  0B39                     l5531:	
  7882  0B39  09F0               	comf	(___awdiv@divisor),f
  7883  0B3A  09F1               	comf	(___awdiv@divisor+1),f
  7884  0B3B  0AF0               	incf	(___awdiv@divisor),f
  7885  0B3C  1903               	skipnz
  7886  0B3D  0AF1               	incf	(___awdiv@divisor+1),f
  7887                           	line	12
  7888  0B3E  01F6               	clrf	(___awdiv@sign)
  7889  0B3F  1403               	bsf	status,0
  7890  0B40  0DF6               	rlf	(___awdiv@sign),f
  7891  0B41  2B42               	goto	l5533
  7892                           	line	13
  7893                           	
  7894  0B42                     l2997:	
  7895                           	line	14
  7896                           	
  7897  0B42                     l5533:	
  7898  0B42  1FF3               	btfss	(___awdiv@dividend+1),7
  7899  0B43  2B45               	goto	u2991
  7900  0B44  2B46               	goto	u2990
  7901  0B45                     u2991:
  7902  0B45  2B50               	goto	l5539
  7903  0B46                     u2990:
  7904                           	line	15
  7905                           	
  7906  0B46                     l5535:	
  7907  0B46  09F2               	comf	(___awdiv@dividend),f
  7908  0B47  09F3               	comf	(___awdiv@dividend+1),f
  7909  0B48  0AF2               	incf	(___awdiv@dividend),f
  7910  0B49  1903               	skipnz
  7911  0B4A  0AF3               	incf	(___awdiv@dividend+1),f
  7912                           	line	16
  7913                           	
  7914  0B4B                     l5537:	
  7915  0B4B  3001               	movlw	(01h)
  7916  0B4C  00F4               	movwf	(??___awdiv+0)+0
  7917  0B4D  0874               	movf	(??___awdiv+0)+0,w
  7918  0B4E  06F6               	xorwf	(___awdiv@sign),f
  7919  0B4F  2B50               	goto	l5539
  7920                           	line	17
  7921                           	
  7922  0B50                     l2998:	
  7923                           	line	18
  7924                           	
  7925  0B50                     l5539:	
  7926  0B50  01F7               	clrf	(___awdiv@quotient)
  7927  0B51  01F8               	clrf	(___awdiv@quotient+1)
  7928                           	line	19
  7929                           	
  7930  0B52                     l5541:	
  7931  0B52  0871               	movf	(___awdiv@divisor+1),w
  7932  0B53  0470               	iorwf	(___awdiv@divisor),w
  7933  0B54  1903               	skipnz
  7934  0B55  2B57               	goto	u3001
  7935  0B56  2B58               	goto	u3000
  7936  0B57                     u3001:
  7937  0B57  2B96               	goto	l5561
  7938  0B58                     u3000:
  7939                           	line	20
  7940                           	
  7941  0B58                     l5543:	
  7942  0B58  01F5               	clrf	(___awdiv@counter)
  7943  0B59  1403               	bsf	status,0
  7944  0B5A  0DF5               	rlf	(___awdiv@counter),f
  7945                           	line	21
  7946  0B5B  2B68               	goto	l5549
  7947                           	
  7948  0B5C                     l3001:	
  7949                           	line	22
  7950                           	
  7951  0B5C                     l5545:	
  7952  0B5C  3001               	movlw	01h
  7953                           	
  7954  0B5D                     u3015:
  7955  0B5D  1003               	clrc
  7956  0B5E  0DF0               	rlf	(___awdiv@divisor),f
  7957  0B5F  0DF1               	rlf	(___awdiv@divisor+1),f
  7958  0B60  3EFF               	addlw	-1
  7959  0B61  1D03               	skipz
  7960  0B62  2B5D               	goto	u3015
  7961                           	line	23
  7962                           	
  7963  0B63                     l5547:	
  7964  0B63  3001               	movlw	(01h)
  7965  0B64  00F4               	movwf	(??___awdiv+0)+0
  7966  0B65  0874               	movf	(??___awdiv+0)+0,w
  7967  0B66  07F5               	addwf	(___awdiv@counter),f
  7968  0B67  2B68               	goto	l5549
  7969                           	line	24
  7970                           	
  7971  0B68                     l3000:	
  7972                           	line	21
  7973                           	
  7974  0B68                     l5549:	
  7975  0B68  1FF1               	btfss	(___awdiv@divisor+1),(15)&7
  7976  0B69  2B6B               	goto	u3021
  7977  0B6A  2B6C               	goto	u3020
  7978  0B6B                     u3021:
  7979  0B6B  2B5C               	goto	l5545
  7980  0B6C                     u3020:
  7981  0B6C  2B6E               	goto	l5551
  7982                           	
  7983  0B6D                     l3002:	
  7984  0B6D  2B6E               	goto	l5551
  7985                           	line	25
  7986                           	
  7987  0B6E                     l3003:	
  7988                           	line	26
  7989                           	
  7990  0B6E                     l5551:	
  7991  0B6E  3001               	movlw	01h
  7992                           	
  7993  0B6F                     u3035:
  7994  0B6F  1003               	clrc
  7995  0B70  0DF7               	rlf	(___awdiv@quotient),f
  7996  0B71  0DF8               	rlf	(___awdiv@quotient+1),f
  7997  0B72  3EFF               	addlw	-1
  7998  0B73  1D03               	skipz
  7999  0B74  2B6F               	goto	u3035
  8000                           	line	27
  8001  0B75  0871               	movf	(___awdiv@divisor+1),w
  8002  0B76  0273               	subwf	(___awdiv@dividend+1),w
  8003  0B77  1D03               	skipz
  8004  0B78  2B7B               	goto	u3045
  8005  0B79  0870               	movf	(___awdiv@divisor),w
  8006  0B7A  0272               	subwf	(___awdiv@dividend),w
  8007  0B7B                     u3045:
  8008  0B7B  1C03               	skipc
  8009  0B7C  2B7E               	goto	u3041
  8010  0B7D  2B7F               	goto	u3040
  8011  0B7E                     u3041:
  8012  0B7E  2B87               	goto	l5557
  8013  0B7F                     u3040:
  8014                           	line	28
  8015                           	
  8016  0B7F                     l5553:	
  8017  0B7F  0870               	movf	(___awdiv@divisor),w
  8018  0B80  02F2               	subwf	(___awdiv@dividend),f
  8019  0B81  0871               	movf	(___awdiv@divisor+1),w
  8020  0B82  1C03               	skipc
  8021  0B83  03F3               	decf	(___awdiv@dividend+1),f
  8022  0B84  02F3               	subwf	(___awdiv@dividend+1),f
  8023                           	line	29
  8024                           	
  8025  0B85                     l5555:	
  8026  0B85  1477               	bsf	(___awdiv@quotient)+(0/8),(0)&7
  8027  0B86  2B87               	goto	l5557
  8028                           	line	30
  8029                           	
  8030  0B87                     l3004:	
  8031                           	line	31
  8032                           	
  8033  0B87                     l5557:	
  8034  0B87  3001               	movlw	01h
  8035                           	
  8036  0B88                     u3055:
  8037  0B88  1003               	clrc
  8038  0B89  0CF1               	rrf	(___awdiv@divisor+1),f
  8039  0B8A  0CF0               	rrf	(___awdiv@divisor),f
  8040  0B8B  3EFF               	addlw	-1
  8041  0B8C  1D03               	skipz
  8042  0B8D  2B88               	goto	u3055
  8043                           	line	32
  8044                           	
  8045  0B8E                     l5559:	
  8046  0B8E  3001               	movlw	low(01h)
  8047  0B8F  02F5               	subwf	(___awdiv@counter),f
  8048  0B90  1D03               	btfss	status,2
  8049  0B91  2B93               	goto	u3061
  8050  0B92  2B94               	goto	u3060
  8051  0B93                     u3061:
  8052  0B93  2B6E               	goto	l5551
  8053  0B94                     u3060:
  8054  0B94  2B96               	goto	l5561
  8055                           	
  8056  0B95                     l3005:	
  8057  0B95  2B96               	goto	l5561
  8058                           	line	33
  8059                           	
  8060  0B96                     l2999:	
  8061                           	line	34
  8062                           	
  8063  0B96                     l5561:	
  8064  0B96  0876               	movf	(___awdiv@sign),w
  8065  0B97  1D03               	skipz
  8066  0B98  2B9A               	goto	u3070
  8067  0B99  2BA0               	goto	l5565
  8068  0B9A                     u3070:
  8069                           	line	35
  8070                           	
  8071  0B9A                     l5563:	
  8072  0B9A  09F7               	comf	(___awdiv@quotient),f
  8073  0B9B  09F8               	comf	(___awdiv@quotient+1),f
  8074  0B9C  0AF7               	incf	(___awdiv@quotient),f
  8075  0B9D  1903               	skipnz
  8076  0B9E  0AF8               	incf	(___awdiv@quotient+1),f
  8077  0B9F  2BA0               	goto	l5565
  8078                           	
  8079  0BA0                     l3006:	
  8080                           	line	36
  8081                           	
  8082  0BA0                     l5565:	
  8083  0BA0  0878               	movf	(___awdiv@quotient+1),w
  8084  0BA1  01F1               	clrf	(?___awdiv+1)
  8085  0BA2  07F1               	addwf	(?___awdiv+1)
  8086  0BA3  0877               	movf	(___awdiv@quotient),w
  8087  0BA4  01F0               	clrf	(?___awdiv)
  8088  0BA5  07F0               	addwf	(?___awdiv)
  8089                           
  8090  0BA6  2BA7               	goto	l3007
  8091                           	
  8092  0BA7                     l5567:	
  8093                           	line	37
  8094                           	
  8095  0BA7                     l3007:	
  8096  0BA7  0008               	return
  8097                           	opt stack 0
  8098                           GLOBAL	__end_of___awdiv
  8099  0BA8                     	__end_of___awdiv:
  8100 ;; =============== function ___awdiv ends ============
  8101                           
  8102                           	signat	___awdiv,8314
  8103                           	global	___fttol
  8104                           psect	text770,local,class=CODE,delta=2
  8105                           global __ptext770
  8106  0D2A                     __ptext770:
  8107                           
  8108 ;; *************** function ___fttol *****************
  8109 ;; Defined at:
  8110 ;;		line 45 in file "C:\Program Files (x86)\HI-TECH Software\PICC\9.83\sources\fttol.c"
  8111 ;; Parameters:    Size  Location     Type
  8112 ;;  f1              3    0[COMMON] float 
  8113 ;; Auto vars:     Size  Location     Type
  8114 ;;  lval            4    9[COMMON] unsigned long 
  8115 ;;  exp1            1   13[COMMON] unsigned char 
  8116 ;;  sign1           1    8[COMMON] unsigned char 
  8117 ;; Return value:  Size  Location     Type
  8118 ;;                  4    0[COMMON] long 
  8119 ;; Registers used:
  8120 ;;		wreg, status,2, status,0
  8121 ;; Tracked objects:
  8122 ;;		On entry : 0/0
  8123 ;;		On exit  : 0/0
  8124 ;;		Unchanged: 0/0
  8125 ;; Data sizes:     COMMON   BANK0   BANK1   BANK3   BANK2
  8126 ;;      Params:         4       0       0       0       0
  8127 ;;      Locals:         6       0       0       0       0
  8128 ;;      Temps:          4       0       0       0       0
  8129 ;;      Totals:        14       0       0       0       0
  8130 ;;Total ram usage:       14 bytes
  8131 ;; Hardware stack levels used:    1
  8132 ;; This function calls:
  8133 ;;		Nothing
  8134 ;; This function is called by:
  8135 ;;		_ftoa
  8136 ;;		_pow
  8137 ;;		_exp
  8138 ;;		_floor
  8139 ;; This function uses a non-reentrant model
  8140 ;;
  8141                           psect	text770
  8142                           	file	"C:\Program Files (x86)\HI-TECH Software\PICC\9.83\sources\fttol.c"
  8143                           	line	45
  8144                           	global	__size_of___fttol
  8145  00A4                     	__size_of___fttol	equ	__end_of___fttol-___fttol
  8146                           	
  8147  0D2A                     ___fttol:	
  8148                           	opt	stack 4
  8149                           ; Regs used in ___fttol: [wreg+status,2+status,0]
  8150                           	line	49
  8151                           	
  8152  0D2A                     l5477:	
  8153  0D2A  0870               	movf	(___fttol@f1),w
  8154  0D2B  00F4               	movwf	((??___fttol+0)+0)
  8155  0D2C  0871               	movf	(___fttol@f1+1),w
  8156  0D2D  00F5               	movwf	((??___fttol+0)+0+1)
  8157  0D2E  0872               	movf	(___fttol@f1+2),w
  8158  0D2F  00F6               	movwf	((??___fttol+0)+0+2)
  8159  0D30  1003               	clrc
  8160  0D31  0D75               	rlf	(??___fttol+0)+1,w
  8161  0D32  0D76               	rlf	(??___fttol+0)+2,w
  8162  0D33  00F7               	movwf	(??___fttol+3)+0
  8163  0D34  0877               	movf	(??___fttol+3)+0,w
  8164  0D35  00FD               	movwf	(___fttol@exp1)
  8165  0D36  08FD               	movf	((___fttol@exp1)),f
  8166  0D37  1D03               	skipz
  8167  0D38  2D3A               	goto	u2871
  8168  0D39  2D3B               	goto	u2870
  8169  0D3A                     u2871:
  8170  0D3A  2D45               	goto	l5483
  8171  0D3B                     u2870:
  8172                           	line	50
  8173                           	
  8174  0D3B                     l5479:	
  8175  0D3B  3000               	movlw	0
  8176  0D3C  00F3               	movwf	(?___fttol+3)
  8177  0D3D  3000               	movlw	0
  8178  0D3E  00F2               	movwf	(?___fttol+2)
  8179  0D3F  3000               	movlw	0
  8180  0D40  00F1               	movwf	(?___fttol+1)
  8181  0D41  3000               	movlw	0
  8182  0D42  00F0               	movwf	(?___fttol)
  8183                           
  8184  0D43  2DCD               	goto	l2967
  8185                           	
  8186  0D44                     l5481:	
  8187  0D44  2DCD               	goto	l2967
  8188                           	
  8189  0D45                     l2966:	
  8190                           	line	51
  8191                           	
  8192  0D45                     l5483:	
  8193  0D45  0870               	movf	(___fttol@f1),w
  8194  0D46  00F4               	movwf	((??___fttol+0)+0)
  8195  0D47  0871               	movf	(___fttol@f1+1),w
  8196  0D48  00F5               	movwf	((??___fttol+0)+0+1)
  8197  0D49  0872               	movf	(___fttol@f1+2),w
  8198  0D4A  00F6               	movwf	((??___fttol+0)+0+2)
  8199  0D4B  3017               	movlw	017h
  8200  0D4C                     u2885:
  8201  0D4C  1003               	clrc
  8202  0D4D  0CF6               	rrf	(??___fttol+0)+2,f
  8203  0D4E  0CF5               	rrf	(??___fttol+0)+1,f
  8204  0D4F  0CF4               	rrf	(??___fttol+0)+0,f
  8205  0D50                     u2880:
  8206  0D50  3EFF               	addlw	-1
  8207  0D51  1D03               	skipz
  8208  0D52  2D4C               	goto	u2885
  8209  0D53  0874               	movf	0+(??___fttol+0)+0,w
  8210  0D54  00F7               	movwf	(??___fttol+3)+0
  8211  0D55  0877               	movf	(??___fttol+3)+0,w
  8212  0D56  00F8               	movwf	(___fttol@sign1)
  8213                           	line	52
  8214                           	
  8215  0D57                     l5485:	
  8216  0D57  17F1               	bsf	(___fttol@f1)+(15/8),(15)&7
  8217                           	line	53
  8218                           	
  8219  0D58                     l5487:	
  8220  0D58  30FF               	movlw	0FFh
  8221  0D59  05F0               	andwf	(___fttol@f1),f
  8222  0D5A  30FF               	movlw	0FFh
  8223  0D5B  05F1               	andwf	(___fttol@f1+1),f
  8224  0D5C  3000               	movlw	0
  8225  0D5D  05F2               	andwf	(___fttol@f1+2),f
  8226                           	line	54
  8227                           	
  8228  0D5E                     l5489:	
  8229  0D5E  0870               	movf	(___fttol@f1),w
  8230  0D5F  00F9               	movwf	(___fttol@lval)
  8231  0D60  0871               	movf	(___fttol@f1+1),w
  8232  0D61  00FA               	movwf	((___fttol@lval))+1
  8233  0D62  0872               	movf	(___fttol@f1+2),w
  8234  0D63  00FB               	movwf	((___fttol@lval))+2
  8235  0D64  01FC               	clrf	((___fttol@lval))+3
  8236                           	line	55
  8237                           	
  8238  0D65                     l5491:	
  8239  0D65  308E               	movlw	low(08Eh)
  8240  0D66  02FD               	subwf	(___fttol@exp1),f
  8241                           	line	56
  8242                           	
  8243  0D67                     l5493:	
  8244  0D67  1FFD               	btfss	(___fttol@exp1),7
  8245  0D68  2D6A               	goto	u2891
  8246  0D69  2D6B               	goto	u2890
  8247  0D6A                     u2891:
  8248  0D6A  2D90               	goto	l5503
  8249  0D6B                     u2890:
  8250                           	line	57
  8251                           	
  8252  0D6B                     l5495:	
  8253  0D6B  087D               	movf	(___fttol@exp1),w
  8254  0D6C  3A80               	xorlw	80h
  8255  0D6D  3E8F               	addlw	-((-15)^80h)
  8256  0D6E  1803               	skipnc
  8257  0D6F  2D71               	goto	u2901
  8258  0D70  2D72               	goto	u2900
  8259  0D71                     u2901:
  8260  0D71  2D7D               	goto	l5501
  8261  0D72                     u2900:
  8262                           	line	58
  8263                           	
  8264  0D72                     l5497:	
  8265  0D72  3000               	movlw	0
  8266  0D73  00F3               	movwf	(?___fttol+3)
  8267  0D74  3000               	movlw	0
  8268  0D75  00F2               	movwf	(?___fttol+2)
  8269  0D76  3000               	movlw	0
  8270  0D77  00F1               	movwf	(?___fttol+1)
  8271  0D78  3000               	movlw	0
  8272  0D79  00F0               	movwf	(?___fttol)
  8273                           
  8274  0D7A  2DCD               	goto	l2967
  8275                           	
  8276  0D7B                     l5499:	
  8277  0D7B  2DCD               	goto	l2967
  8278                           	
  8279  0D7C                     l2969:	
  8280  0D7C  2D7D               	goto	l5501
  8281                           	line	59
  8282                           	
  8283  0D7D                     l2970:	
  8284                           	line	60
  8285                           	
  8286  0D7D                     l5501:	
  8287  0D7D  3001               	movlw	01h
  8288  0D7E                     u2915:
  8289  0D7E  1003               	clrc
  8290  0D7F  0CFC               	rrf	(___fttol@lval+3),f
  8291  0D80  0CFB               	rrf	(___fttol@lval+2),f
  8292  0D81  0CFA               	rrf	(___fttol@lval+1),f
  8293  0D82  0CF9               	rrf	(___fttol@lval),f
  8294  0D83  3EFF               	addlw	-1
  8295  0D84  1D03               	skipz
  8296  0D85  2D7E               	goto	u2915
  8297                           
  8298                           	line	61
  8299  0D86  3001               	movlw	(01h)
  8300  0D87  00F4               	movwf	(??___fttol+0)+0
  8301  0D88  0874               	movf	(??___fttol+0)+0,w
  8302  0D89  07FD               	addwf	(___fttol@exp1),f
  8303  0D8A  1D03               	btfss	status,2
  8304  0D8B  2D8D               	goto	u2921
  8305  0D8C  2D8E               	goto	u2920
  8306  0D8D                     u2921:
  8307  0D8D  2D7D               	goto	l5501
  8308  0D8E                     u2920:
  8309  0D8E  2DB4               	goto	l5513
  8310                           	
  8311  0D8F                     l2971:	
  8312                           	line	62
  8313  0D8F  2DB4               	goto	l5513
  8314                           	
  8315  0D90                     l2968:	
  8316                           	line	63
  8317                           	
  8318  0D90                     l5503:	
  8319  0D90  3018               	movlw	(018h)
  8320  0D91  027D               	subwf	(___fttol@exp1),w
  8321  0D92  1C03               	skipc
  8322  0D93  2D95               	goto	u2931
  8323  0D94  2D96               	goto	u2930
  8324  0D95                     u2931:
  8325  0D95  2DAD               	goto	l5511
  8326  0D96                     u2930:
  8327                           	line	64
  8328                           	
  8329  0D96                     l5505:	
  8330  0D96  3000               	movlw	0
  8331  0D97  00F3               	movwf	(?___fttol+3)
  8332  0D98  3000               	movlw	0
  8333  0D99  00F2               	movwf	(?___fttol+2)
  8334  0D9A  3000               	movlw	0
  8335  0D9B  00F1               	movwf	(?___fttol+1)
  8336  0D9C  3000               	movlw	0
  8337  0D9D  00F0               	movwf	(?___fttol)
  8338                           
  8339  0D9E  2DCD               	goto	l2967
  8340                           	
  8341  0D9F                     l5507:	
  8342  0D9F  2DCD               	goto	l2967
  8343                           	
  8344  0DA0                     l2973:	
  8345                           	line	65
  8346  0DA0  2DAD               	goto	l5511
  8347                           	
  8348  0DA1                     l2975:	
  8349                           	line	66
  8350                           	
  8351  0DA1                     l5509:	
  8352  0DA1  3001               	movlw	01h
  8353  0DA2  00F4               	movwf	(??___fttol+0)+0
  8354  0DA3                     u2945:
  8355  0DA3  1003               	clrc
  8356  0DA4  0DF9               	rlf	(___fttol@lval),f
  8357  0DA5  0DFA               	rlf	(___fttol@lval+1),f
  8358  0DA6  0DFB               	rlf	(___fttol@lval+2),f
  8359  0DA7  0DFC               	rlf	(___fttol@lval+3),f
  8360  0DA8  0BF4               	decfsz	(??___fttol+0)+0
  8361  0DA9  2DA3               	goto	u2945
  8362                           	line	67
  8363  0DAA  3001               	movlw	low(01h)
  8364  0DAB  02FD               	subwf	(___fttol@exp1),f
  8365  0DAC  2DAD               	goto	l5511
  8366                           	line	68
  8367                           	
  8368  0DAD                     l2974:	
  8369                           	line	65
  8370                           	
  8371  0DAD                     l5511:	
  8372  0DAD  08FD               	movf	(___fttol@exp1),f
  8373  0DAE  1D03               	skipz
  8374  0DAF  2DB1               	goto	u2951
  8375  0DB0  2DB2               	goto	u2950
  8376  0DB1                     u2951:
  8377  0DB1  2DA1               	goto	l5509
  8378  0DB2                     u2950:
  8379  0DB2  2DB4               	goto	l5513
  8380                           	
  8381  0DB3                     l2976:	
  8382  0DB3  2DB4               	goto	l5513
  8383                           	line	69
  8384                           	
  8385  0DB4                     l2972:	
  8386                           	line	70
  8387                           	
  8388  0DB4                     l5513:	
  8389  0DB4  0878               	movf	(___fttol@sign1),w
  8390  0DB5  1D03               	skipz
  8391  0DB6  2DB8               	goto	u2960
  8392  0DB7  2DC4               	goto	l5517
  8393  0DB8                     u2960:
  8394                           	line	71
  8395                           	
  8396  0DB8                     l5515:	
  8397  0DB8  09F9               	comf	(___fttol@lval),f
  8398  0DB9  09FA               	comf	(___fttol@lval+1),f
  8399  0DBA  09FB               	comf	(___fttol@lval+2),f
  8400  0DBB  09FC               	comf	(___fttol@lval+3),f
  8401  0DBC  0AF9               	incf	(___fttol@lval),f
  8402  0DBD  1903               	skipnz
  8403  0DBE  0AFA               	incf	(___fttol@lval+1),f
  8404  0DBF  1903               	skipnz
  8405  0DC0  0AFB               	incf	(___fttol@lval+2),f
  8406  0DC1  1903               	skipnz
  8407  0DC2  0AFC               	incf	(___fttol@lval+3),f
  8408  0DC3  2DC4               	goto	l5517
  8409                           	
  8410  0DC4                     l2977:	
  8411                           	line	72
  8412                           	
  8413  0DC4                     l5517:	
  8414  0DC4  087C               	movf	(___fttol@lval+3),w
  8415  0DC5  00F3               	movwf	(?___fttol+3)
  8416  0DC6  087B               	movf	(___fttol@lval+2),w
  8417  0DC7  00F2               	movwf	(?___fttol+2)
  8418  0DC8  087A               	movf	(___fttol@lval+1),w
  8419  0DC9  00F1               	movwf	(?___fttol+1)
  8420  0DCA  0879               	movf	(___fttol@lval),w
  8421  0DCB  00F0               	movwf	(?___fttol)
  8422                           
  8423  0DCC  2DCD               	goto	l2967
  8424                           	
  8425  0DCD                     l5519:	
  8426                           	line	73
  8427                           	
  8428  0DCD                     l2967:	
  8429  0DCD  0008               	return
  8430                           	opt stack 0
  8431                           GLOBAL	__end_of___fttol
  8432  0DCE                     	__end_of___fttol:
  8433 ;; =============== function ___fttol ends ============
  8434                           
  8435                           	signat	___fttol,4220
  8436                           	global	___ftpack
  8437                           psect	text771,local,class=CODE,delta=2
  8438                           global __ptext771
  8439  0BA8                     __ptext771:
  8440                           
  8441 ;; *************** function ___ftpack *****************
  8442 ;; Defined at:
  8443 ;;		line 63 in file "C:\Program Files (x86)\HI-TECH Software\PICC\9.83\sources\float.c"
  8444 ;; Parameters:    Size  Location     Type
  8445 ;;  arg             3    0[COMMON] unsigned um
  8446 ;;  exp             1    3[COMMON] unsigned char 
  8447 ;;  sign            1    4[COMMON] unsigned char 
  8448 ;; Auto vars:     Size  Location     Type
  8449 ;;		None
  8450 ;; Return value:  Size  Location     Type
  8451 ;;                  3    0[COMMON] float 
  8452 ;; Registers used:
  8453 ;;		wreg, status,2, status,0
  8454 ;; Tracked objects:
  8455 ;;		On entry : 0/0
  8456 ;;		On exit  : 0/0
  8457 ;;		Unchanged: 0/0
  8458 ;; Data sizes:     COMMON   BANK0   BANK1   BANK3   BANK2
  8459 ;;      Params:         5       0       0       0       0
  8460 ;;      Locals:         0       0       0       0       0
  8461 ;;      Temps:          3       0       0       0       0
  8462 ;;      Totals:         8       0       0       0       0
  8463 ;;Total ram usage:        8 bytes
  8464 ;; Hardware stack levels used:    1
  8465 ;; This function calls:
  8466 ;;		Nothing
  8467 ;; This function is called by:
  8468 ;;		___ftadd
  8469 ;;		___ftdiv
  8470 ;;		___ftmul
  8471 ;;		___lbtoft
  8472 ;;		___awtoft
  8473 ;;		___altoft
  8474 ;;		___lltoft
  8475 ;;		___abtoft
  8476 ;;		___lwtoft
  8477 ;;		___attoft
  8478 ;;		___lttoft
  8479 ;; This function uses a non-reentrant model
  8480 ;;
  8481                           psect	text771
  8482                           	file	"C:\Program Files (x86)\HI-TECH Software\PICC\9.83\sources\float.c"
  8483                           	line	63
  8484                           	global	__size_of___ftpack
  8485  007B                     	__size_of___ftpack	equ	__end_of___ftpack-___ftpack
  8486                           	
  8487  0BA8                     ___ftpack:	
  8488                           	opt	stack 5
  8489                           ; Regs used in ___ftpack: [wreg+status,2+status,0]
  8490                           	line	64
  8491                           	
  8492  0BA8                     l5447:	
  8493  0BA8  0873               	movf	(___ftpack@exp),w
  8494  0BA9  1D03               	skipz
  8495  0BAA  2BAC               	goto	u2760
  8496  0BAB  2BB4               	goto	l5451
  8497  0BAC                     u2760:
  8498                           	
  8499  0BAC                     l5449:	
  8500  0BAC  0872               	movf	(___ftpack@arg+2),w
  8501  0BAD  0471               	iorwf	(___ftpack@arg+1),w
  8502  0BAE  0470               	iorwf	(___ftpack@arg),w
  8503  0BAF  1D03               	skipz
  8504  0BB0  2BB2               	goto	u2771
  8505  0BB1  2BB3               	goto	u2770
  8506  0BB2                     u2771:
  8507  0BB2  2BCA               	goto	l5457
  8508  0BB3                     u2770:
  8509  0BB3  2BB4               	goto	l5451
  8510                           	
  8511  0BB4                     l3267:	
  8512                           	line	65
  8513                           	
  8514  0BB4                     l5451:	
  8515  0BB4  3000               	movlw	0x0
  8516  0BB5  00F0               	movwf	(?___ftpack)
  8517  0BB6  3000               	movlw	0x0
  8518  0BB7  00F1               	movwf	(?___ftpack+1)
  8519  0BB8  3000               	movlw	0x0
  8520  0BB9  00F2               	movwf	(?___ftpack+2)
  8521  0BBA  2C22               	goto	l3268
  8522                           	
  8523  0BBB                     l5453:	
  8524  0BBB  2C22               	goto	l3268
  8525                           	
  8526  0BBC                     l3265:	
  8527                           	line	66
  8528  0BBC  2BCA               	goto	l5457
  8529                           	
  8530  0BBD                     l3270:	
  8531                           	line	67
  8532                           	
  8533  0BBD                     l5455:	
  8534  0BBD  3001               	movlw	(01h)
  8535  0BBE  00F5               	movwf	(??___ftpack+0)+0
  8536  0BBF  0875               	movf	(??___ftpack+0)+0,w
  8537  0BC0  07F3               	addwf	(___ftpack@exp),f
  8538                           	line	68
  8539  0BC1  3001               	movlw	01h
  8540  0BC2                     u2785:
  8541  0BC2  1003               	clrc
  8542  0BC3  0CF2               	rrf	(___ftpack@arg+2),f
  8543  0BC4  0CF1               	rrf	(___ftpack@arg+1),f
  8544  0BC5  0CF0               	rrf	(___ftpack@arg),f
  8545  0BC6  3EFF               	addlw	-1
  8546  0BC7  1D03               	skipz
  8547  0BC8  2BC2               	goto	u2785
  8548                           
  8549  0BC9  2BCA               	goto	l5457
  8550                           	line	69
  8551                           	
  8552  0BCA                     l3269:	
  8553                           	line	66
  8554                           	
  8555  0BCA                     l5457:	
  8556  0BCA  30FE               	movlw	low highword(0FE0000h)
  8557  0BCB  0572               	andwf	(___ftpack@arg+2),w
  8558  0BCC  1D03               	btfss	status,2
  8559  0BCD  2BCF               	goto	u2791
  8560  0BCE  2BD0               	goto	u2790
  8561  0BCF                     u2791:
  8562  0BCF  2BBD               	goto	l5455
  8563  0BD0                     u2790:
  8564  0BD0  2BE8               	goto	l3272
  8565                           	
  8566  0BD1                     l3271:	
  8567                           	line	70
  8568  0BD1  2BE8               	goto	l3272
  8569                           	
  8570  0BD2                     l3273:	
  8571                           	line	71
  8572                           	
  8573  0BD2                     l5459:	
  8574  0BD2  3001               	movlw	(01h)
  8575  0BD3  00F5               	movwf	(??___ftpack+0)+0
  8576  0BD4  0875               	movf	(??___ftpack+0)+0,w
  8577  0BD5  07F3               	addwf	(___ftpack@exp),f
  8578                           	line	72
  8579                           	
  8580  0BD6                     l5461:	
  8581  0BD6  3001               	movlw	01h
  8582  0BD7  07F0               	addwf	(___ftpack@arg),f
  8583  0BD8  3000               	movlw	0
  8584  0BD9  1803               	skipnc
  8585  0BDA  3001               movlw 1
  8586  0BDB  07F1               	addwf	(___ftpack@arg+1),f
  8587  0BDC  3000               	movlw	0
  8588  0BDD  1803               	skipnc
  8589  0BDE  3001               movlw 1
  8590  0BDF  07F2               	addwf	(___ftpack@arg+2),f
  8591                           	line	73
  8592                           	
  8593  0BE0                     l5463:	
  8594  0BE0  3001               	movlw	01h
  8595  0BE1                     u2805:
  8596  0BE1  1003               	clrc
  8597  0BE2  0CF2               	rrf	(___ftpack@arg+2),f
  8598  0BE3  0CF1               	rrf	(___ftpack@arg+1),f
  8599  0BE4  0CF0               	rrf	(___ftpack@arg),f
  8600  0BE5  3EFF               	addlw	-1
  8601  0BE6  1D03               	skipz
  8602  0BE7  2BE1               	goto	u2805
  8603                           
  8604                           	line	74
  8605                           	
  8606  0BE8                     l3272:	
  8607                           	line	70
  8608  0BE8  30FF               	movlw	low highword(0FF0000h)
  8609  0BE9  0572               	andwf	(___ftpack@arg+2),w
  8610  0BEA  1D03               	btfss	status,2
  8611  0BEB  2BED               	goto	u2811
  8612  0BEC  2BEE               	goto	u2810
  8613  0BED                     u2811:
  8614  0BED  2BD2               	goto	l5459
  8615  0BEE                     u2810:
  8616  0BEE  2BFB               	goto	l5467
  8617                           	
  8618  0BEF                     l3274:	
  8619                           	line	75
  8620  0BEF  2BFB               	goto	l5467
  8621                           	
  8622  0BF0                     l3276:	
  8623                           	line	76
  8624                           	
  8625  0BF0                     l5465:	
  8626  0BF0  3001               	movlw	low(01h)
  8627  0BF1  02F3               	subwf	(___ftpack@exp),f
  8628                           	line	77
  8629  0BF2  3001               	movlw	01h
  8630  0BF3                     u2825:
  8631  0BF3  1003               	clrc
  8632  0BF4  0DF0               	rlf	(___ftpack@arg),f
  8633  0BF5  0DF1               	rlf	(___ftpack@arg+1),f
  8634  0BF6  0DF2               	rlf	(___ftpack@arg+2),f
  8635  0BF7  3EFF               	addlw	-1
  8636  0BF8  1D03               	skipz
  8637  0BF9  2BF3               	goto	u2825
  8638  0BFA  2BFB               	goto	l5467
  8639                           	line	78
  8640                           	
  8641  0BFB                     l3275:	
  8642                           	line	75
  8643                           	
  8644  0BFB                     l5467:	
  8645  0BFB  1FF1               	btfss	(___ftpack@arg+1),(15)&7
  8646  0BFC  2BFE               	goto	u2831
  8647  0BFD  2BFF               	goto	u2830
  8648  0BFE                     u2831:
  8649  0BFE  2BF0               	goto	l5465
  8650  0BFF                     u2830:
  8651                           	
  8652  0BFF                     l3277:	
  8653                           	line	79
  8654  0BFF  1873               	btfsc	(___ftpack@exp),(0)&7
  8655  0C00  2C02               	goto	u2841
  8656  0C01  2C03               	goto	u2840
  8657  0C02                     u2841:
  8658  0C02  2C09               	goto	l3278
  8659  0C03                     u2840:
  8660                           	line	80
  8661                           	
  8662  0C03                     l5469:	
  8663  0C03  30FF               	movlw	0FFh
  8664  0C04  05F0               	andwf	(___ftpack@arg),f
  8665  0C05  307F               	movlw	07Fh
  8666  0C06  05F1               	andwf	(___ftpack@arg+1),f
  8667  0C07  30FF               	movlw	0FFh
  8668  0C08  05F2               	andwf	(___ftpack@arg+2),f
  8669                           	
  8670  0C09                     l3278:	
  8671                           	line	81
  8672  0C09  1003               	clrc
  8673  0C0A  0CF3               	rrf	(___ftpack@exp),f
  8674                           
  8675                           	line	82
  8676                           	
  8677  0C0B                     l5471:	
  8678  0C0B  0873               	movf	(___ftpack@exp),w
  8679  0C0C  00F5               	movwf	((??___ftpack+0)+0)
  8680  0C0D  01F6               	clrf	((??___ftpack+0)+0+1)
  8681  0C0E  01F7               	clrf	((??___ftpack+0)+0+2)
  8682  0C0F  3010               	movlw	010h
  8683  0C10                     u2855:
  8684  0C10  1003               	clrc
  8685  0C11  0DF5               	rlf	(??___ftpack+0)+0,f
  8686  0C12  0DF6               	rlf	(??___ftpack+0)+1,f
  8687  0C13  0DF7               	rlf	(??___ftpack+0)+2,f
  8688  0C14                     u2850:
  8689  0C14  3EFF               	addlw	-1
  8690  0C15  1D03               	skipz
  8691  0C16  2C10               	goto	u2855
  8692  0C17  0875               	movf	0+(??___ftpack+0)+0,w
  8693  0C18  04F0               	iorwf	(___ftpack@arg),f
  8694  0C19  0876               	movf	1+(??___ftpack+0)+0,w
  8695  0C1A  04F1               	iorwf	(___ftpack@arg+1),f
  8696  0C1B  0877               	movf	2+(??___ftpack+0)+0,w
  8697  0C1C  04F2               	iorwf	(___ftpack@arg+2),f
  8698                           	line	83
  8699                           	
  8700  0C1D                     l5473:	
  8701  0C1D  0874               	movf	(___ftpack@sign),w
  8702  0C1E  1D03               	skipz
  8703  0C1F  2C21               	goto	u2860
  8704  0C20  2C22               	goto	l3279
  8705  0C21                     u2860:
  8706                           	line	84
  8707                           	
  8708  0C21                     l5475:	
  8709  0C21  17F2               	bsf	(___ftpack@arg)+(23/8),(23)&7
  8710                           	
  8711  0C22                     l3279:	
  8712                           	line	85
  8713                           	line	86
  8714                           	
  8715  0C22                     l3268:	
  8716  0C22  0008               	return
  8717                           	opt stack 0
  8718                           GLOBAL	__end_of___ftpack
  8719  0C23                     	__end_of___ftpack:
  8720 ;; =============== function ___ftpack ends ============
  8721                           
  8722                           	signat	___ftpack,12411
  8723                           	global	___bmul
  8724                           psect	text772,local,class=CODE,delta=2
  8725                           global __ptext772
  8726  1769                     __ptext772:
  8727                           
  8728 ;; *************** function ___bmul *****************
  8729 ;; Defined at:
  8730 ;;		line 3 in file "C:\Program Files (x86)\HI-TECH Software\PICC\9.83\sources\bmul.c"
  8731 ;; Parameters:    Size  Location     Type
  8732 ;;  multiplier      1    wreg     unsigned char 
  8733 ;;  multiplicand    1    0[COMMON] unsigned char 
  8734 ;; Auto vars:     Size  Location     Type
  8735 ;;  multiplier      1    3[COMMON] unsigned char 
  8736 ;;  product         1    2[COMMON] unsigned char 
  8737 ;; Return value:  Size  Location     Type
  8738 ;;                  1    wreg      unsigned char 
  8739 ;; Registers used:
  8740 ;;		wreg, status,2, status,0
  8741 ;; Tracked objects:
  8742 ;;		On entry : 0/0
  8743 ;;		On exit  : 0/0
  8744 ;;		Unchanged: 0/0
  8745 ;; Data sizes:     COMMON   BANK0   BANK1   BANK3   BANK2
  8746 ;;      Params:         1       0       0       0       0
  8747 ;;      Locals:         2       0       0       0       0
  8748 ;;      Temps:          1       0       0       0       0
  8749 ;;      Totals:         4       0       0       0       0
  8750 ;;Total ram usage:        4 bytes
  8751 ;; Hardware stack levels used:    1
  8752 ;; This function calls:
  8753 ;;		Nothing
  8754 ;; This function is called by:
  8755 ;;		_eval_poly
  8756 ;; This function uses a non-reentrant model
  8757 ;;
  8758                           psect	text772
  8759                           	file	"C:\Program Files (x86)\HI-TECH Software\PICC\9.83\sources\bmul.c"
  8760                           	line	3
  8761                           	global	__size_of___bmul
  8762  0018                     	__size_of___bmul	equ	__end_of___bmul-___bmul
  8763                           	
  8764  1769                     ___bmul:	
  8765                           	opt	stack 3
  8766                           ; Regs used in ___bmul: [wreg+status,2+status,0]
  8767                           ;___bmul@multiplier stored from wreg
  8768  1769  00F3               	movwf	(___bmul@multiplier)
  8769                           	line	4
  8770                           	
  8771  176A                     l5433:	
  8772  176A  01F2               	clrf	(___bmul@product)
  8773                           	line	6
  8774                           	
  8775  176B                     l2851:	
  8776                           	line	7
  8777  176B  1C73               	btfss	(___bmul@multiplier),(0)&7
  8778  176C  2F6E               	goto	u2741
  8779  176D  2F6F               	goto	u2740
  8780  176E                     u2741:
  8781  176E  2F74               	goto	l5437
  8782  176F                     u2740:
  8783                           	line	8
  8784                           	
  8785  176F                     l5435:	
  8786  176F  0870               	movf	(___bmul@multiplicand),w
  8787  1770  00F1               	movwf	(??___bmul+0)+0
  8788  1771  0871               	movf	(??___bmul+0)+0,w
  8789  1772  07F2               	addwf	(___bmul@product),f
  8790  1773  2F74               	goto	l5437
  8791                           	
  8792  1774                     l2852:	
  8793                           	line	9
  8794                           	
  8795  1774                     l5437:	
  8796  1774  1003               	clrc
  8797  1775  0DF0               	rlf	(___bmul@multiplicand),f
  8798                           
  8799                           	line	10
  8800                           	
  8801  1776                     l5439:	
  8802  1776  1003               	clrc
  8803  1777  0CF3               	rrf	(___bmul@multiplier),f
  8804                           
  8805                           	line	11
  8806                           	
  8807  1778                     l5441:	
  8808  1778  08F3               	movf	(___bmul@multiplier),f
  8809  1779  1D03               	skipz
  8810  177A  2F7C               	goto	u2751
  8811  177B  2F7D               	goto	u2750
  8812  177C                     u2751:
  8813  177C  2F6B               	goto	l2851
  8814  177D                     u2750:
  8815  177D  2F7E               	goto	l5443
  8816                           	
  8817  177E                     l2853:	
  8818                           	line	12
  8819                           	
  8820  177E                     l5443:	
  8821  177E  0872               	movf	(___bmul@product),w
  8822  177F  2F80               	goto	l2854
  8823                           	
  8824  1780                     l5445:	
  8825                           	line	13
  8826                           	
  8827  1780                     l2854:	
  8828  1780  0008               	return
  8829                           	opt stack 0
  8830                           GLOBAL	__end_of___bmul
  8831  1781                     	__end_of___bmul:
  8832 ;; =============== function ___bmul ends ============
  8833                           
  8834                           	signat	___bmul,8313
  8835                           	global	_reverse
  8836                           psect	text773,local,class=CODE,delta=2
  8837                           global __ptext773
  8838  096D                     __ptext773:
  8839                           
  8840 ;; *************** function _reverse *****************
  8841 ;; Defined at:
  8842 ;;		line 9 in file "C:\Users\abdal\Desktop\University\Year 4\Second Semester\Real Time Lab\Experiments and Codes\exp3\Se
       rial-Requirements\Codes\string.c"
  8843 ;; Parameters:    Size  Location     Type
  8844 ;;  str             1    wreg     PTR unsigned char 
  8845 ;;		 -> str(10), 
  8846 ;;  len             2    0[COMMON] int 
  8847 ;; Auto vars:     Size  Location     Type
  8848 ;;  str             1   11[COMMON] PTR unsigned char 
  8849 ;;		 -> str(10), 
  8850 ;;  j               2    9[COMMON] int 
  8851 ;;  i               2    7[COMMON] int 
  8852 ;;  temp            2    5[COMMON] int 
  8853 ;; Return value:  Size  Location     Type
  8854 ;;		None               void
  8855 ;; Registers used:
  8856 ;;		wreg, fsr0l, fsr0h, status,2, status,0
  8857 ;; Tracked objects:
  8858 ;;		On entry : 0/0
  8859 ;;		On exit  : 0/0
  8860 ;;		Unchanged: 0/0
  8861 ;; Data sizes:     COMMON   BANK0   BANK1   BANK3   BANK2
  8862 ;;      Params:         2       0       0       0       0
  8863 ;;      Locals:         7       0       0       0       0
  8864 ;;      Temps:          3       0       0       0       0
  8865 ;;      Totals:        12       0       0       0       0
  8866 ;;Total ram usage:       12 bytes
  8867 ;; Hardware stack levels used:    1
  8868 ;; This function calls:
  8869 ;;		Nothing
  8870 ;; This function is called by:
  8871 ;;		_intToStr
  8872 ;; This function uses a non-reentrant model
  8873 ;;
  8874                           psect	text773
  8875                           	file	"C:\Users\abdal\Desktop\University\Year 4\Second Semester\Real Time Lab\Experiment
                                 s and Codes\exp3\Serial-Requirements\Codes\string.c"
  8876                           	line	9
  8877                           	global	__size_of_reverse
  8878  004D                     	__size_of_reverse	equ	__end_of_reverse-_reverse
  8879                           	
  8880  096D                     _reverse:	
  8881                           	opt	stack 5
  8882                           ; Regs used in _reverse: [wreg-fsr0h+status,2+status,0]
  8883                           ;reverse@str stored from wreg
  8884  096D  00FB               	movwf	(reverse@str)
  8885                           	line	10
  8886                           	
  8887  096E                     l5421:	
  8888                           ;string.c: 10: int i=0, j=len-1, temp;
  8889  096E  01F7               	clrf	(reverse@i)
  8890  096F  01F8               	clrf	(reverse@i+1)
  8891                           	
  8892  0970                     l5423:	
  8893  0970  0870               	movf	(reverse@len),w
  8894  0971  3EFF               	addlw	low(-1)
  8895  0972  00F9               	movwf	(reverse@j)
  8896  0973  0871               	movf	(reverse@len+1),w
  8897  0974  1803               	skipnc
  8898  0975  3E01               	addlw	1
  8899  0976  3EFF               	addlw	high(-1)
  8900  0977  00FA               	movwf	1+(reverse@j)
  8901                           	line	11
  8902                           ;string.c: 11: while (i<j)
  8903  0978  29AA               	goto	l5431
  8904                           	
  8905  0979                     l2142:	
  8906                           	line	13
  8907                           	
  8908  0979                     l5425:	
  8909                           ;string.c: 12: {
  8910                           ;string.c: 13: temp = str[i];
  8911  0979  0877               	movf	(reverse@i),w
  8912  097A  077B               	addwf	(reverse@str),w
  8913  097B  00F2               	movwf	(??_reverse+0)+0
  8914  097C  0872               	movf	0+(??_reverse+0)+0,w
  8915  097D  0084               	movwf	fsr0
  8916  097E  1383               	bcf	status, 7	;select IRP bank0
  8917  097F  0800               	movf	indf,w
  8918  0980  00F3               	movwf	(??_reverse+1)+0
  8919  0981  01F4               	clrf	(??_reverse+1)+0+1
  8920  0982  0873               	movf	0+(??_reverse+1)+0,w
  8921  0983  00F5               	movwf	(reverse@temp)
  8922  0984  0874               	movf	1+(??_reverse+1)+0,w
  8923  0985  00F6               	movwf	(reverse@temp+1)
  8924                           	line	14
  8925                           ;string.c: 14: str[i] = str[j];
  8926  0986  0879               	movf	(reverse@j),w
  8927  0987  077B               	addwf	(reverse@str),w
  8928  0988  00F2               	movwf	(??_reverse+0)+0
  8929  0989  0872               	movf	0+(??_reverse+0)+0,w
  8930  098A  0084               	movwf	fsr0
  8931  098B  0800               	movf	indf,w
  8932  098C  00F3               	movwf	(??_reverse+1)+0
  8933  098D  0877               	movf	(reverse@i),w
  8934  098E  077B               	addwf	(reverse@str),w
  8935  098F  00F4               	movwf	(??_reverse+2)+0
  8936  0990  0874               	movf	0+(??_reverse+2)+0,w
  8937  0991  0084               	movwf	fsr0
  8938  0992  0873               	movf	(??_reverse+1)+0,w
  8939  0993  0080               	movwf	indf
  8940                           	line	15
  8941                           ;string.c: 15: str[j] = temp;
  8942  0994  0875               	movf	(reverse@temp),w
  8943  0995  00F2               	movwf	(??_reverse+0)+0
  8944  0996  0879               	movf	(reverse@j),w
  8945  0997  077B               	addwf	(reverse@str),w
  8946  0998  00F3               	movwf	(??_reverse+1)+0
  8947  0999  0873               	movf	0+(??_reverse+1)+0,w
  8948  099A  0084               	movwf	fsr0
  8949  099B  0872               	movf	(??_reverse+0)+0,w
  8950  099C  0080               	movwf	indf
  8951                           	line	16
  8952                           	
  8953  099D                     l5427:	
  8954                           ;string.c: 16: i++; j--;
  8955  099D  3001               	movlw	low(01h)
  8956  099E  07F7               	addwf	(reverse@i),f
  8957  099F  1803               	skipnc
  8958  09A0  0AF8               	incf	(reverse@i+1),f
  8959  09A1  3000               	movlw	high(01h)
  8960  09A2  07F8               	addwf	(reverse@i+1),f
  8961                           	
  8962  09A3                     l5429:	
  8963  09A3  30FF               	movlw	low(-1)
  8964  09A4  07F9               	addwf	(reverse@j),f
  8965  09A5  1803               	skipnc
  8966  09A6  0AFA               	incf	(reverse@j+1),f
  8967  09A7  30FF               	movlw	high(-1)
  8968  09A8  07FA               	addwf	(reverse@j+1),f
  8969  09A9  29AA               	goto	l5431
  8970                           	line	17
  8971                           	
  8972  09AA                     l2141:	
  8973                           	line	11
  8974                           	
  8975  09AA                     l5431:	
  8976  09AA  0878               	movf	(reverse@i+1),w
  8977  09AB  3A80               	xorlw	80h
  8978  09AC  00F2               	movwf	(??_reverse+0)+0
  8979  09AD  087A               	movf	(reverse@j+1),w
  8980  09AE  3A80               	xorlw	80h
  8981  09AF  0272               	subwf	(??_reverse+0)+0,w
  8982  09B0  1D03               	skipz
  8983  09B1  29B4               	goto	u2735
  8984  09B2  0879               	movf	(reverse@j),w
  8985  09B3  0277               	subwf	(reverse@i),w
  8986  09B4                     u2735:
  8987                           
  8988  09B4  1C03               	skipc
  8989  09B5  29B7               	goto	u2731
  8990  09B6  29B8               	goto	u2730
  8991  09B7                     u2731:
  8992  09B7  2979               	goto	l5425
  8993  09B8                     u2730:
  8994  09B8  29B9               	goto	l2144
  8995                           	
  8996  09B9                     l2143:	
  8997                           	line	18
  8998                           	
  8999  09B9                     l2144:	
  9000  09B9  0008               	return
  9001                           	opt stack 0
  9002                           GLOBAL	__end_of_reverse
  9003  09BA                     	__end_of_reverse:
  9004 ;; =============== function _reverse ends ============
  9005                           
  9006                           	signat	_reverse,8312
  9007                           	global	_lcd_write
  9008                           psect	text774,local,class=CODE,delta=2
  9009                           global __ptext774
  9010  0877                     __ptext774:
  9011                           
  9012 ;; *************** function _lcd_write *****************
  9013 ;; Defined at:
  9014 ;;		line 23 in file "C:\Users\abdal\Desktop\University\Year 4\Second Semester\Real Time Lab\Experiments and Codes\exp3\S
       erial-Requirements\Codes\lcd.c"
  9015 ;; Parameters:    Size  Location     Type
  9016 ;;  c               1    wreg     unsigned char 
  9017 ;; Auto vars:     Size  Location     Type
  9018 ;;  c               1    2[COMMON] unsigned char 
  9019 ;;  _dcnt           1    1[COMMON] unsigned char 
  9020 ;; Return value:  Size  Location     Type
  9021 ;;		None               void
  9022 ;; Registers used:
  9023 ;;		wreg, status,2, status,0
  9024 ;; Tracked objects:
  9025 ;;		On entry : 0/0
  9026 ;;		On exit  : 0/0
  9027 ;;		Unchanged: 0/0
  9028 ;; Data sizes:     COMMON   BANK0   BANK1   BANK3   BANK2
  9029 ;;      Params:         0       0       0       0       0
  9030 ;;      Locals:         2       0       0       0       0
  9031 ;;      Temps:          1       0       0       0       0
  9032 ;;      Totals:         3       0       0       0       0
  9033 ;;Total ram usage:        3 bytes
  9034 ;; Hardware stack levels used:    1
  9035 ;; This function calls:
  9036 ;;		Nothing
  9037 ;; This function is called by:
  9038 ;;		_lcd_clear
  9039 ;;		_lcd_puts
  9040 ;;		_lcd_goto
  9041 ;;		_lcd_init
  9042 ;; This function uses a non-reentrant model
  9043 ;;
  9044                           psect	text774
  9045                           	file	"C:\Users\abdal\Desktop\University\Year 4\Second Semester\Real Time Lab\Experiment
                                 s and Codes\exp3\Serial-Requirements\Codes\lcd.c"
  9046                           	line	23
  9047                           	global	__size_of_lcd_write
  9048  0025                     	__size_of_lcd_write	equ	__end_of_lcd_write-_lcd_write
  9049                           	
  9050  0877                     _lcd_write:	
  9051                           	opt	stack 6
  9052                           ; Regs used in _lcd_write: [wreg+status,2+status,0]
  9053                           ;lcd_write@c stored from wreg
  9054  0877  00F2               	movwf	(lcd_write@c)
  9055                           	line	24
  9056                           	
  9057  0878                     l5407:	
  9058                           ;lcd.c: 24: PORTD = (PORTD & 0x0F) | (c);
  9059  0878  1283               	bcf	status, 5	;RP0=0, select bank0
  9060  0879  1303               	bcf	status, 6	;RP1=0, select bank0
  9061  087A  0808               	movf	(8),w
  9062  087B  390F               	andlw	0Fh
  9063  087C  0472               	iorwf	(lcd_write@c),w
  9064  087D  0088               	movwf	(8)	;volatile
  9065                           	line	25
  9066                           	
  9067  087E                     l5409:	
  9068                           ;lcd.c: 25: ((RE1 = 1),(RE1=0));
  9069  087E  1489               	bsf	(73/8),(73)&7
  9070                           	
  9071  087F                     l5411:	
  9072  087F  1089               	bcf	(73/8),(73)&7
  9073                           	line	26
  9074                           ;lcd.c: 26: PORTD = (PORTD & 0x0F) | (c << 4);
  9075  0880  0872               	movf	(lcd_write@c),w
  9076  0881  00F0               	movwf	(??_lcd_write+0)+0
  9077  0882  3004               	movlw	04h
  9078  0883                     u2715:
  9079  0883  1003               	clrc
  9080  0884  0DF0               	rlf	(??_lcd_write+0)+0,f
  9081  0885  3EFF               	addlw	-1
  9082  0886  1D03               	skipz
  9083  0887  2883               	goto	u2715
  9084  0888  0808               	movf	(8),w
  9085  0889  390F               	andlw	0Fh
  9086  088A  0470               	iorwf	0+(??_lcd_write+0)+0,w
  9087  088B  0088               	movwf	(8)	;volatile
  9088                           	line	27
  9089                           	
  9090  088C                     l5413:	
  9091                           ;lcd.c: 27: ((RE1 = 1),(RE1=0));
  9092  088C  1489               	bsf	(73/8),(73)&7
  9093                           	
  9094  088D                     l5415:	
  9095  088D  1089               	bcf	(73/8),(73)&7
  9096                           	line	28
  9097                           	
  9098  088E                     l5417:	
  9099                           ;lcd.c: 28: { unsigned char _dcnt; _dcnt = (40)/((12*1000L)/(4*1000L))|1; while(--_dcnt 
                                 != 0) continue; };
  9100  088E  300D               	movlw	(0Dh)
  9101  088F  00F0               	movwf	(??_lcd_write+0)+0
  9102  0890  0870               	movf	(??_lcd_write+0)+0,w
  9103  0891  00F1               	movwf	(lcd_write@_dcnt)
  9104  0892  2894               	goto	l5419
  9105                           	
  9106  0893                     l1425:	
  9107  0893  2894               	goto	l5419
  9108                           	
  9109  0894                     l1424:	
  9110                           	
  9111  0894                     l5419:	
  9112  0894  3001               	movlw	low(01h)
  9113  0895  02F1               	subwf	(lcd_write@_dcnt),f
  9114  0896  1D03               	btfss	status,2
  9115  0897  2899               	goto	u2721
  9116  0898  289A               	goto	u2720
  9117  0899                     u2721:
  9118  0899  2894               	goto	l5419
  9119  089A                     u2720:
  9120  089A  289B               	goto	l1427
  9121                           	
  9122  089B                     l1426:	
  9123                           	line	29
  9124                           	
  9125  089B                     l1427:	
  9126  089B  0008               	return
  9127                           	opt stack 0
  9128                           GLOBAL	__end_of_lcd_write
  9129  089C                     	__end_of_lcd_write:
  9130 ;; =============== function _lcd_write ends ============
  9131                           
  9132                           	signat	_lcd_write,4216
  9133                           	global	_init_a2d
  9134                           psect	text775,local,class=CODE,delta=2
  9135                           global __ptext775
  9136  172C                     __ptext775:
  9137                           
  9138 ;; *************** function _init_a2d *****************
  9139 ;; Defined at:
  9140 ;;		line 76 in file "C:\Users\abdal\Desktop\University\Year 4\Second Semester\Real Time Lab\Experiments and Codes\exp3\A
       DC (motors and LCD)\ADC_EXMAPLE.c"
  9141 ;; Parameters:    Size  Location     Type
  9142 ;;		None
  9143 ;; Auto vars:     Size  Location     Type
  9144 ;;		None
  9145 ;; Return value:  Size  Location     Type
  9146 ;;		None               void
  9147 ;; Registers used:
  9148 ;;		wreg
  9149 ;; Tracked objects:
  9150 ;;		On entry : 0/0
  9151 ;;		On exit  : 0/0
  9152 ;;		Unchanged: 0/0
  9153 ;; Data sizes:     COMMON   BANK0   BANK1   BANK3   BANK2
  9154 ;;      Params:         0       0       0       0       0
  9155 ;;      Locals:         0       0       0       0       0
  9156 ;;      Temps:          0       0       0       0       0
  9157 ;;      Totals:         0       0       0       0       0
  9158 ;;Total ram usage:        0 bytes
  9159 ;; Hardware stack levels used:    1
  9160 ;; This function calls:
  9161 ;;		Nothing
  9162 ;; This function is called by:
  9163 ;;		_main
  9164 ;; This function uses a non-reentrant model
  9165 ;;
  9166                           psect	text775
  9167                           	file	"C:\Users\abdal\Desktop\University\Year 4\Second Semester\Real Time Lab\Experiment
                                 s and Codes\exp3\ADC (motors and LCD)\ADC_EXMAPLE.c"
  9168                           	line	76
  9169                           	global	__size_of_init_a2d
  9170  000C                     	__size_of_init_a2d	equ	__end_of_init_a2d-_init_a2d
  9171                           	
  9172  172C                     _init_a2d:	
  9173                           	opt	stack 7
  9174                           ; Regs used in _init_a2d: [wreg]
  9175                           	line	77
  9176                           	
  9177  172C                     l5403:	
  9178                           ;ADC_EXMAPLE.c: 77: ADCON0 = 0x41;
  9179  172C  3041               	movlw	(041h)
  9180  172D  1283               	bcf	status, 5	;RP0=0, select bank0
  9181  172E  1303               	bcf	status, 6	;RP1=0, select bank0
  9182  172F  009F               	movwf	(31)	;volatile
  9183                           	line	78
  9184                           ;ADC_EXMAPLE.c: 78: ADCON1 = 0x0E;
  9185  1730  300E               	movlw	(0Eh)
  9186  1731  1683               	bsf	status, 5	;RP0=1, select bank1
  9187  1732  1303               	bcf	status, 6	;RP1=0, select bank1
  9188  1733  009F               	movwf	(159)^080h	;volatile
  9189                           	line	79
  9190                           	
  9191  1734                     l5405:	
  9192                           ;ADC_EXMAPLE.c: 79: ADON=1;
  9193  1734  1283               	bcf	status, 5	;RP0=0, select bank0
  9194  1735  1303               	bcf	status, 6	;RP1=0, select bank0
  9195  1736  141F               	bsf	(248/8),(248)&7
  9196                           	line	80
  9197                           	
  9198  1737                     l715:	
  9199  1737  0008               	return
  9200                           	opt stack 0
  9201                           GLOBAL	__end_of_init_a2d
  9202  1738                     	__end_of_init_a2d:
  9203 ;; =============== function _init_a2d ends ============
  9204                           
  9205                           	signat	_init_a2d,88
  9206                           	global	_DelayMs
  9207                           psect	text776,local,class=CODE,delta=2
  9208                           global __ptext776
  9209  17DF                     __ptext776:
  9210                           
  9211 ;; *************** function _DelayMs *****************
  9212 ;; Defined at:
  9213 ;;		line 11 in file "C:\Users\abdal\Desktop\University\Year 4\Second Semester\Real Time Lab\Experiments and Codes\exp3\S
       erial-Requirements\Codes\delay.c"
  9214 ;; Parameters:    Size  Location     Type
  9215 ;;  cnt             1    wreg     unsigned char 
  9216 ;; Auto vars:     Size  Location     Type
  9217 ;;  cnt             1    1[COMMON] unsigned char 
  9218 ;;  _dcnt           1    3[COMMON] unsigned char 
  9219 ;;  i               1    2[COMMON] unsigned char 
  9220 ;; Return value:  Size  Location     Type
  9221 ;;		None               void
  9222 ;; Registers used:
  9223 ;;		wreg, status,2, status,0
  9224 ;; Tracked objects:
  9225 ;;		On entry : 0/0
  9226 ;;		On exit  : 0/0
  9227 ;;		Unchanged: 0/0
  9228 ;; Data sizes:     COMMON   BANK0   BANK1   BANK3   BANK2
  9229 ;;      Params:         0       0       0       0       0
  9230 ;;      Locals:         3       0       0       0       0
  9231 ;;      Temps:          1       0       0       0       0
  9232 ;;      Totals:         4       0       0       0       0
  9233 ;;Total ram usage:        4 bytes
  9234 ;; Hardware stack levels used:    1
  9235 ;; This function calls:
  9236 ;;		Nothing
  9237 ;; This function is called by:
  9238 ;;		_main
  9239 ;;		_read_a2d
  9240 ;;		_DelaySec
  9241 ;;		_lcd_clear
  9242 ;;		_lcd_init
  9243 ;; This function uses a non-reentrant model
  9244 ;;
  9245                           psect	text776
  9246                           	file	"C:\Users\abdal\Desktop\University\Year 4\Second Semester\Real Time Lab\Experiment
                                 s and Codes\exp3\Serial-Requirements\Codes\delay.c"
  9247                           	line	11
  9248                           	global	__size_of_DelayMs
  9249  0021                     	__size_of_DelayMs	equ	__end_of_DelayMs-_DelayMs
  9250                           	
  9251  17DF                     _DelayMs:	
  9252                           	opt	stack 6
  9253                           ; Regs used in _DelayMs: [wreg+status,2+status,0]
  9254                           ;DelayMs@cnt stored from wreg
  9255  17DF  00F1               	movwf	(DelayMs@cnt)
  9256                           	line	20
  9257                           ;delay.c: 19: unsigned char i;
  9258                           ;delay.c: 20: do {
  9259                           	
  9260  17E0                     l730:	
  9261                           	line	21
  9262                           	
  9263  17E0                     l5395:	
  9264                           ;delay.c: 21: i = 4;
  9265  17E0  3004               	movlw	(04h)
  9266  17E1  00F0               	movwf	(??_DelayMs+0)+0
  9267  17E2  0870               	movf	(??_DelayMs+0)+0,w
  9268  17E3  00F2               	movwf	(DelayMs@i)
  9269                           	line	22
  9270                           ;delay.c: 22: do {
  9271                           	
  9272  17E4                     l731:	
  9273                           	line	23
  9274                           ;delay.c: 23: { unsigned char _dcnt; _dcnt = (250)/((12*1000L)/(4*1000L))|1; while(--_dc
                                 nt != 0) continue; };
  9275  17E4  3053               	movlw	(053h)
  9276  17E5  00F0               	movwf	(??_DelayMs+0)+0
  9277  17E6  0870               	movf	(??_DelayMs+0)+0,w
  9278  17E7  00F3               	movwf	(DelayMs@_dcnt)
  9279  17E8  2FEA               	goto	l5397
  9280                           	
  9281  17E9                     l733:	
  9282  17E9  2FEA               	goto	l5397
  9283                           	
  9284  17EA                     l732:	
  9285                           	
  9286  17EA                     l5397:	
  9287  17EA  3001               	movlw	low(01h)
  9288  17EB  02F3               	subwf	(DelayMs@_dcnt),f
  9289  17EC  1D03               	btfss	status,2
  9290  17ED  2FEF               	goto	u2681
  9291  17EE  2FF0               	goto	u2680
  9292  17EF                     u2681:
  9293  17EF  2FEA               	goto	l5397
  9294  17F0                     u2680:
  9295  17F0  2FF1               	goto	l5399
  9296                           	
  9297  17F1                     l734:	
  9298                           	line	24
  9299                           	
  9300  17F1                     l5399:	
  9301                           ;delay.c: 24: } while(--i);
  9302  17F1  3001               	movlw	low(01h)
  9303  17F2  02F2               	subwf	(DelayMs@i),f
  9304  17F3  1D03               	btfss	status,2
  9305  17F4  2FF6               	goto	u2691
  9306  17F5  2FF7               	goto	u2690
  9307  17F6                     u2691:
  9308  17F6  2FE4               	goto	l731
  9309  17F7                     u2690:
  9310  17F7  2FF8               	goto	l5401
  9311                           	
  9312  17F8                     l735:	
  9313                           	line	25
  9314                           	
  9315  17F8                     l5401:	
  9316                           ;delay.c: 25: } while(--cnt);
  9317  17F8  3001               	movlw	low(01h)
  9318  17F9  02F1               	subwf	(DelayMs@cnt),f
  9319  17FA  1D03               	btfss	status,2
  9320  17FB  2FFD               	goto	u2701
  9321  17FC  2FFE               	goto	u2700
  9322  17FD                     u2701:
  9323  17FD  2FE0               	goto	l730
  9324  17FE                     u2700:
  9325  17FE  2FFF               	goto	l737
  9326                           	
  9327  17FF                     l736:	
  9328                           	line	27
  9329                           	
  9330  17FF                     l737:	
  9331  17FF  0008               	return
  9332                           	opt stack 0
  9333                           GLOBAL	__end_of_DelayMs
  9334  1800                     	__end_of_DelayMs:
  9335 ;; =============== function _DelayMs ends ============
  9336                           
  9337                           	signat	_DelayMs,4216
  9338                           psect	text777,local,class=CODE,delta=2
  9339                           global __ptext777
  9340  0000                     __ptext777:
  9341                           	global	btemp
  9342  007E                     	btemp set 07Eh
  9343                           
  9344                           	DABS	1,126,2	;btemp
  9345                           	global	wtemp0
  9346  007E                     	wtemp0 set btemp


HI-TECH Software PICC Macro Assembler V9.83 build 10920 
Symbol Table                                                                                   Mon Apr 04 08:58:01 2022

         ___altoft@exp 0026                      _x 00B8                      pc 0002         ___bmul@product 0072  
        ___altoft@sign 0027                     _RD 0C60                     _WR 0C61           ___awdiv@sign 0076  
                   fsr 0004           ___ftadd@exp1 003F           ___ftadd@exp2 003E           ___ftadd@sign 003D  
                  l710 0200                    l711 0201                    l720 003B                    l712 0201  
                  l721 004A                    l730 17E0                    l731 17E4                    l715 1737  
                  l707 0160                    l732 17EA                    l724 17CF                    l708 01EC  
                  l733 17E9                    l725 17C2                    l709 01FF                    l734 17F1  
                  l726 17DE                    l718 0036                    l735 17F8                    l727 17DE  
                  l719 0036                    l736 17FF                    l737 17FF                    _GIE 005F  
                  _RB1 0031                    _RE0 0048                    _RE1 0049                    _exp 0699  
                  _log 004B                    _pow 02F2                    fsr0 0004                    _str 00BB  
                  indf 0000           ___awmod@sign 0076            lcd_goto@pos 0073           ___ftdiv@cntr 0024  
         ___ftdiv@sign 0029                   l3000 0B68                   l3001 0B5C                   l3002 0B6D  
                 l3003 0B6E                   l3004 0B87                   l3020 1742                   l2141 09AA  
                 l3005 0B95                   l3021 1743                   l2142 0979                   l3006 0BA0  
                 l1430 1753                   l2150 0CFC                   l2143 09B9                   l3007 0BA7  
                 l2151 0CE9                   l1424 0894                   l2144 09B9                   l3024 0AF2  
                 l2152 0D0B                   l3200 07FF                   l1425 0893                   l3025 0B1C  
                 l1433 08DF                   l2153 0D29                   l3201 06D6                   l1426 089B  
                 l3026 0B33                   l1450 0A2C                   l1434 08CA                   l1427 089B  
                 l1451 0A42                   l1435 08F0                   l2147 0CE1                   l3211 07C8  
                 l3203 06CD                   l1452 0A41                   l1436 08F0                   l2148 0CA7  
                 l3220 0E75                   l2156 0552                   l1453 0A49                   l1445 0011  
                 l2149 0CE8                   l3221 0E18                   l3213 07CE                   l3205 06D4  
                 l2157 0552                   l3070 0A95                   l1454 0A61                   l3222 0E6C  
                 l3206 06FB                   l3071 0A96                   l3207 072E                   l3072 0AA7  
                 l1448 0A26                   l3208 07FF                   l3073 0AB5                   l3065 0A70  
                 l1449 0A25                   l3233 0070                   l3209 07E4                   l3074 0AC0  
                 l3066 0A7A                   l3250 0F38                   l3218 0E0E                   l3234 011D  
                 l3075 0AC7                   l3067 0AB6                   l3243 093A                   l3251 0F1A  
                 l3219 0E04                   l3235 0085                   l3068 0A90                   l3244 096C  
                 l3252 0F06                   l3069 0A84                   l3085 09D4                   l3261 0F17  
                 l3270 0BBD                   l3086 09E3                   l3094 0904                   l3262 0F37  
                 l3254 0EE7                   l3271 0BD1                   l3087 09D5                   l3095 08F6  
                 l3247 0E87                   l3272 0BE8                   l3088 09EA                   l3096 090B  
                 l3256 0EF0                   l3248 0F39                   l3273 0BD2                   l3265 0BBC  
                 l3089 0A06                   l3097 0922                   l3257 0F19                   l6001 0F1A  
                 l3249 0EB4                   l3274 0BEF                   l3282 0C93                   l3275 0BFB  
                 l3267 0BB4                   l6003 0F2C                   l3259 0F0E                   l6011 001F  
                 l3283 0C46                   l3276 0BF0                   l3268 0C22                   l3284 0C9A  
                 l3277 0BFF                   l3269 0BCA                   l2901 058A                   l6005 0F38  
                 l6013 0025                   l6021 17A0                   l3285 0CA1                   l6101 06D5  
                 l3278 0C09                   l2910 05F2                   l3279 0C22                   l2911 05C2  
                 l2903 0582                   l6007 0F39                   l6015 0034                   l6023 17A4  
                 l6031 0DE5                   l6111 0716                   l6103 06D6                   l3199 06AA  
                 l2920 05F9                   l2904 0698                   l2840 0323                   l5401 17F8  
                 l2913 05DB                   l2905 059F                   l6017 003B                   l6009 0015  
                 l6025 17BE                   l6033 0DFA                   l6041 0E0E                   l6121 078D  
                 l6113 071A                   l6105 06ED                   l2841 0319                   l6201 0129  
                 l2922 0612                   l2914 05DC                   l2842 0418                   l5403 172C  
                 l5411 087F                   l2851 176B                   l2923 0613                   l2915 05EA  
                 l2907 059E                   l6019 004A                   l6051 0E6C                   l6043 0E17  
                 l6035 0E03                   l6027 0DCE                   l6131 07DC                   l6123 07BB  
                 l6115 072E                   l6107 06FA                   l2843 0332                   l6211 014B  
                 l6203 0132                   l2852 1774                   l2924 0621                   l2916 05DD  
                 l2908 05A8                   l2940 17BE                   l2844 03A8                   l5405 1734  
                 l5413 088C                   l5421 096E                   l2853 177E                   l5501 0D7D  
                 l2925 0614                   l2917 05F1                   l2909 05AD                   l6053 0E75  
                 l6045 0E18                   l6037 0E04                   l6029 0DDF                   l6061 0C9A  
                 l6133 07E3                   l6125 07C0                   l6117 0747                   l6109 06FB  
                 l2845 0387                   l6141 02F5                   l6221 0160                   l6213 014E  
                 l6205 0137                   l2854 1780                   l2926 0628                   l2918 0629  
                 l2950 0FE5                   l2846 0418                   l5415 088D                   l5407 0878  
                 l5431 09AA                   l5423 0970                   l5511 0DAD                   l5503 0D90  
                 l2927 063E                   l2919 0629                   l6047 0E4F                   l6039 0E0D  
                 l6063 0CA1                   l6055 0C23                   l6071 0070                   l6135 07E4  
                 l6127 07C1                   l6119 0767                   l6151 032A                   l6143 02FE  
                 l6231 01B4                   l6223 0166                   l6215 0153                   l6207 013C  
                 l2928 0653                   l2960 02A4                   l5417 088E                   l5409 087E  
                 l5425 0979                   l5441 1778                   l5433 176A                   l5505 0D96  
                 l5513 0DB4                   l5601 0A70                   l2929 067C                   l2945 0F55  
                 l2961 02A9                   l6049 0E6B                   l6057 0C46                   l6081 00C8  
                 l6073 0079                   l6065 004B                   l6137 07FE                   l6129 07C8  
                 l6161 0386                   l6153 0331                   l6145 0313                   l6241 01E8  
                 l6233 01BD                   l6225 016C                   l6217 0159                   l6209 0145  
                 l2970 0D7D                   l2946 0FFF                   l2962 02BE                   l5419 0894  
                 l5427 099D                   l5443 177E                   l5435 176F                   l5451 0BB4  
                 l5515 0DB8                   l5507 0D9F                   l2971 0D8F                   l5531 0B39  
                 l5611 0A8B                   l5603 0A74                   l2947 0F6E                   l2963 02D5  
                 l2955 021F                   l6059 0C93                   l6083 00E3                   l6075 0084  
                 l6067 0062                   l6091 06A9                   l6171 03FB                   l6163 0387  
                 l6155 0332                   l6147 0322                   l6139 02F2                   l6235 01D4  
                 l6243 01EC                   l6227 0184                   l6219 015E                   l2972 0DB4  
                 l2948 0FB4                   l2956 02F1                   l5429 09A3                   l5445 1780  
                 l5437 1774                   l5461 0BD6                   l5453 0BBB                   l5517 0DC4  
                 l5509 0DA1                   l2973 0DA0                   l5541 0B52                   l5533 0B42  
                 l5621 0AAE                   l5613 0A90                   l5605 0A7A                   l5701 0A26  
                 l2949 0FD6                   l2957 0238                   l6085 011D                   l6077 0085  
                 l6069 006F                   l6093 06AA                   l6173 0401                   l6165 0392  
                 l6157 0347                   l6149 0323                   l6181 04A0                   l6245 01F5  
                 l6237 01D9                   l6229 019D                   l2974 0DAD                   l2966 0D45  
                 l2958 0278                   l2982 179F                   l5439 1776                   l5471 0C0B  
                 l5463 0BE0                   l5455 0BBD                   l5447 0BA8                   l5519 0DCD  
                 l2975 0DA1                   l2967 0DCD                   l5551 0B6E                   l5543 0B58  
                 l5535 0B46                   l5615 0A96                   l5607 0A80                   l5623 0AB6  
                 l5711 0A3C                   l5703 0A30                   l2959 028D                   l6079 00C2  
                 l6095 06BF                   l6087 0699                   l6175 0417                   l6159 037B  
                 l6167 03A8                   l6183 04A6                   l6247 01FB                   l6239 01E2  
                 l6191 011E                   l2976 0DB3                   l2968 0D90                   l5473 0C1D  
                 l5465 0BF0                   l5457 0BCA                   l5449 0BAC                   l2977 0DC4  
                 l2969 0D7C                   l5481 0D44                   l5553 0B7F                   l5545 0B5C  
                 l5561 0B96                   l5537 0B4B                   l5529 0B34                   l5625 0ABA  
                 l5617 0AA0                   l5609 0A84                   l5713 0A42                   l5705 0A36  
                 l5721 08C6                   l5801 0603                   l2993 08AC                   l6097 06C6  
                 l6089 06A2                   l6169 03C7                   l6185 04B6                   l6177 0419  
                 l6193 0123                   l2994 08C5                   l5395 17E0                   l5475 0C21  
                 l5467 0BFB                   l5459 0BD2                   l5491 0D65                   l5483 0D45  
                 l5563 0B9A                   l5555 0B85                   l5547 0B63                   l5539 0B50  
                 l5571 173F                   l5387 0B30                   l5627 0AC0                   l5619 0AA7  
                 l5651 092A                   l5715 0A49                   l5707 0A3A                   l5723 08CA  
                 l5731 000A                   l5811 063E                   l5803 0609                   l6099 06CD  
                 l6187 04E8                   l6179 0475                   l6195 0125                   ?_exp 005A  
                 l5397 17EA                   l5469 0C03                   l5493 0D67                   l5485 0D57  
                 l5477 0D2A                   l5565 0BA0                   l5557 0B87                   l5549 0B68  
                 l2997 0B42                   l5573 1742                   l5389 0B32                   l5581 0AF2  
                 l5629 0AC7                   l5661 0959                   l5653 0932                   l5709 0A3B  
                 l5717 1744                   l5725 08D8                   l5741 0CE1                   l5733 0CA2  
                 l5821 0678                   l5813 0642                   l5805 0614                   l5901 029D  
                 l6189 0521                   l6197 0127                   ?_log 0054                   l2998 0B50  
                 l5399 17F1                   l5495 0D6B                   l5487 0D58                   l5479 0D3B  
                 l5567 0BA7                   l2999 0B96                   l5559 0B8E                   l5575 1743  
                 l5591 0B2E                   l5583 0AF6                   l5663 0966                   l5655 0939  
                 l5719 1747                   l5727 08DF                   l5751 0D19                   l5743 0CE9  
                 l5735 0CA7                   l5823 067C                   l5815 0653                   l5807 0621  
                 l5831 0F54                   l5911 02C6                   l5903 02A4                   l6199 0128  
                 l5497 0D72                   l5489 0D5E                   l5569 1738                   l5593 0B30  
                 l5585 0B1C                   l5577 0AC8                   l5665 096A                   l5657 093A  
                 l5649 0923                   l5681 17C8                   l5729 0007                   l5753 0D22  
                 l5745 0CF5                   l5737 0CC3                   l5825 0698                   l5817 0664  
                 l5809 062D                   l5761 0571                   l5841 0F74                   l5833 0F55  
                 l5913 02CE                   l5905 02A9                   l5921 179F                   l5499 0D7B  
                 l5595 0B33                   l5587 0B1E                   l5579 0ACC                   l5667 096B  
                 l5659 094D                   l5683 17CF                   l5691 0A14                   l5755 0D29  
                 l5747 0CFC                   l5739 0CC9                   l5819 0668                   l5771 058E  
                 l5763 0577                   l5851 0FA8                   l5843 0F79                   l5835 0F66  
                 l5827 0F3A                   l5915 02D5                   l5907 02AD                   l5923 089C  
                 l5931 09BA                   l5589 0B20                   l5597 0A62                   l5669 096C  
                 l5677 17BF                   l5693 0A15                   l5685 0A07                   l5749 0D0B  
                 l5781 05AC                   l5773 0594                   l5765 0582                   l5757 0553  
                 l5861 0FD6                   l5853 0FB4                   l5845 0F8B                   l5837 0F6D  
                 l5829 0F4D                   l5917 02F1                   l5909 02BE                   l5925 08A3  
                 l5941 09D5                   l5933 09BD                   l5599 0A67                   l5679 17C2  
                 l5695 0A16                   l5687 0A0A                   l5791 05D2                   l5783 05AE  
                 l5775 059F                   l5767 0589                   l5759 056D                   l5863 0FDE  
                 l5855 0FBC                   l5847 0F9D                   l5839 0F6E                   l5871 0217  
                 l5919 1782                   l5927 08AC                   l5943 09E3                   l5935 09C1  
                 l5951 08F6                   l5697 0A1C                   l5689 0A10                   l5793 05DD  
                 l5785 05B4                   l5777 05A3                   l5769 058A                   l5865 0FE5  
                 l5857 0FCA                   l5849 0FA1                   l5881 0238                   l5873 021E  
                 l5929 08C5                   l5945 09EA                   l5937 09C5                   l5953 0904  
                 l5961 0E7F                   l5699 0A1F                   l5795 05EA                   l5787 05C2  
                 l5779 05A7                   l5867 0FFF                   l5859 0FD4                   l5891 0273  
                 l5883 0265                   l5875 021F                   l5947 0A06                   l5939 09D0  
                 l5955 090B                   l5971 0EA7                   l5963 0E86                   l5789 05CC  
                 l5797 05F2                   l5893 0278                   l5885 0266                   l5877 0230  
                 l5869 0204                   l5957 0922                   l5949 08F1                   l5981 0EC7  
                 l5973 0EB2                   l5965 0E87                   l5799 05F9                   l5895 027C  
                 l5887 0267                   l5879 0237                   l5991 0F04                   l5983 0EDD  
                 l5975 0EB3                   l5967 0E98                   l5959 0E76                   l5897 028D  
                 l5889 026D                   l5993 0F05                   l5985 0EDE                   l5977 0EB4  
                 l5969 0EA3                   l5899 0295                   l5995 0F07                   l5987 0EE7  
                 l5979 0EC1                   _ADON 00F8                   l5989 0EF0                   l5997 0F0E  
                 l5999 0F18                   ?_pow 0064                   STR_1 0857                   STR_2 0863  
                 STR_3 0849                   u3000 0B58                   u3001 0B57                   u3020 0B6C  
                 u3021 0B6B                   u3101 0AE4                   u3110 0AF6                   u3102 0AE5  
                 u3015 0B5D                   u3111 0AF5                   u3103 0AEA                   u3040 0B7F  
                 u3104 0AEB                   u4000 06BF                   u3041 0B7E                   u3121 0B0E  
                 u4001 06BE                   u3130 0B2E                   u3122 0B0F                   u3210 0AB4  
                 u4010 06ED                   u3035 0B6F                   u3131 0B2D                   u3123 0B14  
                 u3211 0AB3                   u4011 06EC                   u3060 0B94                   u3124 0B15  
                 u3220 0ABA                   u3140 0A67                   u3300 0CE7                   u4020 071A  
                 u4100 0401                   u3061 0B93                   u3045 0B7B                   u3205 0AA8  
                 u3141 0A66                   u3301 0CE6                   u3070 0B9A                   u3150 0A74  
                 u3310 0D0A                   u4030 07BF                   u4110 04A6                   u3055 0B88  
                 u3135 0B2A                   u3151 0A73                   u3311 0D09                   u4111 04A5  
                 u3080 173F                   u3160 0A80                   u3240 092A                   u3400 05C1  
                 u3320 0571                   u4040 07DC                   u4120 01D4                   u3081 173E  
                 u3161 0A7F                   u3241 0929                   u3401 05C0                   u4041 07DB  
                 u4121 01D3                   u3090 0ACC                   u3330 0577                   u4050 02FE  
                 u3091 0ACB                   u3315 0D06                   u3331 0576                   u4051 02FD  
                 u2700 17FE                   u3180 0A94                   u3260 17DD                   u3420 05D2  
                 u3340 0581                   u4060 0313                   u2701 17FD                   u3181 0A93  
                 u3261 17DC                   u3421 05D1                   u3341 0580                   u4045 07D8  
                 u4061 0312                   u3190 0AA0                   u3270 0A2C                   u3510 0627  
                 u3430 05DA                   u3350 058E                   u4070 032A                   u3191 0A9F  
                 u3175 0A85                   u3255 0940                   u3271 0A2B                   u3511 0626  
                 u3431 05D9                   u3415 05C3                   u4071 0329                   u2720 089A  
                 u3280 0A48                   u3520 062D                   u3360 0594                   u4080 0347  
                 u2721 0899                   u3265 17D9                   u3281 0A47                   u3521 062C  
                 u3505 0615                   u3361 0593                   u4081 0346                   u2730 09B8  
                 u2810 0BEE                   u3290 08EF                   u3530 0642                   u3450 05F0  
                 u3370 059E                   u3610 0FCA                   u4090 037B                   u2715 0883  
                 u2731 09B7                   u2811 0BED                   u3195 0A9C                   u3291 08EE  
                 u3531 0641                   u3451 05EF                   u3371 059D                   u3611 0FC9  
                 u4091 037A                   u2740 176F                   u2900 0D72                   u3460 05F8  
                 u3380 05A7                   u2741 176E                   u2805 0BE1                   u2901 0D71  
                 u3541 065D                   u3461 05F7                   u3445 05DE                   u3381 05A6  
                 u3605 0FB5                   u2750 177D                   u2830 0BFF                   u3550 0668  
                 u3542 0664                   u3390 05AC                   u3630 0FE4                   u2735 09B4  
                 u2751 177C                   u2831 0BFE                   u3551 0667                   u3391 05AB  
                 u3631 0FE3                   u3615 0FC6                   u4095 0377                   u2680 17F0  
                 u2840 0C03                   u2760 0BAC                   u2920 0D8E                   u3480 0609  
                 u3560 0F4D                   u3720 02A3                   u3640 0217                   u2681 17EF  
                 u2841 0C02                   u2825 0BF3                   u2921 0D8D                   u3481 0608  
                 u3625 0FD7                   u3561 0F4C                   u3721 02A2                   u3705 028E  
                 u3641 0216                   u2690 17F7                   u2850 0C14                   u2770 0BB3  
                 u2930 0D96                   u3490 0611                   u3570 0F66                   u3730 02AD  
                 u3650 0230                   u3810 09E9                   u2691 17F6                   u2771 0BB2  
                 u2931 0D95                   u2915 0D7E                   u3491 0610                   u3475 05FA  
                 u3571 0F65                   u3731 02AC                   u3715 0296                   u3651 022F  
                 u3811 09E8                   u2860 0C21                   u3580 0F84                   u3660 0248  
                 u3741 02B6                   u3805 09D6                   u2790 0BD0                   u2950 0DB2  
                 u2870 0D3B                   u3590 0F96                   u3742 02BD                   u3670 025A  
                 u3830 090A                   u3910 003A                   u2855 0C10                   u2791 0BCF  
                 u2951 0DB1                   u2871 0D3A                   u3831 0909                   u3911 0039  
                 u2960 0DB8                   u2880 0D50                   u3680 027C                   u3840 0E7F  
                 u3920 0DE5                   u2785 0BC2                   u2945 0DA3                   u3585 0F80  
                 u3681 027B                   u3665 0244                   u3825 08F7                   u3841 0E7E  
                 u3905 002A                   u3921 0DE4                   u2890 0D6B                   u3770 02D4  
                 u3930 0DFA                   u2891 0D6A                   u3595 0F92                   u3771 02D3  
                 u3755 02BF                   u3691 0285                   u3675 0256                   u3931 0DF9  
                 u2980 0B39                   u3692 028C                   u3780 08A3                   u3860 0EA7  
                 u3940 0E17                   u2885 0D4C                   u2981 0B38                   u3765 02C7  
                 u3781 08A2                   u3861 0EA6                   u3941 0E16                   u2990 0B46  
                 u3790 09C5                   u3870 0EC1                   u3950 0E4F                   u2991 0B45  
                 u3791 09C4                   u3871 0EC0                   u3855 0E8D                   u3951 0E4E  
                 u3880 0EDC                   u3960 0C99                   u3881 0EDB                   u3961 0C98  
                 u3970 0062                   u3875 0EBD                   u3971 0061                   u3980 0079  
                 u3981 0078                   u3990 06A2                   u3895 0F22                   u3991 06A1  
                 _WREN 0C62                   _main 011E                   _ftoa 0419           ___ftpack@arg 0070  
         ___ftpack@exp 0073                   btemp 007E                   exp@x 005A                   log@x 0054  
                 pow@x 0064                   pow@y 0067                   start 0000        __end_of_DelayMs 1800  
    ___bmul@multiplier 0073           ___ftmul@cntr 0031        read_a2d@channel 0027           ___ftmul@sign 0032  
         ___fttol@exp1 007D                  ??_exp 005D                  ??_log 0057           ___fttol@lval 0079  
                ??_pow 006A                  ?_main 0070                  ?_ftoa 00A8        __end_of___awdiv 0BA8  
                _EEADR 010D        __end_of___ftadd 0699        __end_of___awmod 0AC8                  _CARRY 0018  
      __end_of___ftdiv 1000        __end_of___ftneg 1744        __end_of___ftmul 02F2        ___awdiv@divisor 0070  
      __end_of___ftsub 17BF        __end_of___fttol 0DCE        ___awdiv@counter 0075                  _PORTD 0008  
                _TRISA 0085                  _TRISB 0086                  _TRISD 0088                  _TRISE 0089  
         ___lltoft@exp 007D                  _nRBPU 040F          ___awtoft@sign 0022                  _floor 0DCE  
                _ldexp 0E76                  _frexp 0923                  _errno 006E          lcd_init@_dcnt 0075  
        ___ftpack@sign 0074                  ftoa@i 00B3                  ftoa@n 00A8                  pclath 000A  
      __end_of_reverse 09BA                  pow@yi 00A4                  status 0003                  wtemp0 007E  
     __end_of_DelaySec 17DF            ldexp@newexp 0043           __end_of_main 0204           __end_of_ftoa 0553  
               ??_main 006D                 ??_ftoa 006B          ___fttol@sign1 0078                 _ADCON0 001F  
               _ADCON1 009F                 ?_floor 0040                 ?_ldexp 0040                 ?_frexp 0070  
     __end_of___altoft 0A07                 _ADRESH 001E                 _EEDATA 010C                 _EECON1 018C  
               _EECON2 018D       ___awdiv@dividend 0072       __end_of___awtoft 08C6       __end_of___ftpack 0C23  
     __end_of___lbtoft 17A0       __end_of___lltoft 0923              ??_DelayMs 0070                 _TRISC6 043E  
               _TRISC7 043F            intToStr@str 0022       __end_of_lcd_init 0A62       __end_of_lcd_goto 0012  
               ___bmul 1769       __end_of_lcd_puts 08F1                 ___ftge 0AC8              ??___awdiv 0074  
            ??___ftadd 0039              ??___awmod 0074              ??___ftdiv 0020              ??___ftneg 007B  
            ??___ftmul 0029              ??___ftsub 007E              ??___fttol 0074       __end_of_init_a2d 1738  
     __end_of_intToStr 0D2A       __end_of_read_a2d 004B       ___awdiv@quotient 0077        ___awmod@divisor 0070  
      ___awmod@counter 0075                 floor@i 0044                 floor@x 0040                 exp@exp 0061  
___ftmul@f3_as_product 002E                 log@exp 0058              ??_reverse 0072             ___altoft@c 0020  
           ___ftadd@f1 0033             ___ftadd@f2 0036             ___ftge@ff1 0070             ___ftge@ff2 0073  
         eval_poly@res 0051             ___ftdiv@f1 007B             ___ftdiv@f2 0078             ___ftdiv@f3 0025  
           ___ftneg@f1 0078             ___awtoft@c 007B             ___lbtoft@c 007B    ___bmul@multiplicand 0070  
           ___ftmul@f1 0023             ___ftmul@f2 0026             ___ftsub@f1 0043             ___ftsub@f2 0040  
           ___fttol@f1 0070         __pcstackCOMMON 0070             ___lltoft@c 0078          __end_of_floor 0E76  
        __end_of_ldexp 0F3A          __end_of_frexp 096D              ?_DelaySec 0074     __size_of_lcd_clear 0010  
              ??_floor 0043     __size_of_lcd_write 0025                ??_ldexp 0045                ??_frexp 0074  
           __pbssBANK0 006E             __pbssBANK1 00B8     __size_of_eval_poly 007F             __pmaintext 011E  
              ?___bmul 0070                ?___ftge 0070              ?___altoft 0020              ?___awtoft 007B  
            ?___ftpack 0070              ?___lbtoft 0078              ?___lltoft 0078             ??_DelaySec 0076  
           _ldexp$3584 0047              ?_lcd_init 0070              ?_lcd_goto 0070              ?_lcd_puts 0073  
              _DelayMs 17DF              ?_init_a2d 0070              ?_intToStr 0020              ?_read_a2d 0024  
    __end_of_lcd_clear 1754        __size_of___bmul 0018        __size_of___ftge 006C                ___awdiv 0B34  
              ___ftadd 0553                ___awmod 0A62                ___ftdiv 0F3A      __end_of_lcd_write 089C  
              ___ftneg 1738                ___ftmul 0204                ___ftsub 17A0                ___fttol 0D2A  
           ??___altoft 0024             ??___awtoft 0020             ??___ftpack 0075             ??___lbtoft 0020  
    __end_of_eval_poly 0CA2             ??___lltoft 007C     lcd_init@_dcnt_2125 0076           __size_of_exp 0167  
         __size_of_log 00D3           __size_of_pow 0127       ___awmod@dividend 0072                _reverse 096D  
           ??_lcd_init 0074             ??_lcd_goto 0073             ??_lcd_puts 0075   end_of_initialization 1765  
            DelaySec@i 0077                ftoa@res 00AB                exp@sign 0063             ??_init_a2d 0070  
           ??_intToStr 0025             ??_read_a2d 007C            reverse@temp 0075                pow@sign 00A3  
       lcd_write@_dcnt 0071            ___ftdiv@exp 0028             lcd_write@c 0072            ___ftmul@exp 002D  
       __end_of___bmul 1781         __end_of___ftge 0B34           DelayMs@_dcnt 0073             floor@expon 0047  
  start_initialization 1754             eval_poly@d 004D             eval_poly@n 004E             eval_poly@x 004A  
           ldexp@value 0040            __end_of_exp 0800            __end_of_log 011E            __end_of_pow 0419  
    __size_of_DelaySec 0020             frexp@value 0070               ??___bmul 0071               ??___ftge 0076  
    __size_of___altoft 004D      __size_of___awtoft 002A      __size_of___ftpack 007B      __size_of___lbtoft 001F  
    __size_of___lltoft 0032          __pcstackBANK0 0020          __pcstackBANK1 00A0               ?_DelayMs 0070  
    __size_of_lcd_init 005B      __size_of_lcd_goto 000C      __size_of_lcd_puts 002B      __size_of_init_a2d 000C  
    __size_of_intToStr 0088      __size_of_read_a2d 0039               ?___awdiv 0070               ?___ftadd 0033  
             ?___awmod 0070              _ftoa$3805 00AE              __ptext750 0012              __ptext751 0E76  
            __ptext743 0419              __ptext760 0006              __ptext752 08F1              __ptext744 02F2  
            __ptext761 08C6              __ptext753 09BA              __ptext745 0699              __ptext770 0D2A  
            __ptext762 1744              __ptext754 089C              __ptext746 004B              __ptext771 0BA8  
            __ptext763 0A07              __ptext755 1781              __ptext747 0C23              __ptext772 1769  
            __ptext764 17BF              __ptext756 0204              __ptext748 0DCE              __ptext773 096D  
            __ptext765 0923              __ptext757 0F3A              __ptext749 17A0              __ptext774 0877  
            __ptext766 0A62              __ptext758 0553              __ptext775 172C              __ptext767 0AC8  
            __ptext759 0CA2              __ptext776 17DF              __ptext768 1738              __ptext777 0000  
            __ptext769 0B34               ?___ftdiv 0078               ?___ftneg 0078               ?___ftmul 0023  
             ?___ftsub 0040               ?___fttol 0070              _lcd_clear 1744              __pstrings 0800  
            _lcd_write 0877              _eval_poly 0C23               ?_reverse 0070         __size_of_floor 00A8  
       __size_of_ldexp 00C4         __size_of_frexp 004A               DelayMs@i 0072             reverse@len 0070  
           reverse@str 007B               _GO_nDONE 00FA             ?_lcd_clear 0070            __stringbase 080F  
           ?_lcd_write 0070             ?_eval_poly 004A               _DelaySec 17BF              lcd_puts@s 0073  
            ftoa@fpart 00B5              ftoa@ipart 00B1            DelaySec@sec 0074       __size_of_DelayMs 0021  
            frexp@eptr 0073              intToStr@d 0023              intToStr@i 0027              intToStr@x 0020  
     __size_of___awdiv 0074       __size_of___ftadd 0146       __size_of___awmod 0066       __size_of___ftdiv 00C6  
     __size_of___ftneg 000C               ___altoft 09BA       __size_of___ftmul 00EE       __size_of___ftsub 001F  
     __size_of___fttol 00A4               ___awtoft 089C               ___ftpack 0BA8               ___lbtoft 1781  
             ___lltoft 08F1               _exp$3538 005E       __size_of_reverse 004D               _lcd_init 0A07  
             _lcd_goto 0006               _lcd_puts 08C6               _pow$3806 00A0               _init_a2d 172C  
             _intToStr 0CA2               _read_a2d 0012          __size_of_main 00E6          __size_of_ftoa 013A  
          ??_lcd_clear 0074            ??_lcd_write 0070               exp@coeff 0810               log@coeff 082E  
           DelayMs@cnt 0071            ??_eval_poly 0050              stringcode 080A               reverse@i 0077  
             reverse@j 0079         ftoa@afterpoint 00AC               stringdir 080A               stringtab 0800  
