

HI-TECH Software PIC LITE Macro Assembler V9.83 build 10920 
                                                                                               Mon Apr 04 18:40:12 2022

HI-TECH Software Omniscient Code Generator (Lite mode) build 10920
     1  0000                     opt subtitle "HI-TECH Software Omniscient Code Generator (Lite mode) build 10920"
     2                           
     3                           opt pagewidth 120
     4                           
     5                           	opt lm
     6                           
     7                           	processor	16F877A
     8                           clrc	macro
     9                           	bcf	3,0
    10  0000                     	endm
    11                           clrz	macro
    12                           	bcf	3,2
    13  0000                     	endm
    14                           setc	macro
    15                           	bsf	3,0
    16  0000                     	endm
    17                           setz	macro
    18                           	bsf	3,2
    19  0000                     	endm
    20                           skipc	macro
    21                           	btfss	3,0
    22  0000                     	endm
    23                           skipz	macro
    24                           	btfss	3,2
    25  0000                     	endm
    26                           skipnc	macro
    27                           	btfsc	3,0
    28  0000                     	endm
    29                           skipnz	macro
    30                           	btfsc	3,2
    31  0000                     	endm
    32  0000                     indf	equ	0
    33  0000                     indf0	equ	0
    34  0002                     pc	equ	2
    35  0002                     pcl	equ	2
    36  0003                     status	equ	3
    37  0004                     fsr	equ	4
    38  0004                     fsr0	equ	4
    39  0001                     c	equ	1
    40  0000                     z	equ	0
    41  000A                     pclath	equ	10
    42                           # 6 "C:\Users\abdal\Desktop\University\Year 4\Second Semester\Real Time Lab\Experiments 
                                 and Codes\todoBZUID\key.c"
    43                           	psect config,class=CONFIG,delta=2 ;#
    44                           # 6 "C:\Users\abdal\Desktop\University\Year 4\Second Semester\Real Time Lab\Experiments 
                                 and Codes\todoBZUID\key.c"
    45  2007  FF7A               	dw 0xFFFF & 0xFFFB & 0xFF7F & 0xFFFE & 0xFFFF ;#
    46                           	FNCALL	_main,_DelayMs
    47                           	FNCALL	_main,_lcd_init
    48                           	FNCALL	_main,_lcd_clear
    49                           	FNCALL	_main,_getkey
    50                           	FNCALL	_main,_putchar
    51                           	FNCALL	_putchar,_lcd_clear
    52                           	FNCALL	_putchar,_START
    53                           	FNCALL	_putchar,_lcd_putch
    54                           	FNCALL	_START,___llmod
    55                           	FNCALL	_START,___wmul
    56                           	FNCALL	_START,___lldiv
    57                           	FNCALL	_START,_lcd_goto
    58                           	FNCALL	_START,___awdiv
    59                           	FNCALL	_START,_lcd_putch
    60                           	FNCALL	_START,___awmod
    61                           	FNCALL	_START,_lcd_puts
    62                           	FNCALL	_lcd_puts,_lcd_write
    63                           	FNCALL	_lcd_goto,_lcd_write
    64                           	FNCALL	_getkey,_DelayMs
    65                           	FNCALL	_getkey,___awdiv
    66                           	FNCALL	_lcd_clear,_lcd_write
    67                           	FNCALL	_lcd_clear,_DelayMs
    68                           	FNCALL	_lcd_init,_DelayMs
    69                           	FNCALL	_lcd_init,_lcd_write
    70                           	FNROOT	_main
    71                           	global	_num
    72                           psect	idataBANK0,class=CODE,space=0,delta=2
    73                           global __pidataBANK0
    74  00D8                     __pidataBANK0:
    75                           	file	"C:\Users\abdal\Desktop\University\Year 4\Second Semester\Real Time Lab\Experiment
                                 s and Codes\todoBZUID\key.c"
    76                           	line	14
    77                           
    78                           ;initializer for _num
    79  00D8  34FC               	retlw	0FCh
    80  00D9  340C               	retlw	0Ch
    81  00DA  3412               	retlw	012h
    82  00DB  3400               	retlw	0
    83                           
    84                           	global	_col
    85                           	global	_pressed_key
    86                           	global	_row
    87                           	global	_str
    88                           	global	_Chkey
    89                           	global	_PORTB
    90  0006                     _PORTB	set	6
    91                           	global	_PORTC
    92  0007                     _PORTC	set	7
    93                           	global	_PORTD
    94  0008                     _PORTD	set	8
    95                           	global	_CARRY
    96  0018                     _CARRY	set	24
    97                           	global	_GIE
    98  005F                     _GIE	set	95
    99                           	global	_RC0
   100  0038                     _RC0	set	56
   101                           	global	_RC1
   102  0039                     _RC1	set	57
   103                           	global	_RC2
   104  003A                     _RC2	set	58
   105                           	global	_RC7
   106  003F                     _RC7	set	63
   107                           	global	_RE0
   108  0048                     _RE0	set	72
   109                           	global	_RE1
   110  0049                     _RE1	set	73
   111                           	global	_RE2
   112  004A                     _RE2	set	74
   113                           	global	_ADCON1
   114  009F                     _ADCON1	set	159
   115                           	global	_TRISB
   116  0086                     _TRISB	set	134
   117                           	global	_TRISC
   118  0087                     _TRISC	set	135
   119                           	global	_TRISD
   120  0088                     _TRISD	set	136
   121                           	global	_TRISE
   122  0089                     _TRISE	set	137
   123                           	global	_nRBPU
   124  040F                     _nRBPU	set	1039
   125                           	global	_EEADR
   126  010D                     _EEADR	set	269
   127                           	global	_EEDATA
   128  010C                     _EEDATA	set	268
   129                           	global	_EECON1
   130  018C                     _EECON1	set	396
   131                           	global	_EECON2
   132  018D                     _EECON2	set	397
   133                           	global	_RD
   134  0C60                     _RD	set	3168
   135                           	global	_WR
   136  0C61                     _WR	set	3169
   137                           	global	_WREN
   138  0C62                     _WREN	set	3170
   139                           psect	strings,class=STRING,delta=2
   140                           global __pstrings
   141  0003                     __pstrings:
   142                           ;	global	stringdir,stringtab,__stringbase
   143  0003                     stringtab:
   144                           ;	String table - string pointers are 1 byte each
   145  0003                     stringcode:stringdir:
      + 0003                     stringdir:	
   146  0003  3000               movlw high(stringdir)
   147  0004  008A               movwf pclath
   148  0005  0804               movf fsr,w
   149  0006  0A84               incf fsr
   150  0007  0782               	addwf pc
   151  0008                     __stringbase:
   152  0008  3400               	retlw	0
   153                           psect	strings
   154                           	
   155  0009                     STR_1:	
   156  0009  3465               	retlw	101	;'e'
   157  000A  3472               	retlw	114	;'r'
   158  000B  3472               	retlw	114	;'r'
   159  000C  346F               	retlw	111	;'o'
   160  000D  3472               	retlw	114	;'r'
   161  000E  3400               	retlw	0
   162                           psect	strings
   163                           	file	"todo.as"
   164                           	line	#
   165                           psect cinit,class=CODE,delta=2
   166                           global start_initialization
   167  0162                     start_initialization:
   168                           
   169                           psect	bssBANK0,class=BANK0,space=1
   170                           global __pbssBANK0
   171  002E                     __pbssBANK0:
   172  002E                     _col:
   173  002E                            ds      2
   174                           
   175  0030                     _pressed_key:
   176  0030                            ds      2
   177                           
   178  0032                     _row:
   179  0032                            ds      2
   180                           
   181  0034                     _str:
   182  0034                            ds      2
   183                           
   184  0036                     _Chkey:
   185  0036                            ds      1
   186                           
   187                           psect	dataBANK0,class=BANK0,space=1
   188                           global __pdataBANK0
   189  0037                     __pdataBANK0:
   190                           	file	"C:\Users\abdal\Desktop\University\Year 4\Second Semester\Real Time Lab\Experiment
                                 s and Codes\todoBZUID\key.c"
   191  0037                     _num:
   192  0037                            ds      4
   193                           
   194                           ; Clear objects allocated to BANK0
   195                           psect cinit,class=CODE,delta=2
   196  0162  01AE               	clrf	((__pbssBANK0)+0)&07Fh
   197  0163  01AF               	clrf	((__pbssBANK0)+1)&07Fh
   198  0164  01B0               	clrf	((__pbssBANK0)+2)&07Fh
   199  0165  01B1               	clrf	((__pbssBANK0)+3)&07Fh
   200  0166  01B2               	clrf	((__pbssBANK0)+4)&07Fh
   201  0167  01B3               	clrf	((__pbssBANK0)+5)&07Fh
   202  0168  01B4               	clrf	((__pbssBANK0)+6)&07Fh
   203  0169  01B5               	clrf	((__pbssBANK0)+7)&07Fh
   204  016A  01B6               	clrf	((__pbssBANK0)+8)&07Fh
   205                           ; Initialize objects allocated to BANK0
   206                           	global __pidataBANK0
   207                           psect cinit,class=CODE,delta=2
   208  016B  120A  118A  20D8   	fcall	__pidataBANK0+0		;fetch initializer
              120A  118A         
   209  0170  00B7               	movwf	__pdataBANK0+0&07fh		
   210  0171  120A  118A  20D9   	fcall	__pidataBANK0+1		;fetch initializer
              120A  118A         
   211  0176  00B8               	movwf	__pdataBANK0+1&07fh		
   212  0177  120A  118A  20DA   	fcall	__pidataBANK0+2		;fetch initializer
              120A  118A         
   213  017C  00B9               	movwf	__pdataBANK0+2&07fh		
   214  017D  120A  118A  20DB   	fcall	__pidataBANK0+3		;fetch initializer
              120A  118A         
   215  0182  00BA               	movwf	__pdataBANK0+3&07fh		
   216                           psect cinit,class=CODE,delta=2
   217                           global end_of_initialization
   218                           
   219                           ;End of C runtime variable initialization code
   220                           
   221  0183                     end_of_initialization:
   222  0183  0183               clrf status
   223  0184  120A  118A  29D7   ljmp _main	;jump to C main() function
   224                           psect	cstackCOMMON,class=COMMON,space=1
   225                           global __pcstackCOMMON
   226  0070                     __pcstackCOMMON:
   227                           	global	?_lcd_init
   228  0070                     ?_lcd_init:	; 0 bytes @ 0x0
   229                           	global	?_lcd_clear
   230  0070                     ?_lcd_clear:	; 0 bytes @ 0x0
   231                           	global	?_getkey
   232  0070                     ?_getkey:	; 0 bytes @ 0x0
   233                           	global	?_putchar
   234  0070                     ?_putchar:	; 0 bytes @ 0x0
   235                           	global	?_START
   236  0070                     ?_START:	; 0 bytes @ 0x0
   237                           	global	?_lcd_putch
   238  0070                     ?_lcd_putch:	; 0 bytes @ 0x0
   239                           	global	??_lcd_putch
   240  0070                     ??_lcd_putch:	; 0 bytes @ 0x0
   241                           	global	?_lcd_goto
   242  0070                     ?_lcd_goto:	; 0 bytes @ 0x0
   243                           	global	?_lcd_puts
   244  0070                     ?_lcd_puts:	; 0 bytes @ 0x0
   245                           	global	?_DelayMs
   246  0070                     ?_DelayMs:	; 0 bytes @ 0x0
   247                           	global	??_DelayMs
   248  0070                     ??_DelayMs:	; 0 bytes @ 0x0
   249                           	global	?_main
   250  0070                     ?_main:	; 0 bytes @ 0x0
   251                           	global	?_lcd_write
   252  0070                     ?_lcd_write:	; 0 bytes @ 0x0
   253                           	global	??_lcd_write
   254  0070                     ??_lcd_write:	; 0 bytes @ 0x0
   255                           	global	?___wmul
   256  0070                     ?___wmul:	; 2 bytes @ 0x0
   257                           	global	?___awdiv
   258  0070                     ?___awdiv:	; 2 bytes @ 0x0
   259                           	global	?___awmod
   260  0070                     ?___awmod:	; 2 bytes @ 0x0
   261                           	global	?___llmod
   262  0070                     ?___llmod:	; 4 bytes @ 0x0
   263                           	global	?___lldiv
   264  0070                     ?___lldiv:	; 4 bytes @ 0x0
   265                           	global	___wmul@multiplier
   266  0070                     ___wmul@multiplier:	; 2 bytes @ 0x0
   267                           	global	___awdiv@divisor
   268  0070                     ___awdiv@divisor:	; 2 bytes @ 0x0
   269                           	global	___awmod@divisor
   270  0070                     ___awmod@divisor:	; 2 bytes @ 0x0
   271                           	global	___llmod@divisor
   272  0070                     ___llmod@divisor:	; 4 bytes @ 0x0
   273                           	global	___lldiv@divisor
   274  0070                     ___lldiv@divisor:	; 4 bytes @ 0x0
   275  0070                     	ds	1
   276                           	global	DelayMs@cnt
   277  0071                     DelayMs@cnt:	; 1 bytes @ 0x1
   278                           	global	lcd_write@_dcnt
   279  0071                     lcd_write@_dcnt:	; 1 bytes @ 0x1
   280                           	global	lcd_putch@_dcnt
   281  0071                     lcd_putch@_dcnt:	; 1 bytes @ 0x1
   282  0071                     	ds	1
   283                           	global	DelayMs@i
   284  0072                     DelayMs@i:	; 1 bytes @ 0x2
   285                           	global	lcd_write@c
   286  0072                     lcd_write@c:	; 1 bytes @ 0x2
   287                           	global	lcd_putch@c
   288  0072                     lcd_putch@c:	; 1 bytes @ 0x2
   289                           	global	___wmul@multiplicand
   290  0072                     ___wmul@multiplicand:	; 2 bytes @ 0x2
   291                           	global	___awdiv@dividend
   292  0072                     ___awdiv@dividend:	; 2 bytes @ 0x2
   293                           	global	___awmod@dividend
   294  0072                     ___awmod@dividend:	; 2 bytes @ 0x2
   295  0072                     	ds	1
   296                           	global	??_lcd_goto
   297  0073                     ??_lcd_goto:	; 0 bytes @ 0x3
   298                           	global	??_lcd_puts
   299  0073                     ??_lcd_puts:	; 0 bytes @ 0x3
   300                           	global	DelayMs@_dcnt
   301  0073                     DelayMs@_dcnt:	; 1 bytes @ 0x3
   302                           	global	lcd_goto@pos
   303  0073                     lcd_goto@pos:	; 1 bytes @ 0x3
   304  0073                     	ds	1
   305                           	global	??_lcd_init
   306  0074                     ??_lcd_init:	; 0 bytes @ 0x4
   307                           	global	??_lcd_clear
   308  0074                     ??_lcd_clear:	; 0 bytes @ 0x4
   309                           	global	??___wmul
   310  0074                     ??___wmul:	; 0 bytes @ 0x4
   311                           	global	??___awdiv
   312  0074                     ??___awdiv:	; 0 bytes @ 0x4
   313                           	global	??___awmod
   314  0074                     ??___awmod:	; 0 bytes @ 0x4
   315                           	global	lcd_puts@s
   316  0074                     lcd_puts@s:	; 1 bytes @ 0x4
   317                           	global	___wmul@product
   318  0074                     ___wmul@product:	; 2 bytes @ 0x4
   319                           	global	___llmod@dividend
   320  0074                     ___llmod@dividend:	; 4 bytes @ 0x4
   321                           	global	___lldiv@dividend
   322  0074                     ___lldiv@dividend:	; 4 bytes @ 0x4
   323  0074                     	ds	1
   324                           	global	lcd_init@_dcnt
   325  0075                     lcd_init@_dcnt:	; 1 bytes @ 0x5
   326                           	global	___awdiv@counter
   327  0075                     ___awdiv@counter:	; 1 bytes @ 0x5
   328                           	global	___awmod@counter
   329  0075                     ___awmod@counter:	; 1 bytes @ 0x5
   330  0075                     	ds	1
   331                           	global	lcd_init@_dcnt_2127
   332  0076                     lcd_init@_dcnt_2127:	; 1 bytes @ 0x6
   333                           	global	___awdiv@sign
   334  0076                     ___awdiv@sign:	; 1 bytes @ 0x6
   335                           	global	___awmod@sign
   336  0076                     ___awmod@sign:	; 1 bytes @ 0x6
   337  0076                     	ds	1
   338                           	global	___awdiv@quotient
   339  0077                     ___awdiv@quotient:	; 2 bytes @ 0x7
   340  0077                     	ds	1
   341                           	global	??___llmod
   342  0078                     ??___llmod:	; 0 bytes @ 0x8
   343                           	global	??___lldiv
   344  0078                     ??___lldiv:	; 0 bytes @ 0x8
   345  0078                     	ds	1
   346                           	global	??_getkey
   347  0079                     ??_getkey:	; 0 bytes @ 0x9
   348                           	global	___llmod@counter
   349  0079                     ___llmod@counter:	; 1 bytes @ 0x9
   350                           	global	___lldiv@quotient
   351  0079                     ___lldiv@quotient:	; 4 bytes @ 0x9
   352  0079                     	ds	4
   353                           	global	___lldiv@counter
   354  007D                     ___lldiv@counter:	; 1 bytes @ 0xD
   355  007D                     	ds	1
   356                           	global	??_putchar
   357  007E                     ??_putchar:	; 0 bytes @ 0xE
   358                           	global	??_START
   359  007E                     ??_START:	; 0 bytes @ 0xE
   360                           psect	cstackBANK0,class=BANK0,space=1
   361                           global __pcstackBANK0
   362  0020                     __pcstackBANK0:
   363                           	global	getkey@flag
   364  0020                     getkey@flag:	; 2 bytes @ 0x0
   365                           	global	START@oddEven
   366  0020                     START@oddEven:	; 2 bytes @ 0x0
   367  0020                     	ds	2
   368                           	global	getkey@colVar
   369  0022                     getkey@colVar:	; 1 bytes @ 0x2
   370                           	global	START@sumLastTow
   371  0022                     START@sumLastTow:	; 2 bytes @ 0x2
   372  0022                     	ds	1
   373                           	global	getkey@rowVar
   374  0023                     getkey@rowVar:	; 1 bytes @ 0x3
   375  0023                     	ds	1
   376                           	global	START@sum
   377  0024                     START@sum:	; 2 bytes @ 0x4
   378  0024                     	ds	2
   379                           	global	START@first_three
   380  0026                     START@first_three:	; 2 bytes @ 0x6
   381  0026                     	ds	2
   382                           	global	START@count
   383  0028                     START@count:	; 2 bytes @ 0x8
   384  0028                     	ds	2
   385                           	global	START@digit
   386  002A                     START@digit:	; 2 bytes @ 0xA
   387  002A                     	ds	2
   388                           	global	putchar@ch
   389  002C                     putchar@ch:	; 1 bytes @ 0xC
   390  002C                     	ds	1
   391                           	global	??_main
   392  002D                     ??_main:	; 0 bytes @ 0xD
   393  002D                     	ds	1
   394 ;;Data sizes: Strings 6, constant 0, data 4, bss 9, persistent 0 stack 0
   395 ;;Auto spaces:   Size  Autos    Used
   396 ;; COMMON          14     14      14
   397 ;; BANK0           80     14      27
   398 ;; BANK1           80      0       0
   399 ;; BANK3           96      0       0
   400 ;; BANK2           96      0       0
   401                           
   402 ;;
   403 ;; Pointer list with targets:
   404                           
   405 ;; ?___awmod	int  size(1) Largest target is 0
   406 ;;
   407 ;; ?___lldiv	unsigned long  size(1) Largest target is 0
   408 ;;
   409 ;; ?___wmul	unsigned int  size(1) Largest target is 0
   410 ;;
   411 ;; ?___llmod	unsigned long  size(1) Largest target is 0
   412 ;;
   413 ;; ?___awdiv	int  size(1) Largest target is 0
   414 ;;
   415 ;; lcd_puts@s	PTR const unsigned char  size(1) Largest target is 6
   416 ;;		 -> STR_1(CODE[6]), 
   417 ;;
   418                           
   419                           
   420 ;;
   421 ;; Critical Paths under _main in COMMON
   422 ;;
   423 ;;   _START->___lldiv
   424 ;;   _lcd_puts->_lcd_write
   425 ;;   _lcd_goto->_lcd_write
   426 ;;   _getkey->___awdiv
   427 ;;   _lcd_clear->_DelayMs
   428 ;;   _lcd_init->_DelayMs
   429 ;;
   430 ;; Critical Paths under _main in BANK0
   431 ;;
   432 ;;   _main->_putchar
   433 ;;   _putchar->_START
   434 ;;
   435 ;; Critical Paths under _main in BANK1
   436 ;;
   437 ;;   None.
   438 ;;
   439 ;; Critical Paths under _main in BANK3
   440 ;;
   441 ;;   None.
   442 ;;
   443 ;; Critical Paths under _main in BANK2
   444 ;;
   445 ;;   None.
   446                           
   447 ;;
   448 ;;Main: autosize = 0, tempsize = 1, incstack = 0, save=0
   449 ;;
   450                           
   451 ;;
   452 ;;Call Graph Tables:
   453 ;;
   454 ;; ---------------------------------------------------------------------------------
   455 ;; (Depth) Function   	        Calls       Base Space   Used Autos Params    Refs
   456 ;; ---------------------------------------------------------------------------------
   457 ;; (0) _main                                                 1     1      0    3333
   458 ;;                                             13 BANK0      1     1      0
   459 ;;                            _DelayMs
   460 ;;                           _lcd_init
   461 ;;                          _lcd_clear
   462 ;;                             _getkey
   463 ;;                            _putchar
   464 ;; ---------------------------------------------------------------------------------
   465 ;; (1) _putchar                                              1     1      0    2415
   466 ;;                                             12 BANK0      1     1      0
   467 ;;                          _lcd_clear
   468 ;;                              _START
   469 ;;                          _lcd_putch
   470 ;; ---------------------------------------------------------------------------------
   471 ;; (2) _START                                               13    13      0    1839
   472 ;;                                              0 BANK0     12    12      0
   473 ;;                            ___llmod
   474 ;;                             ___wmul
   475 ;;                            ___lldiv
   476 ;;                           _lcd_goto
   477 ;;                            ___awdiv
   478 ;;                          _lcd_putch
   479 ;;                            ___awmod
   480 ;;                           _lcd_puts
   481 ;; ---------------------------------------------------------------------------------
   482 ;; (3) _lcd_puts                                             2     2      0     112
   483 ;;                                              3 COMMON     2     2      0
   484 ;;                          _lcd_write
   485 ;; ---------------------------------------------------------------------------------
   486 ;; (3) _lcd_goto                                             1     1      0      89
   487 ;;                                              3 COMMON     1     1      0
   488 ;;                          _lcd_write
   489 ;; ---------------------------------------------------------------------------------
   490 ;; (1) _getkey                                               7     7      0     534
   491 ;;                                              9 COMMON     3     3      0
   492 ;;                                              0 BANK0      4     4      0
   493 ;;                            _DelayMs
   494 ;;                            ___awdiv
   495 ;; ---------------------------------------------------------------------------------
   496 ;; (2) _lcd_clear                                            0     0      0     135
   497 ;;                          _lcd_write
   498 ;;                            _DelayMs
   499 ;; ---------------------------------------------------------------------------------
   500 ;; (1) _lcd_init                                             3     3      0     181
   501 ;;                                              4 COMMON     3     3      0
   502 ;;                            _DelayMs
   503 ;;                          _lcd_write
   504 ;; ---------------------------------------------------------------------------------
   505 ;; (3) ___awmod                                              7     3      4     296
   506 ;;                                              0 COMMON     7     3      4
   507 ;; ---------------------------------------------------------------------------------
   508 ;; (3) ___lldiv                                             14     6      8     162
   509 ;;                                              0 COMMON    14     6      8
   510 ;; ---------------------------------------------------------------------------------
   511 ;; (3) ___llmod                                             10     2      8     159
   512 ;;                                              0 COMMON    10     2      8
   513 ;; ---------------------------------------------------------------------------------
   514 ;; (3) ___awdiv                                              9     5      4     300
   515 ;;                                              0 COMMON     9     5      4
   516 ;; ---------------------------------------------------------------------------------
   517 ;; (3) ___wmul                                               6     2      4      92
   518 ;;                                              0 COMMON     6     2      4
   519 ;; ---------------------------------------------------------------------------------
   520 ;; (4) _lcd_write                                            3     3      0      67
   521 ;;                                              0 COMMON     3     3      0
   522 ;; ---------------------------------------------------------------------------------
   523 ;; (2) _lcd_putch                                            3     3      0      67
   524 ;;                                              0 COMMON     3     3      0
   525 ;; ---------------------------------------------------------------------------------
   526 ;; (3) _DelayMs                                              4     4      0      68
   527 ;;                                              0 COMMON     4     4      0
   528 ;; ---------------------------------------------------------------------------------
   529 ;; Estimated maximum stack depth 4
   530 ;; ---------------------------------------------------------------------------------
   531                           
   532 ;; Call Graph Graphs:
   533                           
   534 ;; _main (ROOT)
   535 ;;   _DelayMs
   536 ;;   _lcd_init
   537 ;;     _DelayMs
   538 ;;     _lcd_write
   539 ;;   _lcd_clear
   540 ;;     _lcd_write
   541 ;;     _DelayMs
   542 ;;   _getkey
   543 ;;     _DelayMs
   544 ;;     ___awdiv
   545 ;;   _putchar
   546 ;;     _lcd_clear
   547 ;;       _lcd_write
   548 ;;       _DelayMs
   549 ;;     _START
   550 ;;       ___llmod
   551 ;;       ___wmul
   552 ;;       ___lldiv
   553 ;;       _lcd_goto
   554 ;;         _lcd_write
   555 ;;       ___awdiv
   556 ;;       _lcd_putch
   557 ;;       ___awmod
   558 ;;       _lcd_puts
   559 ;;         _lcd_write
   560 ;;     _lcd_putch
   561 ;;
   562                           
   563 ;; Address spaces:
   564                           
   565 ;;Name               Size   Autos  Total    Cost      Usage
   566 ;;BANK3               60      0       0       9        0.0%
   567 ;;BITBANK3            60      0       0       8        0.0%
   568 ;;SFR3                 0      0       0       4        0.0%
   569 ;;BITSFR3              0      0       0       4        0.0%
   570 ;;BANK2               60      0       0      11        0.0%
   571 ;;BITBANK2            60      0       0      10        0.0%
   572 ;;SFR2                 0      0       0       5        0.0%
   573 ;;BITSFR2              0      0       0       5        0.0%
   574 ;;SFR1                 0      0       0       2        0.0%
   575 ;;BITSFR1              0      0       0       2        0.0%
   576 ;;BANK1               50      0       0       7        0.0%
   577 ;;BITBANK1            50      0       0       6        0.0%
   578 ;;CODE                 0      0       0       0        0.0%
   579 ;;DATA                 0      0      2D      12        0.0%
   580 ;;ABS                  0      0      29       3        0.0%
   581 ;;NULL                 0      0       0       0        0.0%
   582 ;;STACK                0      0       4       2        0.0%
   583 ;;BANK0               50      E      1B       5       33.8%
   584 ;;BITBANK0            50      0       0       4        0.0%
   585 ;;SFR0                 0      0       0       1        0.0%
   586 ;;BITSFR0              0      0       0       1        0.0%
   587 ;;COMMON               E      E       E       1      100.0%
   588 ;;BITCOMMON            E      0       0       0        0.0%
   589 ;;EEDATA             100      0       0       0        0.0%
   590                           
   591                           	global	_main
   592                           psect	maintext,global,class=CODE,delta=2
   593                           global __pmaintext
   594  01D7                     __pmaintext:
   595                           
   596 ;; *************** function _main *****************
   597 ;; Defined at:
   598 ;;		line 16 in file "C:\Users\abdal\Desktop\University\Year 4\Second Semester\Real Time Lab\Experiments and Codes\todoBZ
       UID\key.c"
   599 ;; Parameters:    Size  Location     Type
   600 ;;		None
   601 ;; Auto vars:     Size  Location     Type
   602 ;;		None
   603 ;; Return value:  Size  Location     Type
   604 ;;		None               void
   605 ;; Registers used:
   606 ;;		wreg, fsr0l, fsr0h, status,2, status,0, btemp+1, pclath, cstack
   607 ;; Tracked objects:
   608 ;;		On entry : 17F/0
   609 ;;		On exit  : 0/0
   610 ;;		Unchanged: 0/0
   611 ;; Data sizes:     COMMON   BANK0   BANK1   BANK3   BANK2
   612 ;;      Params:         0       0       0       0       0
   613 ;;      Locals:         0       0       0       0       0
   614 ;;      Temps:          0       1       0       0       0
   615 ;;      Totals:         0       1       0       0       0
   616 ;;Total ram usage:        1 bytes
   617 ;; Hardware stack levels required when called:    4
   618 ;; This function calls:
   619 ;;		_DelayMs
   620 ;;		_lcd_init
   621 ;;		_lcd_clear
   622 ;;		_getkey
   623 ;;		_putchar
   624 ;; This function is called by:
   625 ;;		Startup code after reset
   626 ;; This function uses a non-reentrant model
   627 ;;
   628                           psect	maintext
   629                           	file	"C:\Users\abdal\Desktop\University\Year 4\Second Semester\Real Time Lab\Experiment
                                 s and Codes\todoBZUID\key.c"
   630                           	line	16
   631                           	global	__size_of_main
   632  0037                     	__size_of_main	equ	__end_of_main-_main
   633                           	
   634  01D7                     _main:	
   635                           	opt	stack 4
   636                           ; Regs used in _main: [wreg-fsr0h+status,2+status,0+btemp+1+pclath+cstack]
   637                           	line	18
   638                           	
   639  01D7                     l4360:	
   640                           ;key.c: 18: nRBPU = 0;
   641  01D7  1683               	bsf	status, 5	;RP0=1, select bank1
   642  01D8  1303               	bcf	status, 6	;RP1=0, select bank1
   643  01D9  1381               	bcf	(1039/8)^080h,(1039)&7
   644                           	line	19
   645                           	
   646  01DA                     l4362:	
   647                           ;key.c: 19: TRISE = 0;
   648  01DA  0189               	clrf	(137)^080h	;volatile
   649                           	line	20
   650                           ;key.c: 20: TRISC = 0;
   651  01DB  0187               	clrf	(135)^080h	;volatile
   652                           	line	21
   653                           ;key.c: 21: TRISD = 0;
   654  01DC  0188               	clrf	(136)^080h	;volatile
   655                           	line	22
   656                           	
   657  01DD                     l4364:	
   658                           ;key.c: 22: ADCON1 = 7;
   659  01DD  3007               	movlw	(07h)
   660  01DE  009F               	movwf	(159)^080h	;volatile
   661                           	line	23
   662                           	
   663  01DF                     l4366:	
   664                           ;key.c: 23: RE2 = 0;
   665  01DF  1283               	bcf	status, 5	;RP0=0, select bank0
   666  01E0  1303               	bcf	status, 6	;RP1=0, select bank0
   667  01E1  1109               	bcf	(74/8),(74)&7
   668                           	line	24
   669                           	
   670  01E2                     l4368:	
   671                           ;key.c: 24: PORTC = 0;
   672  01E2  0187               	clrf	(7)	;volatile
   673                           	line	25
   674                           	
   675  01E3                     l4370:	
   676                           ;key.c: 25: DelayMs(100);
   677  01E3  3064               	movlw	(064h)
   678  01E4  120A  118A  20F8   	fcall	_DelayMs
              120A  118A         
   679                           	line	26
   680                           	
   681  01E9                     l4372:	
   682                           ;key.c: 26: lcd_init();
   683  01E9  120A  118A  220E   	fcall	_lcd_init
              120A  118A         
   684                           	line	27
   685                           	
   686  01EE                     l4374:	
   687                           ;key.c: 27: lcd_clear();
   688  01EE  120A  118A  20E8   	fcall	_lcd_clear
              120A  118A         
   689  01F3  29F4               	goto	l4376
   690                           	line	30
   691                           ;key.c: 30: while(1)
   692                           	
   693  01F4                     l725:	
   694                           	line	32
   695                           	
   696  01F4                     l4376:	
   697                           ;key.c: 31: {
   698                           ;key.c: 32: getkey();
   699  01F4  120A  118A  251B   	fcall	_getkey
              120A  118A         
   700                           	line	33
   701                           	
   702  01F9                     l4378:	
   703                           ;key.c: 33: Chkey = (char) pressed_key;
   704  01F9  1283               	bcf	status, 5	;RP0=0, select bank0
   705  01FA  1303               	bcf	status, 6	;RP1=0, select bank0
   706  01FB  0830               	movf	(_pressed_key),w
   707  01FC  00AD               	movwf	(??_main+0)+0
   708  01FD  082D               	movf	(??_main+0)+0,w
   709  01FE  00B6               	movwf	(_Chkey)
   710                           	line	34
   711                           	
   712  01FF                     l4380:	
   713                           ;key.c: 34: Chkey += 48;
   714  01FF  3030               	movlw	(030h)
   715  0200  00AD               	movwf	(??_main+0)+0
   716  0201  082D               	movf	(??_main+0)+0,w
   717  0202  07B6               	addwf	(_Chkey),f
   718                           	line	35
   719                           	
   720  0203                     l4382:	
   721                           ;key.c: 35: putchar((char)Chkey);
   722  0203  0836               	movf	(_Chkey),w
   723  0204  120A  118A  240D   	fcall	_putchar
              120A  118A         
   724  0209  29F4               	goto	l4376
   725                           	line	36
   726                           	
   727  020A                     l726:	
   728                           	line	30
   729  020A  29F4               	goto	l4376
   730                           	
   731  020B                     l727:	
   732                           	line	37
   733                           	
   734  020B                     l728:	
   735                           	global	start
   736  020B  120A  118A  2800   	ljmp	start
   737                           	opt stack 0
   738                           GLOBAL	__end_of_main
   739  020E                     	__end_of_main:
   740 ;; =============== function _main ends ============
   741                           
   742                           	signat	_main,88
   743                           	global	_putchar
   744                           psect	text354,local,class=CODE,delta=2
   745                           global __ptext354
   746  040D                     __ptext354:
   747                           
   748 ;; *************** function _putchar *****************
   749 ;; Defined at:
   750 ;;		line 120 in file "C:\Users\abdal\Desktop\University\Year 4\Second Semester\Real Time Lab\Experiments and Codes\todoB
       ZUID\key.c"
   751 ;; Parameters:    Size  Location     Type
   752 ;;  ch              1    wreg     unsigned char 
   753 ;; Auto vars:     Size  Location     Type
   754 ;;  ch              1   12[BANK0 ] unsigned char 
   755 ;; Return value:  Size  Location     Type
   756 ;;		None               void
   757 ;; Registers used:
   758 ;;		wreg, fsr0l, fsr0h, status,2, status,0, btemp+1, pclath, cstack
   759 ;; Tracked objects:
   760 ;;		On entry : 0/0
   761 ;;		On exit  : 0/0
   762 ;;		Unchanged: 0/0
   763 ;; Data sizes:     COMMON   BANK0   BANK1   BANK3   BANK2
   764 ;;      Params:         0       0       0       0       0
   765 ;;      Locals:         0       1       0       0       0
   766 ;;      Temps:          0       0       0       0       0
   767 ;;      Totals:         0       1       0       0       0
   768 ;;Total ram usage:        1 bytes
   769 ;; Hardware stack levels used:    1
   770 ;; Hardware stack levels required when called:    3
   771 ;; This function calls:
   772 ;;		_lcd_clear
   773 ;;		_START
   774 ;;		_lcd_putch
   775 ;; This function is called by:
   776 ;;		_main
   777 ;; This function uses a non-reentrant model
   778 ;;
   779                           psect	text354
   780                           	file	"C:\Users\abdal\Desktop\University\Year 4\Second Semester\Real Time Lab\Experiment
                                 s and Codes\todoBZUID\key.c"
   781                           	line	120
   782                           	global	__size_of_putchar
   783  010E                     	__size_of_putchar	equ	__end_of_putchar-_putchar
   784                           	
   785  040D                     _putchar:	
   786                           	opt	stack 4
   787                           ; Regs used in _putchar: [wreg-fsr0h+status,2+status,0+btemp+1+pclath+cstack]
   788                           ;putchar@ch stored from wreg
   789                           	line	122
   790  040D  1283               	bcf	status, 5	;RP0=0, select bank0
   791  040E  1303               	bcf	status, 6	;RP1=0, select bank0
   792  040F  00AC               	movwf	(putchar@ch)
   793                           	
   794  0410                     l4292:	
   795                           ;key.c: 122: if(ch=='1')
   796  0410  082C               	movf	(putchar@ch),w
   797  0411  3A31               	xorlw	031h
   798  0412  1D03               	skipz
   799  0413  2C15               	goto	u3461
   800  0414  2C16               	goto	u3460
   801  0415                     u3461:
   802  0415  2C21               	goto	l4298
   803  0416                     u3460:
   804                           	line	124
   805                           	
   806  0416                     l4294:	
   807                           ;key.c: 123: {
   808                           ;key.c: 124: lcd_clear();
   809  0416  120A  118A  20E8   	fcall	_lcd_clear
              120A  118A         
   810                           	line	125
   811                           	
   812  041B                     l4296:	
   813                           ;key.c: 125: START();
   814  041B  120A  118A  264E   	fcall	_START
              120A  118A         
   815                           	line	126
   816                           ;key.c: 126: }
   817  0420  2D1A               	goto	l789
   818                           	line	127
   819                           	
   820  0421                     l757:	
   821                           	
   822  0421                     l4298:	
   823                           ;key.c: 127: else if(ch=='2')
   824  0421  1283               	bcf	status, 5	;RP0=0, select bank0
   825  0422  1303               	bcf	status, 6	;RP1=0, select bank0
   826  0423  082C               	movf	(putchar@ch),w
   827  0424  3A32               	xorlw	032h
   828  0425  1D03               	skipz
   829  0426  2C28               	goto	u3471
   830  0427  2C29               	goto	u3470
   831  0428                     u3471:
   832  0428  2C30               	goto	l4302
   833  0429                     u3470:
   834                           	line	129
   835                           	
   836  0429                     l4300:	
   837                           ;key.c: 128: {
   838                           ;key.c: 129: lcd_putch('1');
   839  0429  3031               	movlw	(031h)
   840  042A  120A  118A  2187   	fcall	_lcd_putch
              120A  118A         
   841                           	line	130
   842                           ;key.c: 130: }
   843  042F  2D1A               	goto	l789
   844                           	line	131
   845                           	
   846  0430                     l759:	
   847                           	
   848  0430                     l4302:	
   849                           ;key.c: 131: else if(ch=='3')
   850  0430  1283               	bcf	status, 5	;RP0=0, select bank0
   851  0431  1303               	bcf	status, 6	;RP1=0, select bank0
   852  0432  082C               	movf	(putchar@ch),w
   853  0433  3A33               	xorlw	033h
   854  0434  1D03               	skipz
   855  0435  2C37               	goto	u3481
   856  0436  2C38               	goto	u3480
   857  0437                     u3481:
   858  0437  2C3F               	goto	l4306
   859  0438                     u3480:
   860                           	line	133
   861                           	
   862  0438                     l4304:	
   863                           ;key.c: 132: {
   864                           ;key.c: 133: lcd_putch('4');
   865  0438  3034               	movlw	(034h)
   866  0439  120A  118A  2187   	fcall	_lcd_putch
              120A  118A         
   867                           	line	134
   868                           ;key.c: 134: }
   869  043E  2D1A               	goto	l789
   870                           	line	135
   871                           	
   872  043F                     l761:	
   873                           	
   874  043F                     l4306:	
   875                           ;key.c: 135: else if(ch=='4')
   876  043F  1283               	bcf	status, 5	;RP0=0, select bank0
   877  0440  1303               	bcf	status, 6	;RP1=0, select bank0
   878  0441  082C               	movf	(putchar@ch),w
   879  0442  3A34               	xorlw	034h
   880  0443  1D03               	skipz
   881  0444  2C46               	goto	u3491
   882  0445  2C47               	goto	u3490
   883  0446                     u3491:
   884  0446  2C4E               	goto	l4310
   885  0447                     u3490:
   886                           	line	137
   887                           	
   888  0447                     l4308:	
   889                           ;key.c: 136: {
   890                           ;key.c: 137: lcd_putch('7');
   891  0447  3037               	movlw	(037h)
   892  0448  120A  118A  2187   	fcall	_lcd_putch
              120A  118A         
   893                           	line	138
   894                           ;key.c: 138: }
   895  044D  2D1A               	goto	l789
   896                           	line	139
   897                           	
   898  044E                     l763:	
   899                           	
   900  044E                     l4310:	
   901                           ;key.c: 139: else if(ch=='5')
   902  044E  1283               	bcf	status, 5	;RP0=0, select bank0
   903  044F  1303               	bcf	status, 6	;RP1=0, select bank0
   904  0450  082C               	movf	(putchar@ch),w
   905  0451  3A35               	xorlw	035h
   906  0452  1D03               	skipz
   907  0453  2C55               	goto	u3501
   908  0454  2C56               	goto	u3500
   909  0455                     u3501:
   910  0455  2C5D               	goto	l4314
   911  0456                     u3500:
   912                           	line	141
   913                           	
   914  0456                     l4312:	
   915                           ;key.c: 140: {
   916                           ;key.c: 141: lcd_putch('0');
   917  0456  3030               	movlw	(030h)
   918  0457  120A  118A  2187   	fcall	_lcd_putch
              120A  118A         
   919                           	line	142
   920                           ;key.c: 142: }
   921  045C  2D1A               	goto	l789
   922                           	line	143
   923                           	
   924  045D                     l765:	
   925                           	
   926  045D                     l4314:	
   927                           ;key.c: 143: else if(ch=='6')
   928  045D  1283               	bcf	status, 5	;RP0=0, select bank0
   929  045E  1303               	bcf	status, 6	;RP1=0, select bank0
   930  045F  082C               	movf	(putchar@ch),w
   931  0460  3A36               	xorlw	036h
   932  0461  1D03               	skipz
   933  0462  2C64               	goto	u3511
   934  0463  2C65               	goto	u3510
   935  0464                     u3511:
   936  0464  2C6C               	goto	l4318
   937  0465                     u3510:
   938                           	line	145
   939                           	
   940  0465                     l4316:	
   941                           ;key.c: 144: {
   942                           ;key.c: 145: lcd_putch('2');
   943  0465  3032               	movlw	(032h)
   944  0466  120A  118A  2187   	fcall	_lcd_putch
              120A  118A         
   945                           	line	146
   946                           ;key.c: 146: }
   947  046B  2D1A               	goto	l789
   948                           	line	147
   949                           	
   950  046C                     l767:	
   951                           	
   952  046C                     l4318:	
   953                           ;key.c: 147: else if(ch=='7')
   954  046C  1283               	bcf	status, 5	;RP0=0, select bank0
   955  046D  1303               	bcf	status, 6	;RP1=0, select bank0
   956  046E  082C               	movf	(putchar@ch),w
   957  046F  3A37               	xorlw	037h
   958  0470  1D03               	skipz
   959  0471  2C73               	goto	u3521
   960  0472  2C74               	goto	u3520
   961  0473                     u3521:
   962  0473  2C7B               	goto	l4322
   963  0474                     u3520:
   964                           	line	149
   965                           	
   966  0474                     l4320:	
   967                           ;key.c: 148: {
   968                           ;key.c: 149: lcd_putch('5');
   969  0474  3035               	movlw	(035h)
   970  0475  120A  118A  2187   	fcall	_lcd_putch
              120A  118A         
   971                           	line	150
   972                           ;key.c: 150: }
   973  047A  2D1A               	goto	l789
   974                           	line	151
   975                           	
   976  047B                     l769:	
   977                           	
   978  047B                     l4322:	
   979                           ;key.c: 151: else if(ch=='8')
   980  047B  1283               	bcf	status, 5	;RP0=0, select bank0
   981  047C  1303               	bcf	status, 6	;RP1=0, select bank0
   982  047D  082C               	movf	(putchar@ch),w
   983  047E  3A38               	xorlw	038h
   984  047F  1D03               	skipz
   985  0480  2C82               	goto	u3531
   986  0481  2C83               	goto	u3530
   987  0482                     u3531:
   988  0482  2C8A               	goto	l4326
   989  0483                     u3530:
   990                           	line	153
   991                           	
   992  0483                     l4324:	
   993                           ;key.c: 152: {
   994                           ;key.c: 153: lcd_putch('8');
   995  0483  3038               	movlw	(038h)
   996  0484  120A  118A  2187   	fcall	_lcd_putch
              120A  118A         
   997                           	line	154
   998                           ;key.c: 154: }
   999  0489  2D1A               	goto	l789
  1000                           	line	155
  1001                           	
  1002  048A                     l771:	
  1003                           	
  1004  048A                     l4326:	
  1005                           ;key.c: 155: else if(ch=='9')
  1006  048A  1283               	bcf	status, 5	;RP0=0, select bank0
  1007  048B  1303               	bcf	status, 6	;RP1=0, select bank0
  1008  048C  082C               	movf	(putchar@ch),w
  1009  048D  3A39               	xorlw	039h
  1010  048E  1D03               	skipz
  1011  048F  2C91               	goto	u3541
  1012  0490  2C92               	goto	u3540
  1013  0491                     u3541:
  1014  0491  2C99               	goto	l4330
  1015  0492                     u3540:
  1016                           	line	157
  1017                           	
  1018  0492                     l4328:	
  1019                           ;key.c: 156: {
  1020                           ;key.c: 157: lcd_putch('=');
  1021  0492  303D               	movlw	(03Dh)
  1022  0493  120A  118A  2187   	fcall	_lcd_putch
              120A  118A         
  1023                           	line	158
  1024                           ;key.c: 158: }
  1025  0498  2D1A               	goto	l789
  1026                           	line	159
  1027                           	
  1028  0499                     l773:	
  1029                           	
  1030  0499                     l4330:	
  1031                           ;key.c: 159: else if(ch==':')
  1032  0499  1283               	bcf	status, 5	;RP0=0, select bank0
  1033  049A  1303               	bcf	status, 6	;RP1=0, select bank0
  1034  049B  082C               	movf	(putchar@ch),w
  1035  049C  3A3A               	xorlw	03Ah
  1036  049D  1D03               	skipz
  1037  049E  2CA0               	goto	u3551
  1038  049F  2CA1               	goto	u3550
  1039  04A0                     u3551:
  1040  04A0  2CA8               	goto	l4334
  1041  04A1                     u3550:
  1042                           	line	161
  1043                           	
  1044  04A1                     l4332:	
  1045                           ;key.c: 160: {
  1046                           ;key.c: 161: lcd_putch('3');
  1047  04A1  3033               	movlw	(033h)
  1048  04A2  120A  118A  2187   	fcall	_lcd_putch
              120A  118A         
  1049                           	line	162
  1050                           ;key.c: 162: }
  1051  04A7  2D1A               	goto	l789
  1052                           	line	163
  1053                           	
  1054  04A8                     l775:	
  1055                           	
  1056  04A8                     l4334:	
  1057                           ;key.c: 163: else if(ch==';')
  1058  04A8  1283               	bcf	status, 5	;RP0=0, select bank0
  1059  04A9  1303               	bcf	status, 6	;RP1=0, select bank0
  1060  04AA  082C               	movf	(putchar@ch),w
  1061  04AB  3A3B               	xorlw	03Bh
  1062  04AC  1D03               	skipz
  1063  04AD  2CAF               	goto	u3561
  1064  04AE  2CB0               	goto	u3560
  1065  04AF                     u3561:
  1066  04AF  2CB7               	goto	l4338
  1067  04B0                     u3560:
  1068                           	line	165
  1069                           	
  1070  04B0                     l4336:	
  1071                           ;key.c: 164: {
  1072                           ;key.c: 165: lcd_putch('6');
  1073  04B0  3036               	movlw	(036h)
  1074  04B1  120A  118A  2187   	fcall	_lcd_putch
              120A  118A         
  1075                           	line	166
  1076                           ;key.c: 166: }
  1077  04B6  2D1A               	goto	l789
  1078                           	line	167
  1079                           	
  1080  04B7                     l777:	
  1081                           	
  1082  04B7                     l4338:	
  1083                           ;key.c: 167: else if(ch=='<')
  1084  04B7  1283               	bcf	status, 5	;RP0=0, select bank0
  1085  04B8  1303               	bcf	status, 6	;RP1=0, select bank0
  1086  04B9  082C               	movf	(putchar@ch),w
  1087  04BA  3A3C               	xorlw	03Ch
  1088  04BB  1D03               	skipz
  1089  04BC  2CBE               	goto	u3571
  1090  04BD  2CBF               	goto	u3570
  1091  04BE                     u3571:
  1092  04BE  2CC6               	goto	l4342
  1093  04BF                     u3570:
  1094                           	line	169
  1095                           	
  1096  04BF                     l4340:	
  1097                           ;key.c: 168: {
  1098                           ;key.c: 169: lcd_putch('9');
  1099  04BF  3039               	movlw	(039h)
  1100  04C0  120A  118A  2187   	fcall	_lcd_putch
              120A  118A         
  1101                           	line	170
  1102                           ;key.c: 170: }
  1103  04C5  2D1A               	goto	l789
  1104                           	line	171
  1105                           	
  1106  04C6                     l779:	
  1107                           	
  1108  04C6                     l4342:	
  1109                           ;key.c: 171: else if(ch=='=')
  1110  04C6  1283               	bcf	status, 5	;RP0=0, select bank0
  1111  04C7  1303               	bcf	status, 6	;RP1=0, select bank0
  1112  04C8  082C               	movf	(putchar@ch),w
  1113  04C9  3A3D               	xorlw	03Dh
  1114  04CA  1D03               	skipz
  1115  04CB  2CCD               	goto	u3581
  1116  04CC  2CCE               	goto	u3580
  1117  04CD                     u3581:
  1118  04CD  2CD5               	goto	l4346
  1119  04CE                     u3580:
  1120                           	line	173
  1121                           	
  1122  04CE                     l4344:	
  1123                           ;key.c: 172: {
  1124                           ;key.c: 173: lcd_putch('+');
  1125  04CE  302B               	movlw	(02Bh)
  1126  04CF  120A  118A  2187   	fcall	_lcd_putch
              120A  118A         
  1127                           	line	174
  1128                           ;key.c: 174: }
  1129  04D4  2D1A               	goto	l789
  1130                           	line	175
  1131                           	
  1132  04D5                     l781:	
  1133                           	
  1134  04D5                     l4346:	
  1135                           ;key.c: 175: else if(ch=='>')
  1136  04D5  1283               	bcf	status, 5	;RP0=0, select bank0
  1137  04D6  1303               	bcf	status, 6	;RP1=0, select bank0
  1138  04D7  082C               	movf	(putchar@ch),w
  1139  04D8  3A3E               	xorlw	03Eh
  1140  04D9  1D03               	skipz
  1141  04DA  2CDC               	goto	u3591
  1142  04DB  2CDD               	goto	u3590
  1143  04DC                     u3591:
  1144  04DC  2CE4               	goto	l4350
  1145  04DD                     u3590:
  1146                           	line	177
  1147                           	
  1148  04DD                     l4348:	
  1149                           ;key.c: 176: {
  1150                           ;key.c: 177: lcd_putch('-');
  1151  04DD  302D               	movlw	(02Dh)
  1152  04DE  120A  118A  2187   	fcall	_lcd_putch
              120A  118A         
  1153                           	line	178
  1154                           ;key.c: 178: }
  1155  04E3  2D1A               	goto	l789
  1156                           	line	179
  1157                           	
  1158  04E4                     l783:	
  1159                           	
  1160  04E4                     l4350:	
  1161                           ;key.c: 179: else if(ch=='?')
  1162  04E4  1283               	bcf	status, 5	;RP0=0, select bank0
  1163  04E5  1303               	bcf	status, 6	;RP1=0, select bank0
  1164  04E6  082C               	movf	(putchar@ch),w
  1165  04E7  3A3F               	xorlw	03Fh
  1166  04E8  1D03               	skipz
  1167  04E9  2CEB               	goto	u3601
  1168  04EA  2CEC               	goto	u3600
  1169  04EB                     u3601:
  1170  04EB  2CF3               	goto	l4354
  1171  04EC                     u3600:
  1172                           	line	181
  1173                           	
  1174  04EC                     l4352:	
  1175                           ;key.c: 180: {
  1176                           ;key.c: 181: lcd_putch('x');
  1177  04EC  3078               	movlw	(078h)
  1178  04ED  120A  118A  2187   	fcall	_lcd_putch
              120A  118A         
  1179                           	line	182
  1180                           ;key.c: 182: }
  1181  04F2  2D1A               	goto	l789
  1182                           	line	183
  1183                           	
  1184  04F3                     l785:	
  1185                           	
  1186  04F3                     l4354:	
  1187                           ;key.c: 183: else if(ch=='@')
  1188  04F3  1283               	bcf	status, 5	;RP0=0, select bank0
  1189  04F4  1303               	bcf	status, 6	;RP1=0, select bank0
  1190  04F5  082C               	movf	(putchar@ch),w
  1191  04F6  3A40               	xorlw	040h
  1192  04F7  1D03               	skipz
  1193  04F8  2CFA               	goto	u3611
  1194  04F9  2CFB               	goto	u3610
  1195  04FA                     u3611:
  1196  04FA  2D02               	goto	l4358
  1197  04FB                     u3610:
  1198                           	line	185
  1199                           	
  1200  04FB                     l4356:	
  1201                           ;key.c: 184: {
  1202                           ;key.c: 185: lcd_putch('/');
  1203  04FB  302F               	movlw	(02Fh)
  1204  04FC  120A  118A  2187   	fcall	_lcd_putch
              120A  118A         
  1205                           	line	186
  1206                           ;key.c: 186: }
  1207  0501  2D1A               	goto	l789
  1208                           	line	187
  1209                           	
  1210  0502                     l787:	
  1211                           	line	188
  1212                           	
  1213  0502                     l4358:	
  1214                           ;key.c: 187: else
  1215                           ;key.c: 188: lcd_putch(ch);
  1216  0502  1283               	bcf	status, 5	;RP0=0, select bank0
  1217  0503  1303               	bcf	status, 6	;RP1=0, select bank0
  1218  0504  082C               	movf	(putchar@ch),w
  1219  0505  120A  118A  2187   	fcall	_lcd_putch
              120A  118A         
  1220  050A  2D1A               	goto	l789
  1221                           	
  1222  050B                     l788:	
  1223  050B  2D1A               	goto	l789
  1224                           	
  1225  050C                     l786:	
  1226  050C  2D1A               	goto	l789
  1227                           	
  1228  050D                     l784:	
  1229  050D  2D1A               	goto	l789
  1230                           	
  1231  050E                     l782:	
  1232  050E  2D1A               	goto	l789
  1233                           	
  1234  050F                     l780:	
  1235  050F  2D1A               	goto	l789
  1236                           	
  1237  0510                     l778:	
  1238  0510  2D1A               	goto	l789
  1239                           	
  1240  0511                     l776:	
  1241  0511  2D1A               	goto	l789
  1242                           	
  1243  0512                     l774:	
  1244  0512  2D1A               	goto	l789
  1245                           	
  1246  0513                     l772:	
  1247  0513  2D1A               	goto	l789
  1248                           	
  1249  0514                     l770:	
  1250  0514  2D1A               	goto	l789
  1251                           	
  1252  0515                     l768:	
  1253  0515  2D1A               	goto	l789
  1254                           	
  1255  0516                     l766:	
  1256  0516  2D1A               	goto	l789
  1257                           	
  1258  0517                     l764:	
  1259  0517  2D1A               	goto	l789
  1260                           	
  1261  0518                     l762:	
  1262  0518  2D1A               	goto	l789
  1263                           	
  1264  0519                     l760:	
  1265  0519  2D1A               	goto	l789
  1266                           	
  1267  051A                     l758:	
  1268                           	line	189
  1269                           	
  1270  051A                     l789:	
  1271  051A  0008               	return
  1272                           	opt stack 0
  1273                           GLOBAL	__end_of_putchar
  1274  051B                     	__end_of_putchar:
  1275 ;; =============== function _putchar ends ============
  1276                           
  1277                           	signat	_putchar,4216
  1278                           	global	_START
  1279                           psect	text355,local,class=CODE,delta=2
  1280                           global __ptext355
  1281  064E                     __ptext355:
  1282                           
  1283 ;; *************** function _START *****************
  1284 ;; Defined at:
  1285 ;;		line 190 in file "C:\Users\abdal\Desktop\University\Year 4\Second Semester\Real Time Lab\Experiments and Codes\todoB
       ZUID\key.c"
  1286 ;; Parameters:    Size  Location     Type
  1287 ;;		None
  1288 ;; Auto vars:     Size  Location     Type
  1289 ;;  digit           2   10[BANK0 ] int 
  1290 ;;  count           2    8[BANK0 ] int 
  1291 ;;  first_three     2    6[BANK0 ] int 
  1292 ;;  sum             2    4[BANK0 ] int 
  1293 ;;  sumLastTow      2    2[BANK0 ] int 
  1294 ;;  oddEven         2    0[BANK0 ] int 
  1295 ;;  ch              1    0        unsigned char 
  1296 ;; Return value:  Size  Location     Type
  1297 ;;		None               void
  1298 ;; Registers used:
  1299 ;;		wreg, fsr0l, fsr0h, status,2, status,0, btemp+1, pclath, cstack
  1300 ;; Tracked objects:
  1301 ;;		On entry : 0/0
  1302 ;;		On exit  : 0/0
  1303 ;;		Unchanged: 0/0
  1304 ;; Data sizes:     COMMON   BANK0   BANK1   BANK3   BANK2
  1305 ;;      Params:         0       0       0       0       0
  1306 ;;      Locals:         0      12       0       0       0
  1307 ;;      Temps:          0       0       0       0       0
  1308 ;;      Totals:         0      12       0       0       0
  1309 ;;Total ram usage:       12 bytes
  1310 ;; Hardware stack levels used:    1
  1311 ;; Hardware stack levels required when called:    2
  1312 ;; This function calls:
  1313 ;;		___llmod
  1314 ;;		___wmul
  1315 ;;		___lldiv
  1316 ;;		_lcd_goto
  1317 ;;		___awdiv
  1318 ;;		_lcd_putch
  1319 ;;		___awmod
  1320 ;;		_lcd_puts
  1321 ;; This function is called by:
  1322 ;;		_putchar
  1323 ;; This function uses a non-reentrant model
  1324 ;;
  1325                           psect	text355
  1326                           	file	"C:\Users\abdal\Desktop\University\Year 4\Second Semester\Real Time Lab\Experiment
                                 s and Codes\todoBZUID\key.c"
  1327                           	line	190
  1328                           	global	__size_of_START
  1329  01B2                     	__size_of_START	equ	__end_of_START-_START
  1330                           	
  1331  064E                     _START:	
  1332                           	opt	stack 4
  1333                           ; Regs used in _START: [wreg-fsr0h+status,2+status,0+btemp+1+pclath+cstack]
  1334                           	line	199
  1335                           	
  1336  064E                     l4240:	
  1337                           ;key.c: 191: int digit;
  1338                           ;key.c: 192: int count;
  1339                           ;key.c: 193: char ch;
  1340                           ;key.c: 194: int first_three;
  1341                           ;key.c: 195: int sum;
  1342                           ;key.c: 196: int oddEven;
  1343                           ;key.c: 197: int sumLastTow;
  1344                           ;key.c: 199: while(num != 0){
  1345  064E  2F38               	goto	l4274
  1346                           	
  1347  064F                     l793:	
  1348                           	line	200
  1349                           	
  1350  064F                     l4242:	
  1351                           ;key.c: 200: count++;
  1352  064F  3001               	movlw	low(01h)
  1353  0650  1283               	bcf	status, 5	;RP0=0, select bank0
  1354  0651  1303               	bcf	status, 6	;RP1=0, select bank0
  1355  0652  07A8               	addwf	(START@count),f
  1356  0653  1803               	skipnc
  1357  0654  0AA9               	incf	(START@count+1),f
  1358  0655  3000               	movlw	high(01h)
  1359  0656  07A9               	addwf	(START@count+1),f
  1360                           	line	203
  1361                           	
  1362  0657                     l4244:	
  1363                           ;key.c: 203: digit = num % 10;
  1364  0657  3000               	movlw	0
  1365  0658  00F3               	movwf	(?___llmod+3)
  1366  0659  3000               	movlw	0
  1367  065A  00F2               	movwf	(?___llmod+2)
  1368  065B  3000               	movlw	0
  1369  065C  00F1               	movwf	(?___llmod+1)
  1370  065D  300A               	movlw	0Ah
  1371  065E  00F0               	movwf	(?___llmod)
  1372                           
  1373  065F  083A               	movf	(_num+3),w
  1374  0660  00F7               	movwf	3+(?___llmod)+04h
  1375  0661  0839               	movf	(_num+2),w
  1376  0662  00F6               	movwf	2+(?___llmod)+04h
  1377  0663  0838               	movf	(_num+1),w
  1378  0664  00F5               	movwf	1+(?___llmod)+04h
  1379  0665  0837               	movf	(_num),w
  1380  0666  00F4               	movwf	0+(?___llmod)+04h
  1381                           
  1382  0667  120A  118A  2269   	fcall	___llmod
              120A  118A         
  1383  066C  0871               	movf	1+(((0+(?___llmod)))),w
  1384  066D  1283               	bcf	status, 5	;RP0=0, select bank0
  1385  066E  1303               	bcf	status, 6	;RP1=0, select bank0
  1386  066F  01AB               	clrf	(START@digit+1)
  1387  0670  07AB               	addwf	(START@digit+1)
  1388  0671  0870               	movf	0+(((0+(?___llmod)))),w
  1389  0672  01AA               	clrf	(START@digit)
  1390  0673  07AA               	addwf	(START@digit)
  1391                           
  1392                           	line	204
  1393                           	
  1394  0674                     l4246:	
  1395                           ;key.c: 204: if(count == 5){
  1396  0674  3005               	movlw	05h
  1397  0675  0628               	xorwf	(START@count),w
  1398  0676  0429               	iorwf	(START@count+1),w
  1399  0677  1D03               	skipz
  1400  0678  2E7A               	goto	u3351
  1401  0679  2E7B               	goto	u3350
  1402  067A                     u3351:
  1403  067A  2E87               	goto	l794
  1404  067B                     u3350:
  1405                           	line	205
  1406                           	
  1407  067B                     l4248:	
  1408                           ;key.c: 205: first_three += digit;
  1409  067B  082A               	movf	(START@digit),w
  1410  067C  07A6               	addwf	(START@first_three),f
  1411  067D  1803               	skipnc
  1412  067E  0AA7               	incf	(START@first_three+1),f
  1413  067F  082B               	movf	(START@digit+1),w
  1414  0680  07A7               	addwf	(START@first_three+1),f
  1415                           	line	206
  1416                           ;key.c: 206: sum += digit;
  1417  0681  082A               	movf	(START@digit),w
  1418  0682  07A4               	addwf	(START@sum),f
  1419  0683  1803               	skipnc
  1420  0684  0AA5               	incf	(START@sum+1),f
  1421  0685  082B               	movf	(START@digit+1),w
  1422  0686  07A5               	addwf	(START@sum+1),f
  1423                           	line	207
  1424                           	
  1425  0687                     l794:	
  1426                           	line	208
  1427                           ;key.c: 207: }
  1428                           ;key.c: 208: if(count == 6){
  1429  0687  3006               	movlw	06h
  1430  0688  0628               	xorwf	(START@count),w
  1431  0689  0429               	iorwf	(START@count+1),w
  1432  068A  1D03               	skipz
  1433  068B  2E8D               	goto	u3361
  1434  068C  2E8E               	goto	u3360
  1435  068D                     u3361:
  1436  068D  2EAC               	goto	l4254
  1437  068E                     u3360:
  1438                           	line	209
  1439                           	
  1440  068E                     l4250:	
  1441                           ;key.c: 209: first_three += digit *10;
  1442  068E  082B               	movf	(START@digit+1),w
  1443  068F  01F1               	clrf	(?___wmul+1)
  1444  0690  07F1               	addwf	(?___wmul+1)
  1445  0691  082A               	movf	(START@digit),w
  1446  0692  01F0               	clrf	(?___wmul)
  1447  0693  07F0               	addwf	(?___wmul)
  1448                           
  1449  0694  300A               	movlw	low(0Ah)
  1450  0695  00F2               	movwf	0+(?___wmul)+02h
  1451  0696  3000               	movlw	high(0Ah)
  1452  0697  00F3               	movwf	(0+(?___wmul)+02h)+1
  1453  0698  120A  118A  21AD   	fcall	___wmul
              120A  118A         
  1454  069D  0870               	movf	(0+(?___wmul)),w
  1455  069E  1283               	bcf	status, 5	;RP0=0, select bank0
  1456  069F  1303               	bcf	status, 6	;RP1=0, select bank0
  1457  06A0  07A6               	addwf	(START@first_three),f
  1458  06A1  1803               	skipnc
  1459  06A2  0AA7               	incf	(START@first_three+1),f
  1460  06A3  0871               	movf	(1+(?___wmul)),w
  1461  06A4  07A7               	addwf	(START@first_three+1),f
  1462                           	line	210
  1463                           	
  1464  06A5                     l4252:	
  1465                           ;key.c: 210: sum += digit;
  1466  06A5  082A               	movf	(START@digit),w
  1467  06A6  07A4               	addwf	(START@sum),f
  1468  06A7  1803               	skipnc
  1469  06A8  0AA5               	incf	(START@sum+1),f
  1470  06A9  082B               	movf	(START@digit+1),w
  1471  06AA  07A5               	addwf	(START@sum+1),f
  1472  06AB  2EAC               	goto	l4254
  1473                           	line	211
  1474                           	
  1475  06AC                     l795:	
  1476                           	line	212
  1477                           	
  1478  06AC                     l4254:	
  1479                           ;key.c: 211: }
  1480                           ;key.c: 212: if(count == 7){
  1481  06AC  3007               	movlw	07h
  1482  06AD  0628               	xorwf	(START@count),w
  1483  06AE  0429               	iorwf	(START@count+1),w
  1484  06AF  1D03               	skipz
  1485  06B0  2EB2               	goto	u3371
  1486  06B1  2EB3               	goto	u3370
  1487  06B2                     u3371:
  1488  06B2  2ED1               	goto	l4260
  1489  06B3                     u3370:
  1490                           	line	213
  1491                           	
  1492  06B3                     l4256:	
  1493                           ;key.c: 213: first_three += digit *100;
  1494  06B3  082B               	movf	(START@digit+1),w
  1495  06B4  01F1               	clrf	(?___wmul+1)
  1496  06B5  07F1               	addwf	(?___wmul+1)
  1497  06B6  082A               	movf	(START@digit),w
  1498  06B7  01F0               	clrf	(?___wmul)
  1499  06B8  07F0               	addwf	(?___wmul)
  1500                           
  1501  06B9  3064               	movlw	low(064h)
  1502  06BA  00F2               	movwf	0+(?___wmul)+02h
  1503  06BB  3000               	movlw	high(064h)
  1504  06BC  00F3               	movwf	(0+(?___wmul)+02h)+1
  1505  06BD  120A  118A  21AD   	fcall	___wmul
              120A  118A         
  1506  06C2  0870               	movf	(0+(?___wmul)),w
  1507  06C3  1283               	bcf	status, 5	;RP0=0, select bank0
  1508  06C4  1303               	bcf	status, 6	;RP1=0, select bank0
  1509  06C5  07A6               	addwf	(START@first_three),f
  1510  06C6  1803               	skipnc
  1511  06C7  0AA7               	incf	(START@first_three+1),f
  1512  06C8  0871               	movf	(1+(?___wmul)),w
  1513  06C9  07A7               	addwf	(START@first_three+1),f
  1514                           	line	214
  1515                           	
  1516  06CA                     l4258:	
  1517                           ;key.c: 214: sum += digit;
  1518  06CA  082A               	movf	(START@digit),w
  1519  06CB  07A4               	addwf	(START@sum),f
  1520  06CC  1803               	skipnc
  1521  06CD  0AA5               	incf	(START@sum+1),f
  1522  06CE  082B               	movf	(START@digit+1),w
  1523  06CF  07A5               	addwf	(START@sum+1),f
  1524  06D0  2ED1               	goto	l4260
  1525                           	line	215
  1526                           	
  1527  06D1                     l796:	
  1528                           	line	216
  1529                           	
  1530  06D1                     l4260:	
  1531                           ;key.c: 215: }
  1532                           ;key.c: 216: if(count == 4){
  1533  06D1  3004               	movlw	04h
  1534  06D2  0628               	xorwf	(START@count),w
  1535  06D3  0429               	iorwf	(START@count+1),w
  1536  06D4  1D03               	skipz
  1537  06D5  2ED7               	goto	u3381
  1538  06D6  2ED8               	goto	u3380
  1539  06D7                     u3381:
  1540  06D7  2EF0               	goto	l4264
  1541  06D8                     u3380:
  1542                           	line	217
  1543                           	
  1544  06D8                     l4262:	
  1545                           ;key.c: 217: oddEven += digit*10;
  1546  06D8  082B               	movf	(START@digit+1),w
  1547  06D9  01F1               	clrf	(?___wmul+1)
  1548  06DA  07F1               	addwf	(?___wmul+1)
  1549  06DB  082A               	movf	(START@digit),w
  1550  06DC  01F0               	clrf	(?___wmul)
  1551  06DD  07F0               	addwf	(?___wmul)
  1552                           
  1553  06DE  300A               	movlw	low(0Ah)
  1554  06DF  00F2               	movwf	0+(?___wmul)+02h
  1555  06E0  3000               	movlw	high(0Ah)
  1556  06E1  00F3               	movwf	(0+(?___wmul)+02h)+1
  1557  06E2  120A  118A  21AD   	fcall	___wmul
              120A  118A         
  1558  06E7  0870               	movf	(0+(?___wmul)),w
  1559  06E8  1283               	bcf	status, 5	;RP0=0, select bank0
  1560  06E9  1303               	bcf	status, 6	;RP1=0, select bank0
  1561  06EA  07A0               	addwf	(START@oddEven),f
  1562  06EB  1803               	skipnc
  1563  06EC  0AA1               	incf	(START@oddEven+1),f
  1564  06ED  0871               	movf	(1+(?___wmul)),w
  1565  06EE  07A1               	addwf	(START@oddEven+1),f
  1566  06EF  2EF0               	goto	l4264
  1567                           	line	218
  1568                           	
  1569  06F0                     l797:	
  1570                           	line	219
  1571                           	
  1572  06F0                     l4264:	
  1573                           ;key.c: 218: }
  1574                           ;key.c: 219: if(count == 3){
  1575  06F0  3003               	movlw	03h
  1576  06F1  0628               	xorwf	(START@count),w
  1577  06F2  0429               	iorwf	(START@count+1),w
  1578  06F3  1D03               	skipz
  1579  06F4  2EF6               	goto	u3391
  1580  06F5  2EF7               	goto	u3390
  1581  06F6                     u3391:
  1582  06F6  2EFD               	goto	l798
  1583  06F7                     u3390:
  1584                           	line	220
  1585                           	
  1586  06F7                     l4266:	
  1587                           ;key.c: 220: oddEven += digit;
  1588  06F7  082A               	movf	(START@digit),w
  1589  06F8  07A0               	addwf	(START@oddEven),f
  1590  06F9  1803               	skipnc
  1591  06FA  0AA1               	incf	(START@oddEven+1),f
  1592  06FB  082B               	movf	(START@digit+1),w
  1593  06FC  07A1               	addwf	(START@oddEven+1),f
  1594                           	line	221
  1595                           	
  1596  06FD                     l798:	
  1597                           	line	222
  1598                           ;key.c: 221: }
  1599                           ;key.c: 222: if(count == 2){
  1600  06FD  3002               	movlw	02h
  1601  06FE  0628               	xorwf	(START@count),w
  1602  06FF  0429               	iorwf	(START@count+1),w
  1603  0700  1D03               	skipz
  1604  0701  2F03               	goto	u3401
  1605  0702  2F04               	goto	u3400
  1606  0703                     u3401:
  1607  0703  2F0A               	goto	l799
  1608  0704                     u3400:
  1609                           	line	223
  1610                           	
  1611  0704                     l4268:	
  1612                           ;key.c: 223: sumLastTow += digit;
  1613  0704  082A               	movf	(START@digit),w
  1614  0705  07A2               	addwf	(START@sumLastTow),f
  1615  0706  1803               	skipnc
  1616  0707  0AA3               	incf	(START@sumLastTow+1),f
  1617  0708  082B               	movf	(START@digit+1),w
  1618  0709  07A3               	addwf	(START@sumLastTow+1),f
  1619                           	line	224
  1620                           	
  1621  070A                     l799:	
  1622                           	line	225
  1623                           ;key.c: 224: }
  1624                           ;key.c: 225: if(count == 1){
  1625  070A  3001               	movlw	01h
  1626  070B  0628               	xorwf	(START@count),w
  1627  070C  0429               	iorwf	(START@count+1),w
  1628  070D  1D03               	skipz
  1629  070E  2F10               	goto	u3411
  1630  070F  2F11               	goto	u3410
  1631  0710                     u3411:
  1632  0710  2F18               	goto	l4272
  1633  0711                     u3410:
  1634                           	line	226
  1635                           	
  1636  0711                     l4270:	
  1637                           ;key.c: 226: sumLastTow += digit;
  1638  0711  082A               	movf	(START@digit),w
  1639  0712  07A2               	addwf	(START@sumLastTow),f
  1640  0713  1803               	skipnc
  1641  0714  0AA3               	incf	(START@sumLastTow+1),f
  1642  0715  082B               	movf	(START@digit+1),w
  1643  0716  07A3               	addwf	(START@sumLastTow+1),f
  1644  0717  2F18               	goto	l4272
  1645                           	line	227
  1646                           	
  1647  0718                     l800:	
  1648                           	line	228
  1649                           	
  1650  0718                     l4272:	
  1651                           ;key.c: 227: }
  1652                           ;key.c: 228: num = num /10;
  1653  0718  3000               	movlw	0
  1654  0719  00F3               	movwf	(?___lldiv+3)
  1655  071A  3000               	movlw	0
  1656  071B  00F2               	movwf	(?___lldiv+2)
  1657  071C  3000               	movlw	0
  1658  071D  00F1               	movwf	(?___lldiv+1)
  1659  071E  300A               	movlw	0Ah
  1660  071F  00F0               	movwf	(?___lldiv)
  1661                           
  1662  0720  083A               	movf	(_num+3),w
  1663  0721  00F7               	movwf	3+(?___lldiv)+04h
  1664  0722  0839               	movf	(_num+2),w
  1665  0723  00F6               	movwf	2+(?___lldiv)+04h
  1666  0724  0838               	movf	(_num+1),w
  1667  0725  00F5               	movwf	1+(?___lldiv)+04h
  1668  0726  0837               	movf	(_num),w
  1669  0727  00F4               	movwf	0+(?___lldiv)+04h
  1670                           
  1671  0728  120A  118A  232B   	fcall	___lldiv
              120A  118A         
  1672  072D  0873               	movf	(3+(?___lldiv)),w
  1673  072E  1283               	bcf	status, 5	;RP0=0, select bank0
  1674  072F  1303               	bcf	status, 6	;RP1=0, select bank0
  1675  0730  00BA               	movwf	(_num+3)
  1676  0731  0872               	movf	(2+(?___lldiv)),w
  1677  0732  00B9               	movwf	(_num+2)
  1678  0733  0871               	movf	(1+(?___lldiv)),w
  1679  0734  00B8               	movwf	(_num+1)
  1680  0735  0870               	movf	(0+(?___lldiv)),w
  1681  0736  00B7               	movwf	(_num)
  1682                           
  1683  0737  2F38               	goto	l4274
  1684                           	line	229
  1685                           	
  1686  0738                     l792:	
  1687                           	line	199
  1688                           	
  1689  0738                     l4274:	
  1690  0738  1283               	bcf	status, 5	;RP0=0, select bank0
  1691  0739  1303               	bcf	status, 6	;RP1=0, select bank0
  1692  073A  083A               	movf	(_num+3),w
  1693  073B  0439               	iorwf	(_num+2),w
  1694  073C  0438               	iorwf	(_num+1),w
  1695  073D  0437               	iorwf	(_num),w
  1696  073E  1D03               	skipz
  1697  073F  2F41               	goto	u3421
  1698  0740  2F42               	goto	u3420
  1699  0741                     u3421:
  1700  0741  2E4F               	goto	l4242
  1701  0742                     u3420:
  1702  0742  2F43               	goto	l4276
  1703                           	
  1704  0743                     l801:	
  1705                           	line	230
  1706                           	
  1707  0743                     l4276:	
  1708                           ;key.c: 229: }
  1709                           ;key.c: 230: if(count == 7){
  1710  0743  3007               	movlw	07h
  1711  0744  0628               	xorwf	(START@count),w
  1712  0745  0429               	iorwf	(START@count+1),w
  1713  0746  1D03               	skipz
  1714  0747  2F49               	goto	u3431
  1715  0748  2F4A               	goto	u3430
  1716  0749                     u3431:
  1717  0749  2FF2               	goto	l4288
  1718  074A                     u3430:
  1719                           	line	231
  1720                           	
  1721  074A                     l4278:	
  1722                           ;key.c: 231: lcd_goto(0);
  1723  074A  3000               	movlw	(0)
  1724  074B  120A  118A  20DC   	fcall	_lcd_goto
              120A  118A         
  1725                           	line	232
  1726                           ;key.c: 232: lcd_putch((char)(48 + first_three/100));
  1727  0750  3064               	movlw	low(064h)
  1728  0751  00F0               	movwf	(?___awdiv)
  1729  0752  3000               	movlw	high(064h)
  1730  0753  00F1               	movwf	((?___awdiv))+1
  1731  0754  1283               	bcf	status, 5	;RP0=0, select bank0
  1732  0755  1303               	bcf	status, 6	;RP1=0, select bank0
  1733  0756  0827               	movf	(START@first_three+1),w
  1734  0757  01F3               	clrf	1+(?___awdiv)+02h
  1735  0758  07F3               	addwf	1+(?___awdiv)+02h
  1736  0759  0826               	movf	(START@first_three),w
  1737  075A  01F2               	clrf	0+(?___awdiv)+02h
  1738  075B  07F2               	addwf	0+(?___awdiv)+02h
  1739                           
  1740  075C  120A  118A  2399   	fcall	___awdiv
              120A  118A         
  1741  0761  0870               	movf	(0+(?___awdiv)),w
  1742  0762  3E30               	addlw	030h
  1743  0763  120A  118A  2187   	fcall	_lcd_putch
              120A  118A         
  1744                           	line	233
  1745                           ;key.c: 233: lcd_putch((char)(48 + first_three/10));
  1746  0768  300A               	movlw	low(0Ah)
  1747  0769  00F0               	movwf	(?___awdiv)
  1748  076A  3000               	movlw	high(0Ah)
  1749  076B  00F1               	movwf	((?___awdiv))+1
  1750  076C  1283               	bcf	status, 5	;RP0=0, select bank0
  1751  076D  1303               	bcf	status, 6	;RP1=0, select bank0
  1752  076E  0827               	movf	(START@first_three+1),w
  1753  076F  01F3               	clrf	1+(?___awdiv)+02h
  1754  0770  07F3               	addwf	1+(?___awdiv)+02h
  1755  0771  0826               	movf	(START@first_three),w
  1756  0772  01F2               	clrf	0+(?___awdiv)+02h
  1757  0773  07F2               	addwf	0+(?___awdiv)+02h
  1758                           
  1759  0774  120A  118A  2399   	fcall	___awdiv
              120A  118A         
  1760  0779  0870               	movf	(0+(?___awdiv)),w
  1761  077A  3E30               	addlw	030h
  1762  077B  120A  118A  2187   	fcall	_lcd_putch
              120A  118A         
  1763                           	line	234
  1764                           ;key.c: 234: lcd_putch((char)(48 + first_three%10));
  1765  0780  300A               	movlw	low(0Ah)
  1766  0781  00F0               	movwf	(?___awmod)
  1767  0782  3000               	movlw	high(0Ah)
  1768  0783  00F1               	movwf	((?___awmod))+1
  1769  0784  1283               	bcf	status, 5	;RP0=0, select bank0
  1770  0785  1303               	bcf	status, 6	;RP1=0, select bank0
  1771  0786  0827               	movf	(START@first_three+1),w
  1772  0787  01F3               	clrf	1+(?___awmod)+02h
  1773  0788  07F3               	addwf	1+(?___awmod)+02h
  1774  0789  0826               	movf	(START@first_three),w
  1775  078A  01F2               	clrf	0+(?___awmod)+02h
  1776  078B  07F2               	addwf	0+(?___awmod)+02h
  1777                           
  1778  078C  120A  118A  22C5   	fcall	___awmod
              120A  118A         
  1779  0791  0870               	movf	(0+(?___awmod)),w
  1780  0792  3E30               	addlw	030h
  1781  0793  120A  118A  2187   	fcall	_lcd_putch
              120A  118A         
  1782                           	line	235
  1783                           ;key.c: 235: lcd_goto(64);
  1784  0798  3040               	movlw	(040h)
  1785  0799  120A  118A  20DC   	fcall	_lcd_goto
              120A  118A         
  1786                           	line	236
  1787                           ;key.c: 236: lcd_putch((char)(48 + sum/10));
  1788  079E  300A               	movlw	low(0Ah)
  1789  079F  00F0               	movwf	(?___awdiv)
  1790  07A0  3000               	movlw	high(0Ah)
  1791  07A1  00F1               	movwf	((?___awdiv))+1
  1792  07A2  1283               	bcf	status, 5	;RP0=0, select bank0
  1793  07A3  1303               	bcf	status, 6	;RP1=0, select bank0
  1794  07A4  0825               	movf	(START@sum+1),w
  1795  07A5  01F3               	clrf	1+(?___awdiv)+02h
  1796  07A6  07F3               	addwf	1+(?___awdiv)+02h
  1797  07A7  0824               	movf	(START@sum),w
  1798  07A8  01F2               	clrf	0+(?___awdiv)+02h
  1799  07A9  07F2               	addwf	0+(?___awdiv)+02h
  1800                           
  1801  07AA  120A  118A  2399   	fcall	___awdiv
              120A  118A         
  1802  07AF  0870               	movf	(0+(?___awdiv)),w
  1803  07B0  3E30               	addlw	030h
  1804  07B1  120A  118A  2187   	fcall	_lcd_putch
              120A  118A         
  1805                           	line	237
  1806                           ;key.c: 237: lcd_putch((char)(48 + sum%10));
  1807  07B6  300A               	movlw	low(0Ah)
  1808  07B7  00F0               	movwf	(?___awmod)
  1809  07B8  3000               	movlw	high(0Ah)
  1810  07B9  00F1               	movwf	((?___awmod))+1
  1811  07BA  1283               	bcf	status, 5	;RP0=0, select bank0
  1812  07BB  1303               	bcf	status, 6	;RP1=0, select bank0
  1813  07BC  0825               	movf	(START@sum+1),w
  1814  07BD  01F3               	clrf	1+(?___awmod)+02h
  1815  07BE  07F3               	addwf	1+(?___awmod)+02h
  1816  07BF  0824               	movf	(START@sum),w
  1817  07C0  01F2               	clrf	0+(?___awmod)+02h
  1818  07C1  07F2               	addwf	0+(?___awmod)+02h
  1819                           
  1820  07C2  120A  118A  22C5   	fcall	___awmod
              120A  118A         
  1821  07C7  0870               	movf	(0+(?___awmod)),w
  1822  07C8  3E30               	addlw	030h
  1823  07C9  120A  118A  2187   	fcall	_lcd_putch
              120A  118A         
  1824                           	line	239
  1825                           	
  1826  07CE                     l4280:	
  1827                           ;key.c: 239: if(oddEven % 2 == 0){
  1828  07CE  1283               	bcf	status, 5	;RP0=0, select bank0
  1829  07CF  1303               	bcf	status, 6	;RP1=0, select bank0
  1830  07D0  1820               	btfsc	(START@oddEven),(0)&7
  1831  07D1  2FD3               	goto	u3441
  1832  07D2  2FD4               	goto	u3440
  1833  07D3                     u3441:
  1834  07D3  2FD8               	goto	l803
  1835  07D4                     u3440:
  1836                           	line	240
  1837                           	
  1838  07D4                     l4282:	
  1839                           ;key.c: 240: RC0 = 1;
  1840  07D4  1407               	bsf	(56/8),(56)&7
  1841                           	line	241
  1842                           ;key.c: 241: RC1 = 0;
  1843  07D5  1087               	bcf	(57/8),(57)&7
  1844                           	line	242
  1845                           ;key.c: 242: RC2 = 1;
  1846  07D6  1507               	bsf	(58/8),(58)&7
  1847                           	line	243
  1848                           ;key.c: 243: }else{
  1849  07D7  2FDC               	goto	l4284
  1850                           	
  1851  07D8                     l803:	
  1852                           	line	244
  1853                           ;key.c: 244: RC0 = 0;
  1854  07D8  1007               	bcf	(56/8),(56)&7
  1855                           	line	245
  1856                           ;key.c: 245: RC1 = 1;
  1857  07D9  1487               	bsf	(57/8),(57)&7
  1858                           	line	246
  1859                           ;key.c: 246: RC2 = 1;
  1860  07DA  1507               	bsf	(58/8),(58)&7
  1861  07DB  2FDC               	goto	l4284
  1862                           	line	247
  1863                           	
  1864  07DC                     l804:	
  1865                           	line	248
  1866                           	
  1867  07DC                     l4284:	
  1868                           ;key.c: 247: }
  1869                           ;key.c: 248: if(sumLastTow >10){
  1870  07DC  0823               	movf	(START@sumLastTow+1),w
  1871  07DD  3A80               	xorlw	80h
  1872  07DE  00FF               	movwf	btemp+1
  1873  07DF  3080               	movlw	(high(0Bh))^80h
  1874  07E0  027F               	subwf	btemp+1,w
  1875  07E1  1D03               	skipz
  1876  07E2  2FE5               	goto	u3455
  1877  07E3  300B               	movlw	low(0Bh)
  1878  07E4  0222               	subwf	(START@sumLastTow),w
  1879  07E5                     u3455:
  1880                           
  1881  07E5  1C03               	skipc
  1882  07E6  2FE8               	goto	u3451
  1883  07E7  2FE9               	goto	u3450
  1884  07E8                     u3451:
  1885  07E8  2FED               	goto	l805
  1886  07E9                     u3450:
  1887                           	line	249
  1888                           	
  1889  07E9                     l4286:	
  1890                           ;key.c: 249: RC7 = 1;
  1891  07E9  1283               	bcf	status, 5	;RP0=0, select bank0
  1892  07EA  1303               	bcf	status, 6	;RP1=0, select bank0
  1893  07EB  1787               	bsf	(63/8),(63)&7
  1894                           	line	250
  1895                           ;key.c: 250: }else{
  1896  07EC  2FFF               	goto	l808
  1897                           	
  1898  07ED                     l805:	
  1899                           	line	251
  1900                           ;key.c: 251: RC7 = 0;
  1901  07ED  1283               	bcf	status, 5	;RP0=0, select bank0
  1902  07EE  1303               	bcf	status, 6	;RP1=0, select bank0
  1903  07EF  1387               	bcf	(63/8),(63)&7
  1904  07F0  2FFF               	goto	l808
  1905                           	line	252
  1906                           	
  1907  07F1                     l806:	
  1908                           	line	253
  1909                           ;key.c: 252: }
  1910                           ;key.c: 253: }
  1911  07F1  2FFF               	goto	l808
  1912                           	line	254
  1913                           	
  1914  07F2                     l802:	
  1915                           	line	255
  1916                           	
  1917  07F2                     l4288:	
  1918                           ;key.c: 254: else{
  1919                           ;key.c: 255: lcd_goto(64+3);
  1920  07F2  3043               	movlw	(043h)
  1921  07F3  120A  118A  20DC   	fcall	_lcd_goto
              120A  118A         
  1922                           	line	256
  1923                           	
  1924  07F8                     l4290:	
  1925                           ;key.c: 256: lcd_puts("error");
  1926  07F8  3001               	movlw	((STR_1-__stringbase))&0ffh
  1927  07F9  120A  118A  2119   	fcall	_lcd_puts
              120A  118A         
  1928  07FE  2FFF               	goto	l808
  1929                           	line	257
  1930                           	
  1931  07FF                     l807:	
  1932                           	line	258
  1933                           	
  1934  07FF                     l808:	
  1935  07FF  0008               	return
  1936                           	opt stack 0
  1937                           GLOBAL	__end_of_START
  1938  0800                     	__end_of_START:
  1939 ;; =============== function _START ends ============
  1940                           
  1941                           	signat	_START,88
  1942                           	global	_lcd_puts
  1943                           psect	text356,local,class=CODE,delta=2
  1944                           global __ptext356
  1945  0119                     __ptext356:
  1946                           
  1947 ;; *************** function _lcd_puts *****************
  1948 ;; Defined at:
  1949 ;;		line 37 in file "C:\Users\abdal\Desktop\University\Year 4\Second Semester\Real Time Lab\Experiments and Codes\todoBZ
       UID\lcd.c"
  1950 ;; Parameters:    Size  Location     Type
  1951 ;;  s               1    wreg     PTR const unsigned char 
  1952 ;;		 -> STR_1(6), 
  1953 ;; Auto vars:     Size  Location     Type
  1954 ;;  s               1    4[COMMON] PTR const unsigned char 
  1955 ;;		 -> STR_1(6), 
  1956 ;; Return value:  Size  Location     Type
  1957 ;;		None               void
  1958 ;; Registers used:
  1959 ;;		wreg, fsr0l, fsr0h, status,2, status,0, pclath, cstack
  1960 ;; Tracked objects:
  1961 ;;		On entry : 0/0
  1962 ;;		On exit  : 0/0
  1963 ;;		Unchanged: 0/0
  1964 ;; Data sizes:     COMMON   BANK0   BANK1   BANK3   BANK2
  1965 ;;      Params:         0       0       0       0       0
  1966 ;;      Locals:         1       0       0       0       0
  1967 ;;      Temps:          1       0       0       0       0
  1968 ;;      Totals:         2       0       0       0       0
  1969 ;;Total ram usage:        2 bytes
  1970 ;; Hardware stack levels used:    1
  1971 ;; Hardware stack levels required when called:    1
  1972 ;; This function calls:
  1973 ;;		_lcd_write
  1974 ;; This function is called by:
  1975 ;;		_START
  1976 ;; This function uses a non-reentrant model
  1977 ;;
  1978                           psect	text356
  1979                           	file	"C:\Users\abdal\Desktop\University\Year 4\Second Semester\Real Time Lab\Experiment
                                 s and Codes\todoBZUID\lcd.c"
  1980                           	line	37
  1981                           	global	__size_of_lcd_puts
  1982  0024                     	__size_of_lcd_puts	equ	__end_of_lcd_puts-_lcd_puts
  1983                           	
  1984  0119                     _lcd_puts:	
  1985                           	opt	stack 4
  1986                           ; Regs used in _lcd_puts: [wreg-fsr0h+status,2+status,0+pclath+cstack]
  1987                           ;lcd_puts@s stored from wreg
  1988  0119  00F4               	movwf	(lcd_puts@s)
  1989                           	line	38
  1990                           	
  1991  011A                     l4232:	
  1992                           ;lcd.c: 38: RE0 = 1;
  1993  011A  1283               	bcf	status, 5	;RP0=0, select bank0
  1994  011B  1303               	bcf	status, 6	;RP1=0, select bank0
  1995  011C  1409               	bsf	(72/8),(72)&7
  1996                           	line	39
  1997                           ;lcd.c: 39: while(*s)
  1998  011D  292F               	goto	l4238
  1999                           	
  2000  011E                     l1505:	
  2001                           	line	40
  2002                           	
  2003  011E                     l4234:	
  2004                           ;lcd.c: 40: lcd_write(*s++);
  2005  011E  0874               	movf	(lcd_puts@s),w
  2006  011F  0084               	movwf	fsr0
  2007  0120  120A  118A  2003   	fcall	stringdir
              120A  118A         
  2008  0125  120A  118A  213D   	fcall	_lcd_write
              120A  118A         
  2009                           	
  2010  012A                     l4236:	
  2011  012A  3001               	movlw	(01h)
  2012  012B  00F3               	movwf	(??_lcd_puts+0)+0
  2013  012C  0873               	movf	(??_lcd_puts+0)+0,w
  2014  012D  07F4               	addwf	(lcd_puts@s),f
  2015  012E  292F               	goto	l4238
  2016                           	
  2017  012F                     l1504:	
  2018                           	line	39
  2019                           	
  2020  012F                     l4238:	
  2021  012F  0874               	movf	(lcd_puts@s),w
  2022  0130  0084               	movwf	fsr0
  2023  0131  120A  118A  2003   	fcall	stringdir
              120A  118A         
  2024  0136  3800               	iorlw	0
  2025  0137  1D03               	skipz
  2026  0138  293A               	goto	u3341
  2027  0139  293B               	goto	u3340
  2028  013A                     u3341:
  2029  013A  291E               	goto	l4234
  2030  013B                     u3340:
  2031  013B  293C               	goto	l1507
  2032                           	
  2033  013C                     l1506:	
  2034                           	line	41
  2035                           	
  2036  013C                     l1507:	
  2037  013C  0008               	return
  2038                           	opt stack 0
  2039                           GLOBAL	__end_of_lcd_puts
  2040  013D                     	__end_of_lcd_puts:
  2041 ;; =============== function _lcd_puts ends ============
  2042                           
  2043                           	signat	_lcd_puts,4216
  2044                           	global	_lcd_goto
  2045                           psect	text357,local,class=CODE,delta=2
  2046                           global __ptext357
  2047  00DC                     __ptext357:
  2048                           
  2049 ;; *************** function _lcd_goto *****************
  2050 ;; Defined at:
  2051 ;;		line 52 in file "C:\Users\abdal\Desktop\University\Year 4\Second Semester\Real Time Lab\Experiments and Codes\todoBZ
       UID\lcd.c"
  2052 ;; Parameters:    Size  Location     Type
  2053 ;;  pos             1    wreg     unsigned char 
  2054 ;; Auto vars:     Size  Location     Type
  2055 ;;  pos             1    3[COMMON] unsigned char 
  2056 ;; Return value:  Size  Location     Type
  2057 ;;		None               void
  2058 ;; Registers used:
  2059 ;;		wreg, status,2, status,0, pclath, cstack
  2060 ;; Tracked objects:
  2061 ;;		On entry : 0/0
  2062 ;;		On exit  : 0/0
  2063 ;;		Unchanged: 0/0
  2064 ;; Data sizes:     COMMON   BANK0   BANK1   BANK3   BANK2
  2065 ;;      Params:         0       0       0       0       0
  2066 ;;      Locals:         1       0       0       0       0
  2067 ;;      Temps:          0       0       0       0       0
  2068 ;;      Totals:         1       0       0       0       0
  2069 ;;Total ram usage:        1 bytes
  2070 ;; Hardware stack levels used:    1
  2071 ;; Hardware stack levels required when called:    1
  2072 ;; This function calls:
  2073 ;;		_lcd_write
  2074 ;; This function is called by:
  2075 ;;		_START
  2076 ;; This function uses a non-reentrant model
  2077 ;;
  2078                           psect	text357
  2079                           	file	"C:\Users\abdal\Desktop\University\Year 4\Second Semester\Real Time Lab\Experiment
                                 s and Codes\todoBZUID\lcd.c"
  2080                           	line	52
  2081                           	global	__size_of_lcd_goto
  2082  000C                     	__size_of_lcd_goto	equ	__end_of_lcd_goto-_lcd_goto
  2083                           	
  2084  00DC                     _lcd_goto:	
  2085                           	opt	stack 4
  2086                           ; Regs used in _lcd_goto: [wreg+status,2+status,0+pclath+cstack]
  2087                           ;lcd_goto@pos stored from wreg
  2088  00DC  00F3               	movwf	(lcd_goto@pos)
  2089                           	line	53
  2090                           	
  2091  00DD                     l4228:	
  2092                           ;lcd.c: 53: RE0 = 0;
  2093  00DD  1283               	bcf	status, 5	;RP0=0, select bank0
  2094  00DE  1303               	bcf	status, 6	;RP1=0, select bank0
  2095  00DF  1009               	bcf	(72/8),(72)&7
  2096                           	line	54
  2097                           	
  2098  00E0                     l4230:	
  2099                           ;lcd.c: 54: lcd_write(0x80+pos);
  2100  00E0  0873               	movf	(lcd_goto@pos),w
  2101  00E1  3E80               	addlw	080h
  2102  00E2  120A  118A  213D   	fcall	_lcd_write
              120A  118A         
  2103                           	line	55
  2104                           	
  2105  00E7                     l1516:	
  2106  00E7  0008               	return
  2107                           	opt stack 0
  2108                           GLOBAL	__end_of_lcd_goto
  2109  00E8                     	__end_of_lcd_goto:
  2110 ;; =============== function _lcd_goto ends ============
  2111                           
  2112                           	signat	_lcd_goto,4216
  2113                           	global	_getkey
  2114                           psect	text358,local,class=CODE,delta=2
  2115                           global __ptext358
  2116  051B                     __ptext358:
  2117                           
  2118 ;; *************** function _getkey *****************
  2119 ;; Defined at:
  2120 ;;		line 40 in file "C:\Users\abdal\Desktop\University\Year 4\Second Semester\Real Time Lab\Experiments and Codes\todoBZ
       UID\key.c"
  2121 ;; Parameters:    Size  Location     Type
  2122 ;;		None
  2123 ;; Auto vars:     Size  Location     Type
  2124 ;;  flag            2    0[BANK0 ] int 
  2125 ;;  rowVar          1    3[BANK0 ] unsigned char 
  2126 ;;  colVar          1    2[BANK0 ] unsigned char 
  2127 ;; Return value:  Size  Location     Type
  2128 ;;		None               void
  2129 ;; Registers used:
  2130 ;;		wreg, status,2, status,0, btemp+1, pclath, cstack
  2131 ;; Tracked objects:
  2132 ;;		On entry : 0/0
  2133 ;;		On exit  : 0/0
  2134 ;;		Unchanged: 0/0
  2135 ;; Data sizes:     COMMON   BANK0   BANK1   BANK3   BANK2
  2136 ;;      Params:         0       0       0       0       0
  2137 ;;      Locals:         0       4       0       0       0
  2138 ;;      Temps:          3       0       0       0       0
  2139 ;;      Totals:         3       4       0       0       0
  2140 ;;Total ram usage:        7 bytes
  2141 ;; Hardware stack levels used:    1
  2142 ;; Hardware stack levels required when called:    1
  2143 ;; This function calls:
  2144 ;;		_DelayMs
  2145 ;;		___awdiv
  2146 ;; This function is called by:
  2147 ;;		_main
  2148 ;; This function uses a non-reentrant model
  2149 ;;
  2150                           psect	text358
  2151                           	file	"C:\Users\abdal\Desktop\University\Year 4\Second Semester\Real Time Lab\Experiment
                                 s and Codes\todoBZUID\key.c"
  2152                           	line	40
  2153                           	global	__size_of_getkey
  2154  0133                     	__size_of_getkey	equ	__end_of_getkey-_getkey
  2155                           	
  2156  051B                     _getkey:	
  2157                           	opt	stack 6
  2158                           ; Regs used in _getkey: [wreg+status,2+status,0+btemp+1+pclath+cstack]
  2159                           	line	42
  2160                           	
  2161  051B                     l4158:	
  2162                           ;key.c: 41: char colVar, rowVar;
  2163                           ;key.c: 42: int flag=0;
  2164  051B  1283               	bcf	status, 5	;RP0=0, select bank0
  2165  051C  1303               	bcf	status, 6	;RP1=0, select bank0
  2166  051D  01A0               	clrf	(getkey@flag)
  2167  051E  01A1               	clrf	(getkey@flag+1)
  2168                           	line	43
  2169                           	
  2170  051F                     l4160:	
  2171                           ;key.c: 43: DelayMs(50);
  2172  051F  3032               	movlw	(032h)
  2173  0520  120A  118A  20F8   	fcall	_DelayMs
              120A  118A         
  2174  0525  2D26               	goto	l4162
  2175                           	line	46
  2176                           ;key.c: 46: do {
  2177                           	
  2178  0526                     l731:	
  2179                           	line	47
  2180                           	
  2181  0526                     l4162:	
  2182                           ;key.c: 47: PORTB = 0;
  2183  0526  1283               	bcf	status, 5	;RP0=0, select bank0
  2184  0527  1303               	bcf	status, 6	;RP1=0, select bank0
  2185  0528  0186               	clrf	(6)	;volatile
  2186                           	line	48
  2187                           	
  2188  0529                     l4164:	
  2189                           ;key.c: 48: TRISB = 0xf0;
  2190  0529  30F0               	movlw	(0F0h)
  2191  052A  1683               	bsf	status, 5	;RP0=1, select bank1
  2192  052B  1303               	bcf	status, 6	;RP1=0, select bank1
  2193  052C  0086               	movwf	(134)^080h	;volatile
  2194                           	line	49
  2195                           	
  2196  052D                     l4166:	
  2197                           ;key.c: 49: } while ( (PORTB >> 4) != 0xf );
  2198  052D  1283               	bcf	status, 5	;RP0=0, select bank0
  2199  052E  1303               	bcf	status, 6	;RP1=0, select bank0
  2200  052F  0806               	movf	(6),w	;volatile
  2201  0530  00F9               	movwf	(??_getkey+0)+0
  2202  0531  3004               	movlw	04h
  2203  0532                     u3195:
  2204  0532  1003               	clrc
  2205  0533  0CF9               	rrf	(??_getkey+0)+0,f
  2206  0534  3EFF               	addlw	-1
  2207  0535  1D03               	skipz
  2208  0536  2D32               	goto	u3195
  2209  0537  0879               	movf	0+(??_getkey+0)+0,w
  2210  0538  3A0F               	xorlw	0Fh
  2211  0539  1D03               	skipz
  2212  053A  2D3C               	goto	u3201
  2213  053B  2D3D               	goto	u3200
  2214  053C                     u3201:
  2215  053C  2D26               	goto	l4162
  2216  053D                     u3200:
  2217  053D  2D3E               	goto	l4168
  2218                           	
  2219  053E                     l732:	
  2220                           	line	51
  2221                           	
  2222  053E                     l4168:	
  2223                           ;key.c: 51: DelayMs(50);
  2224  053E  3032               	movlw	(032h)
  2225  053F  120A  118A  20F8   	fcall	_DelayMs
              120A  118A         
  2226  0544  2D45               	goto	l4170
  2227                           	line	54
  2228                           ;key.c: 54: while (1)
  2229                           	
  2230  0545                     l733:	
  2231                           	line	56
  2232                           	
  2233  0545                     l4170:	
  2234                           ;key.c: 55: {
  2235                           ;key.c: 56: if ( flag == 1 ){
  2236  0545  3001               	movlw	01h
  2237  0546  1283               	bcf	status, 5	;RP0=0, select bank0
  2238  0547  1303               	bcf	status, 6	;RP1=0, select bank0
  2239  0548  0620               	xorwf	(getkey@flag),w
  2240  0549  0421               	iorwf	(getkey@flag+1),w
  2241  054A  1D03               	skipz
  2242  054B  2D4D               	goto	u3211
  2243  054C  2D4E               	goto	u3210
  2244  054D                     u3211:
  2245  054D  2D50               	goto	l4174
  2246  054E                     u3210:
  2247  054E  2DC4               	goto	l4208
  2248                           	line	57
  2249                           	
  2250  054F                     l4172:	
  2251                           ;key.c: 57: break;
  2252  054F  2DC4               	goto	l4208
  2253                           	line	58
  2254                           	
  2255  0550                     l734:	
  2256                           	line	61
  2257                           	
  2258  0550                     l4174:	
  2259                           ;key.c: 58: }
  2260                           ;key.c: 61: for ( col = 0; col < 4; col++ ) {
  2261  0550  01AE               	clrf	(_col)
  2262  0551  01AF               	clrf	(_col+1)
  2263                           	
  2264  0552                     l4176:	
  2265  0552  082F               	movf	(_col+1),w
  2266  0553  3A80               	xorlw	80h
  2267  0554  00FF               	movwf	btemp+1
  2268  0555  3080               	movlw	(high(04h))^80h
  2269  0556  027F               	subwf	btemp+1,w
  2270  0557  1D03               	skipz
  2271  0558  2D5B               	goto	u3225
  2272  0559  3004               	movlw	low(04h)
  2273  055A  022E               	subwf	(_col),w
  2274  055B                     u3225:
  2275                           
  2276  055B  1C03               	skipc
  2277  055C  2D5E               	goto	u3221
  2278  055D  2D5F               	goto	u3220
  2279  055E                     u3221:
  2280  055E  2D61               	goto	l4180
  2281  055F                     u3220:
  2282  055F  2D45               	goto	l4170
  2283                           	
  2284  0560                     l4178:	
  2285  0560  2D45               	goto	l4170
  2286                           	
  2287  0561                     l736:	
  2288                           	line	62
  2289                           	
  2290  0561                     l4180:	
  2291                           ;key.c: 62: PORTB = 0;
  2292  0561  1283               	bcf	status, 5	;RP0=0, select bank0
  2293  0562  1303               	bcf	status, 6	;RP1=0, select bank0
  2294  0563  0186               	clrf	(6)	;volatile
  2295                           	line	68
  2296                           	
  2297  0564                     l4182:	
  2298                           ;key.c: 68: if ( col == 0 ){
  2299  0564  082F               	movf	((_col+1)),w
  2300  0565  042E               	iorwf	((_col)),w
  2301  0566  1D03               	skipz
  2302  0567  2D69               	goto	u3231
  2303  0568  2D6A               	goto	u3230
  2304  0569                     u3231:
  2305  0569  2D6E               	goto	l4186
  2306  056A                     u3230:
  2307                           	line	69
  2308                           	
  2309  056A                     l4184:	
  2310                           ;key.c: 69: colVar = 1;
  2311  056A  01A2               	clrf	(getkey@colVar)
  2312  056B  1403               	bsf	status,0
  2313  056C  0DA2               	rlf	(getkey@colVar),f
  2314                           	line	70
  2315                           ;key.c: 70: }
  2316  056D  2D8D               	goto	l4196
  2317                           	line	71
  2318                           	
  2319  056E                     l738:	
  2320                           	
  2321  056E                     l4186:	
  2322                           ;key.c: 71: else if ( col == 1 ){
  2323  056E  3001               	movlw	01h
  2324  056F  062E               	xorwf	(_col),w
  2325  0570  042F               	iorwf	(_col+1),w
  2326  0571  1D03               	skipz
  2327  0572  2D74               	goto	u3241
  2328  0573  2D75               	goto	u3240
  2329  0574                     u3241:
  2330  0574  2D7A               	goto	l4190
  2331  0575                     u3240:
  2332                           	line	72
  2333                           	
  2334  0575                     l4188:	
  2335                           ;key.c: 72: colVar = 2;
  2336  0575  3002               	movlw	(02h)
  2337  0576  00F9               	movwf	(??_getkey+0)+0
  2338  0577  0879               	movf	(??_getkey+0)+0,w
  2339  0578  00A2               	movwf	(getkey@colVar)
  2340                           	line	73
  2341                           ;key.c: 73: }
  2342  0579  2D8D               	goto	l4196
  2343                           	line	74
  2344                           	
  2345  057A                     l740:	
  2346                           	
  2347  057A                     l4190:	
  2348                           ;key.c: 74: else if ( col == 2 ){
  2349  057A  3002               	movlw	02h
  2350  057B  062E               	xorwf	(_col),w
  2351  057C  042F               	iorwf	(_col+1),w
  2352  057D  1D03               	skipz
  2353  057E  2D80               	goto	u3251
  2354  057F  2D81               	goto	u3250
  2355  0580                     u3251:
  2356  0580  2D86               	goto	l4194
  2357  0581                     u3250:
  2358                           	line	75
  2359                           	
  2360  0581                     l4192:	
  2361                           ;key.c: 75: colVar = 4;
  2362  0581  3004               	movlw	(04h)
  2363  0582  00F9               	movwf	(??_getkey+0)+0
  2364  0583  0879               	movf	(??_getkey+0)+0,w
  2365  0584  00A2               	movwf	(getkey@colVar)
  2366                           	line	76
  2367                           ;key.c: 76: }
  2368  0585  2D8D               	goto	l4196
  2369                           	line	77
  2370                           	
  2371  0586                     l742:	
  2372                           	line	78
  2373                           	
  2374  0586                     l4194:	
  2375                           ;key.c: 77: else{
  2376                           ;key.c: 78: colVar = 8;
  2377  0586  3008               	movlw	(08h)
  2378  0587  00F9               	movwf	(??_getkey+0)+0
  2379  0588  0879               	movf	(??_getkey+0)+0,w
  2380  0589  00A2               	movwf	(getkey@colVar)
  2381  058A  2D8D               	goto	l4196
  2382                           	line	79
  2383                           	
  2384  058B                     l743:	
  2385  058B  2D8D               	goto	l4196
  2386                           	
  2387  058C                     l741:	
  2388  058C  2D8D               	goto	l4196
  2389                           	
  2390  058D                     l739:	
  2391                           	line	82
  2392                           	
  2393  058D                     l4196:	
  2394                           ;key.c: 79: }
  2395                           ;key.c: 82: TRISB = colVar ^ 0xff;
  2396  058D  0922               	comf	(getkey@colVar),w
  2397  058E  1683               	bsf	status, 5	;RP0=1, select bank1
  2398  058F  1303               	bcf	status, 6	;RP1=0, select bank1
  2399  0590  0086               	movwf	(134)^080h	;volatile
  2400                           	line	85
  2401                           	
  2402  0591                     l4198:	
  2403                           ;key.c: 85: row = PORTB >> 4;
  2404  0591  1283               	bcf	status, 5	;RP0=0, select bank0
  2405  0592  1303               	bcf	status, 6	;RP1=0, select bank0
  2406  0593  0806               	movf	(6),w	;volatile
  2407  0594  00F9               	movwf	(??_getkey+0)+0
  2408  0595  3004               	movlw	04h
  2409  0596                     u3265:
  2410  0596  1003               	clrc
  2411  0597  0CF9               	rrf	(??_getkey+0)+0,f
  2412  0598  3EFF               	addlw	-1
  2413  0599  1D03               	skipz
  2414  059A  2D96               	goto	u3265
  2415  059B  0879               	movf	0+(??_getkey+0)+0,w
  2416  059C  00FA               	movwf	(??_getkey+1)+0
  2417  059D  01FB               	clrf	(??_getkey+1)+0+1
  2418  059E  087A               	movf	0+(??_getkey+1)+0,w
  2419  059F  00B2               	movwf	(_row)
  2420  05A0  087B               	movf	1+(??_getkey+1)+0,w
  2421  05A1  00B3               	movwf	(_row+1)
  2422                           	line	88
  2423                           	
  2424  05A2                     l4200:	
  2425                           ;key.c: 88: if ( row != 0xf ) {
  2426  05A2  300F               	movlw	0Fh
  2427  05A3  0632               	xorwf	(_row),w
  2428  05A4  0433               	iorwf	(_row+1),w
  2429  05A5  1903               	skipnz
  2430  05A6  2DA8               	goto	u3271
  2431  05A7  2DA9               	goto	u3270
  2432  05A8                     u3271:
  2433  05A8  2DAE               	goto	l4204
  2434  05A9                     u3270:
  2435                           	line	89
  2436                           	
  2437  05A9                     l4202:	
  2438                           ;key.c: 89: flag = 1;
  2439  05A9  3001               	movlw	low(01h)
  2440  05AA  00A0               	movwf	(getkey@flag)
  2441  05AB  3000               	movlw	high(01h)
  2442  05AC  00A1               	movwf	((getkey@flag))+1
  2443                           	line	90
  2444                           ;key.c: 90: break;
  2445  05AD  2D45               	goto	l4170
  2446                           	line	91
  2447                           	
  2448  05AE                     l744:	
  2449                           	line	61
  2450                           	
  2451  05AE                     l4204:	
  2452  05AE  3001               	movlw	low(01h)
  2453  05AF  07AE               	addwf	(_col),f
  2454  05B0  1803               	skipnc
  2455  05B1  0AAF               	incf	(_col+1),f
  2456  05B2  3000               	movlw	high(01h)
  2457  05B3  07AF               	addwf	(_col+1),f
  2458                           	
  2459  05B4                     l4206:	
  2460  05B4  082F               	movf	(_col+1),w
  2461  05B5  3A80               	xorlw	80h
  2462  05B6  00FF               	movwf	btemp+1
  2463  05B7  3080               	movlw	(high(04h))^80h
  2464  05B8  027F               	subwf	btemp+1,w
  2465  05B9  1D03               	skipz
  2466  05BA  2DBD               	goto	u3285
  2467  05BB  3004               	movlw	low(04h)
  2468  05BC  022E               	subwf	(_col),w
  2469  05BD                     u3285:
  2470                           
  2471  05BD  1C03               	skipc
  2472  05BE  2DC0               	goto	u3281
  2473  05BF  2DC1               	goto	u3280
  2474  05C0                     u3281:
  2475  05C0  2D61               	goto	l4180
  2476  05C1                     u3280:
  2477  05C1  2D45               	goto	l4170
  2478                           	
  2479  05C2                     l737:	
  2480  05C2  2D45               	goto	l4170
  2481                           	line	93
  2482                           	
  2483  05C3                     l745:	
  2484                           	line	54
  2485  05C3  2D45               	goto	l4170
  2486                           	
  2487  05C4                     l735:	
  2488                           	line	97
  2489                           	
  2490  05C4                     l4208:	
  2491                           ;key.c: 91: }
  2492                           ;key.c: 92: }
  2493                           ;key.c: 93: }
  2494                           ;key.c: 97: rowVar = row ^ 0xf;
  2495  05C4  1283               	bcf	status, 5	;RP0=0, select bank0
  2496  05C5  1303               	bcf	status, 6	;RP1=0, select bank0
  2497  05C6  0832               	movf	(_row),w
  2498  05C7  3A0F               	xorlw	0Fh
  2499  05C8  00F9               	movwf	(??_getkey+0)+0
  2500  05C9  0879               	movf	(??_getkey+0)+0,w
  2501  05CA  00A3               	movwf	(getkey@rowVar)
  2502                           	line	99
  2503                           	
  2504  05CB                     l4210:	
  2505                           ;key.c: 99: if ( (rowVar / 8) == 1 ){
  2506  05CB  3008               	movlw	low(08h)
  2507  05CC  00F0               	movwf	(?___awdiv)
  2508  05CD  3000               	movlw	high(08h)
  2509  05CE  00F1               	movwf	((?___awdiv))+1
  2510  05CF  0823               	movf	(getkey@rowVar),w
  2511  05D0  00F9               	movwf	(??_getkey+0)+0
  2512  05D1  01FA               	clrf	(??_getkey+0)+0+1
  2513  05D2  0879               	movf	0+(??_getkey+0)+0,w
  2514  05D3  00F2               	movwf	0+(?___awdiv)+02h
  2515  05D4  087A               	movf	1+(??_getkey+0)+0,w
  2516  05D5  00F3               	movwf	1+(?___awdiv)+02h
  2517  05D6  120A  118A  2399   	fcall	___awdiv
              120A  118A         
  2518  05DB  3001               	movlw	01h
  2519  05DC  0670               	xorwf	(0+(?___awdiv)),w
  2520  05DD  0471               	iorwf	(1+(?___awdiv)),w
  2521  05DE  1D03               	skipz
  2522  05DF  2DE1               	goto	u3291
  2523  05E0  2DE2               	goto	u3290
  2524  05E1                     u3291:
  2525  05E1  2DE9               	goto	l4214
  2526  05E2                     u3290:
  2527                           	line	100
  2528                           	
  2529  05E2                     l4212:	
  2530                           ;key.c: 100: rowVar = 4;
  2531  05E2  3004               	movlw	(04h)
  2532  05E3  00F9               	movwf	(??_getkey+0)+0
  2533  05E4  0879               	movf	(??_getkey+0)+0,w
  2534  05E5  1283               	bcf	status, 5	;RP0=0, select bank0
  2535  05E6  1303               	bcf	status, 6	;RP1=0, select bank0
  2536  05E7  00A3               	movwf	(getkey@rowVar)
  2537                           	line	101
  2538                           ;key.c: 101: }
  2539  05E8  2E3A               	goto	l4226
  2540                           	line	102
  2541                           	
  2542  05E9                     l746:	
  2543                           	
  2544  05E9                     l4214:	
  2545                           ;key.c: 102: else if ( (rowVar / 4) == 1 ){
  2546  05E9  3004               	movlw	low(04h)
  2547  05EA  00F0               	movwf	(?___awdiv)
  2548  05EB  3000               	movlw	high(04h)
  2549  05EC  00F1               	movwf	((?___awdiv))+1
  2550  05ED  1283               	bcf	status, 5	;RP0=0, select bank0
  2551  05EE  1303               	bcf	status, 6	;RP1=0, select bank0
  2552  05EF  0823               	movf	(getkey@rowVar),w
  2553  05F0  00F9               	movwf	(??_getkey+0)+0
  2554  05F1  01FA               	clrf	(??_getkey+0)+0+1
  2555  05F2  0879               	movf	0+(??_getkey+0)+0,w
  2556  05F3  00F2               	movwf	0+(?___awdiv)+02h
  2557  05F4  087A               	movf	1+(??_getkey+0)+0,w
  2558  05F5  00F3               	movwf	1+(?___awdiv)+02h
  2559  05F6  120A  118A  2399   	fcall	___awdiv
              120A  118A         
  2560  05FB  3001               	movlw	01h
  2561  05FC  0670               	xorwf	(0+(?___awdiv)),w
  2562  05FD  0471               	iorwf	(1+(?___awdiv)),w
  2563  05FE  1D03               	skipz
  2564  05FF  2E01               	goto	u3301
  2565  0600  2E02               	goto	u3300
  2566  0601                     u3301:
  2567  0601  2E09               	goto	l4218
  2568  0602                     u3300:
  2569                           	line	103
  2570                           	
  2571  0602                     l4216:	
  2572                           ;key.c: 103: rowVar = 3;
  2573  0602  3003               	movlw	(03h)
  2574  0603  00F9               	movwf	(??_getkey+0)+0
  2575  0604  0879               	movf	(??_getkey+0)+0,w
  2576  0605  1283               	bcf	status, 5	;RP0=0, select bank0
  2577  0606  1303               	bcf	status, 6	;RP1=0, select bank0
  2578  0607  00A3               	movwf	(getkey@rowVar)
  2579                           	line	104
  2580                           ;key.c: 104: }
  2581  0608  2E3A               	goto	l4226
  2582                           	line	105
  2583                           	
  2584  0609                     l748:	
  2585                           	
  2586  0609                     l4218:	
  2587                           ;key.c: 105: else if ( (rowVar / 2) == 1 ){
  2588  0609  3002               	movlw	low(02h)
  2589  060A  00F0               	movwf	(?___awdiv)
  2590  060B  3000               	movlw	high(02h)
  2591  060C  00F1               	movwf	((?___awdiv))+1
  2592  060D  1283               	bcf	status, 5	;RP0=0, select bank0
  2593  060E  1303               	bcf	status, 6	;RP1=0, select bank0
  2594  060F  0823               	movf	(getkey@rowVar),w
  2595  0610  00F9               	movwf	(??_getkey+0)+0
  2596  0611  01FA               	clrf	(??_getkey+0)+0+1
  2597  0612  0879               	movf	0+(??_getkey+0)+0,w
  2598  0613  00F2               	movwf	0+(?___awdiv)+02h
  2599  0614  087A               	movf	1+(??_getkey+0)+0,w
  2600  0615  00F3               	movwf	1+(?___awdiv)+02h
  2601  0616  120A  118A  2399   	fcall	___awdiv
              120A  118A         
  2602  061B  3001               	movlw	01h
  2603  061C  0670               	xorwf	(0+(?___awdiv)),w
  2604  061D  0471               	iorwf	(1+(?___awdiv)),w
  2605  061E  1D03               	skipz
  2606  061F  2E21               	goto	u3311
  2607  0620  2E22               	goto	u3310
  2608  0621                     u3311:
  2609  0621  2E29               	goto	l4222
  2610  0622                     u3310:
  2611                           	line	106
  2612                           	
  2613  0622                     l4220:	
  2614                           ;key.c: 106: rowVar = 2;
  2615  0622  3002               	movlw	(02h)
  2616  0623  00F9               	movwf	(??_getkey+0)+0
  2617  0624  0879               	movf	(??_getkey+0)+0,w
  2618  0625  1283               	bcf	status, 5	;RP0=0, select bank0
  2619  0626  1303               	bcf	status, 6	;RP1=0, select bank0
  2620  0627  00A3               	movwf	(getkey@rowVar)
  2621                           	line	107
  2622                           ;key.c: 107: }
  2623  0628  2E3A               	goto	l4226
  2624                           	line	108
  2625                           	
  2626  0629                     l750:	
  2627                           	
  2628  0629                     l4222:	
  2629                           ;key.c: 108: else if ( rowVar == 1 ){
  2630  0629  1283               	bcf	status, 5	;RP0=0, select bank0
  2631  062A  1303               	bcf	status, 6	;RP1=0, select bank0
  2632  062B  0823               	movf	(getkey@rowVar),w
  2633  062C  3A01               	xorlw	01h
  2634  062D  1D03               	skipz
  2635  062E  2E30               	goto	u3321
  2636  062F  2E31               	goto	u3320
  2637  0630                     u3321:
  2638  0630  2E35               	goto	l752
  2639  0631                     u3320:
  2640                           	line	109
  2641                           	
  2642  0631                     l4224:	
  2643                           ;key.c: 109: rowVar = 1;
  2644  0631  01A3               	clrf	(getkey@rowVar)
  2645  0632  1403               	bsf	status,0
  2646  0633  0DA3               	rlf	(getkey@rowVar),f
  2647                           	line	110
  2648                           ;key.c: 110: }
  2649  0634  2E3A               	goto	l4226
  2650                           	line	111
  2651                           	
  2652  0635                     l752:	
  2653                           	line	112
  2654                           ;key.c: 111: else{
  2655                           ;key.c: 112: rowVar = 0;
  2656  0635  01A3               	clrf	(getkey@rowVar)
  2657  0636  2E3A               	goto	l4226
  2658                           	line	113
  2659                           	
  2660  0637                     l753:	
  2661  0637  2E3A               	goto	l4226
  2662                           	
  2663  0638                     l751:	
  2664  0638  2E3A               	goto	l4226
  2665                           	
  2666  0639                     l749:	
  2667  0639  2E3A               	goto	l4226
  2668                           	
  2669  063A                     l747:	
  2670                           	line	115
  2671                           	
  2672  063A                     l4226:	
  2673                           ;key.c: 113: }
  2674                           ;key.c: 115: pressed_key = (col * 4) + rowVar;
  2675  063A  082F               	movf	(_col+1),w
  2676  063B  00FA               	movwf	(??_getkey+0)+0+1
  2677  063C  082E               	movf	(_col),w
  2678  063D  00F9               	movwf	(??_getkey+0)+0
  2679  063E  3002               	movlw	02h
  2680  063F  00FF               	movwf	btemp+1
  2681  0640                     u3335:
  2682  0640  1003               	clrc
  2683  0641  0DF9               	rlf	(??_getkey+0)+0,f
  2684  0642  0DFA               	rlf	(??_getkey+0)+1,f
  2685  0643  0BFF               	decfsz	btemp+1,f
  2686  0644  2E40               	goto	u3335
  2687  0645  0823               	movf	(getkey@rowVar),w
  2688  0646  0779               	addwf	0+(??_getkey+0)+0,w
  2689  0647  00B0               	movwf	(_pressed_key)
  2690  0648  3000               	movlw	0
  2691  0649  1803               	skipnc
  2692  064A  3001               	movlw	1
  2693  064B  077A               	addwf	1+(??_getkey+0)+0,w
  2694  064C  00B1               	movwf	1+(_pressed_key)
  2695                           	line	116
  2696                           	
  2697  064D                     l754:	
  2698  064D  0008               	return
  2699                           	opt stack 0
  2700                           GLOBAL	__end_of_getkey
  2701  064E                     	__end_of_getkey:
  2702 ;; =============== function _getkey ends ============
  2703                           
  2704                           	signat	_getkey,88
  2705                           	global	_lcd_clear
  2706                           psect	text359,local,class=CODE,delta=2
  2707                           global __ptext359
  2708  00E8                     __ptext359:
  2709                           
  2710 ;; *************** function _lcd_clear *****************
  2711 ;; Defined at:
  2712 ;;		line 31 in file "C:\Users\abdal\Desktop\University\Year 4\Second Semester\Real Time Lab\Experiments and Codes\todoBZ
       UID\lcd.c"
  2713 ;; Parameters:    Size  Location     Type
  2714 ;;		None
  2715 ;; Auto vars:     Size  Location     Type
  2716 ;;		None
  2717 ;; Return value:  Size  Location     Type
  2718 ;;		None               void
  2719 ;; Registers used:
  2720 ;;		wreg, status,2, status,0, pclath, cstack
  2721 ;; Tracked objects:
  2722 ;;		On entry : 0/0
  2723 ;;		On exit  : 0/0
  2724 ;;		Unchanged: 0/0
  2725 ;; Data sizes:     COMMON   BANK0   BANK1   BANK3   BANK2
  2726 ;;      Params:         0       0       0       0       0
  2727 ;;      Locals:         0       0       0       0       0
  2728 ;;      Temps:          0       0       0       0       0
  2729 ;;      Totals:         0       0       0       0       0
  2730 ;;Total ram usage:        0 bytes
  2731 ;; Hardware stack levels used:    1
  2732 ;; Hardware stack levels required when called:    1
  2733 ;; This function calls:
  2734 ;;		_lcd_write
  2735 ;;		_DelayMs
  2736 ;; This function is called by:
  2737 ;;		_main
  2738 ;;		_putchar
  2739 ;; This function uses a non-reentrant model
  2740 ;;
  2741                           psect	text359
  2742                           	file	"C:\Users\abdal\Desktop\University\Year 4\Second Semester\Real Time Lab\Experiment
                                 s and Codes\todoBZUID\lcd.c"
  2743                           	line	31
  2744                           	global	__size_of_lcd_clear
  2745  0010                     	__size_of_lcd_clear	equ	__end_of_lcd_clear-_lcd_clear
  2746                           	
  2747  00E8                     _lcd_clear:	
  2748                           	opt	stack 5
  2749                           ; Regs used in _lcd_clear: [wreg+status,2+status,0+pclath+cstack]
  2750                           	line	32
  2751                           	
  2752  00E8                     l4154:	
  2753                           ;lcd.c: 32: RE0 = 0;
  2754  00E8  1283               	bcf	status, 5	;RP0=0, select bank0
  2755  00E9  1303               	bcf	status, 6	;RP1=0, select bank0
  2756  00EA  1009               	bcf	(72/8),(72)&7
  2757                           	line	33
  2758                           	
  2759  00EB                     l4156:	
  2760                           ;lcd.c: 33: lcd_write(0x1);
  2761  00EB  3001               	movlw	(01h)
  2762  00EC  120A  118A  213D   	fcall	_lcd_write
              120A  118A         
  2763                           	line	34
  2764                           ;lcd.c: 34: DelayMs(2);
  2765  00F1  3002               	movlw	(02h)
  2766  00F2  120A  118A  20F8   	fcall	_DelayMs
              120A  118A         
  2767                           	line	35
  2768                           	
  2769  00F7                     l1501:	
  2770  00F7  0008               	return
  2771                           	opt stack 0
  2772                           GLOBAL	__end_of_lcd_clear
  2773  00F8                     	__end_of_lcd_clear:
  2774 ;; =============== function _lcd_clear ends ============
  2775                           
  2776                           	signat	_lcd_clear,88
  2777                           	global	_lcd_init
  2778                           psect	text360,local,class=CODE,delta=2
  2779                           global __ptext360
  2780  020E                     __ptext360:
  2781                           
  2782 ;; *************** function _lcd_init *****************
  2783 ;; Defined at:
  2784 ;;		line 57 in file "C:\Users\abdal\Desktop\University\Year 4\Second Semester\Real Time Lab\Experiments and Codes\todoBZ
       UID\lcd.c"
  2785 ;; Parameters:    Size  Location     Type
  2786 ;;		None
  2787 ;; Auto vars:     Size  Location     Type
  2788 ;;  _dcnt           1    6[COMMON] unsigned char 
  2789 ;;  _dcnt           1    5[COMMON] unsigned char 
  2790 ;; Return value:  Size  Location     Type
  2791 ;;		None               void
  2792 ;; Registers used:
  2793 ;;		wreg, status,2, status,0, pclath, cstack
  2794 ;; Tracked objects:
  2795 ;;		On entry : 0/0
  2796 ;;		On exit  : 0/0
  2797 ;;		Unchanged: 0/0
  2798 ;; Data sizes:     COMMON   BANK0   BANK1   BANK3   BANK2
  2799 ;;      Params:         0       0       0       0       0
  2800 ;;      Locals:         2       0       0       0       0
  2801 ;;      Temps:          1       0       0       0       0
  2802 ;;      Totals:         3       0       0       0       0
  2803 ;;Total ram usage:        3 bytes
  2804 ;; Hardware stack levels used:    1
  2805 ;; Hardware stack levels required when called:    1
  2806 ;; This function calls:
  2807 ;;		_DelayMs
  2808 ;;		_lcd_write
  2809 ;; This function is called by:
  2810 ;;		_main
  2811 ;; This function uses a non-reentrant model
  2812 ;;
  2813                           psect	text360
  2814                           	file	"C:\Users\abdal\Desktop\University\Year 4\Second Semester\Real Time Lab\Experiment
                                 s and Codes\todoBZUID\lcd.c"
  2815                           	line	57
  2816                           	global	__size_of_lcd_init
  2817  005B                     	__size_of_lcd_init	equ	__end_of_lcd_init-_lcd_init
  2818                           	
  2819  020E                     _lcd_init:	
  2820                           	opt	stack 6
  2821                           ; Regs used in _lcd_init: [wreg+status,2+status,0+pclath+cstack]
  2822                           	line	58
  2823                           	
  2824  020E                     l4122:	
  2825                           ;lcd.c: 58: RE0 = 0;
  2826  020E  1283               	bcf	status, 5	;RP0=0, select bank0
  2827  020F  1303               	bcf	status, 6	;RP1=0, select bank0
  2828  0210  1009               	bcf	(72/8),(72)&7
  2829                           	line	59
  2830                           	
  2831  0211                     l4124:	
  2832                           ;lcd.c: 59: DelayMs(15);
  2833  0211  300F               	movlw	(0Fh)
  2834  0212  120A  118A  20F8   	fcall	_DelayMs
              120A  118A         
  2835                           	line	60
  2836                           	
  2837  0217                     l4126:	
  2838                           ;lcd.c: 60: PORTD = (0x3 << 4);
  2839  0217  3030               	movlw	(030h)
  2840  0218  1283               	bcf	status, 5	;RP0=0, select bank0
  2841  0219  1303               	bcf	status, 6	;RP1=0, select bank0
  2842  021A  0088               	movwf	(8)	;volatile
  2843                           	line	61
  2844                           	
  2845  021B                     l4128:	
  2846                           ;lcd.c: 61: ((RE1 = 1),(RE1=0));
  2847  021B  1489               	bsf	(73/8),(73)&7
  2848                           	
  2849  021C                     l4130:	
  2850  021C  1089               	bcf	(73/8),(73)&7
  2851                           	line	62
  2852                           	
  2853  021D                     l4132:	
  2854                           ;lcd.c: 62: DelayMs(5);
  2855  021D  3005               	movlw	(05h)
  2856  021E  120A  118A  20F8   	fcall	_DelayMs
              120A  118A         
  2857                           	line	63
  2858                           	
  2859  0223                     l4134:	
  2860                           ;lcd.c: 63: ((RE1 = 1),(RE1=0));
  2861  0223  1283               	bcf	status, 5	;RP0=0, select bank0
  2862  0224  1303               	bcf	status, 6	;RP1=0, select bank0
  2863  0225  1489               	bsf	(73/8),(73)&7
  2864                           	
  2865  0226                     l4136:	
  2866  0226  1089               	bcf	(73/8),(73)&7
  2867                           	line	64
  2868                           ;lcd.c: 64: { unsigned char _dcnt; _dcnt = (100)/((12*1000L)/(4*1000L))|1; while(--_dcnt
                                  != 0) continue; };
  2869  0227  3021               	movlw	(021h)
  2870  0228  00F4               	movwf	(??_lcd_init+0)+0
  2871  0229  0874               	movf	(??_lcd_init+0)+0,w
  2872  022A  00F5               	movwf	(lcd_init@_dcnt)
  2873  022B  2A2D               	goto	l4138
  2874                           	
  2875  022C                     l1520:	
  2876  022C  2A2D               	goto	l4138
  2877                           	
  2878  022D                     l1519:	
  2879                           	
  2880  022D                     l4138:	
  2881  022D  3001               	movlw	low(01h)
  2882  022E  02F5               	subwf	(lcd_init@_dcnt),f
  2883  022F  1D03               	btfss	status,2
  2884  0230  2A32               	goto	u3171
  2885  0231  2A33               	goto	u3170
  2886  0232                     u3171:
  2887  0232  2A2D               	goto	l4138
  2888  0233                     u3170:
  2889                           	
  2890  0233                     l1521:	
  2891                           	line	65
  2892                           ;lcd.c: 65: ((RE1 = 1),(RE1=0));
  2893  0233  1283               	bcf	status, 5	;RP0=0, select bank0
  2894  0234  1303               	bcf	status, 6	;RP1=0, select bank0
  2895  0235  1489               	bsf	(73/8),(73)&7
  2896  0236  1089               	bcf	(73/8),(73)&7
  2897                           	line	66
  2898                           	
  2899  0237                     l4140:	
  2900                           ;lcd.c: 66: DelayMs(5);
  2901  0237  3005               	movlw	(05h)
  2902  0238  120A  118A  20F8   	fcall	_DelayMs
              120A  118A         
  2903                           	line	67
  2904                           	
  2905  023D                     l4142:	
  2906                           ;lcd.c: 67: PORTD = (0x2 << 4);
  2907  023D  3020               	movlw	(020h)
  2908  023E  1283               	bcf	status, 5	;RP0=0, select bank0
  2909  023F  1303               	bcf	status, 6	;RP1=0, select bank0
  2910  0240  0088               	movwf	(8)	;volatile
  2911                           	line	68
  2912                           	
  2913  0241                     l4144:	
  2914                           ;lcd.c: 68: ((RE1 = 1),(RE1=0));
  2915  0241  1489               	bsf	(73/8),(73)&7
  2916                           	
  2917  0242                     l4146:	
  2918  0242  1089               	bcf	(73/8),(73)&7
  2919                           	line	69
  2920                           	
  2921  0243                     l4148:	
  2922                           ;lcd.c: 69: { unsigned char _dcnt; _dcnt = (40)/((12*1000L)/(4*1000L))|1; while(--_dcnt 
                                 != 0) continue; };
  2923  0243  300D               	movlw	(0Dh)
  2924  0244  00F4               	movwf	(??_lcd_init+0)+0
  2925  0245  0874               	movf	(??_lcd_init+0)+0,w
  2926  0246  00F6               	movwf	(lcd_init@_dcnt_2127)
  2927  0247  2A49               	goto	l4150
  2928                           	
  2929  0248                     l1523:	
  2930  0248  2A49               	goto	l4150
  2931                           	
  2932  0249                     l1522:	
  2933                           	
  2934  0249                     l4150:	
  2935  0249  3001               	movlw	low(01h)
  2936  024A  02F6               	subwf	(lcd_init@_dcnt_2127),f
  2937  024B  1D03               	btfss	status,2
  2938  024C  2A4E               	goto	u3181
  2939  024D  2A4F               	goto	u3180
  2940  024E                     u3181:
  2941  024E  2A49               	goto	l4150
  2942  024F                     u3180:
  2943  024F  2A50               	goto	l4152
  2944                           	
  2945  0250                     l1524:	
  2946                           	line	70
  2947                           	
  2948  0250                     l4152:	
  2949                           ;lcd.c: 70: lcd_write(0x28);
  2950  0250  3028               	movlw	(028h)
  2951  0251  120A  118A  213D   	fcall	_lcd_write
              120A  118A         
  2952                           	line	71
  2953                           ;lcd.c: 71: lcd_write(0x08);
  2954  0256  3008               	movlw	(08h)
  2955  0257  120A  118A  213D   	fcall	_lcd_write
              120A  118A         
  2956                           	line	72
  2957                           ;lcd.c: 72: lcd_write(0x0F);
  2958  025C  300F               	movlw	(0Fh)
  2959  025D  120A  118A  213D   	fcall	_lcd_write
              120A  118A         
  2960                           	line	73
  2961                           ;lcd.c: 73: lcd_write(0x06);
  2962  0262  3006               	movlw	(06h)
  2963  0263  120A  118A  213D   	fcall	_lcd_write
              120A  118A         
  2964                           	line	74
  2965                           	
  2966  0268                     l1525:	
  2967  0268  0008               	return
  2968                           	opt stack 0
  2969                           GLOBAL	__end_of_lcd_init
  2970  0269                     	__end_of_lcd_init:
  2971 ;; =============== function _lcd_init ends ============
  2972                           
  2973                           	signat	_lcd_init,88
  2974                           	global	___awmod
  2975                           psect	text361,local,class=CODE,delta=2
  2976                           global __ptext361
  2977  02C5                     __ptext361:
  2978                           
  2979 ;; *************** function ___awmod *****************
  2980 ;; Defined at:
  2981 ;;		line 5 in file "C:\Program Files (x86)\HI-TECH Software\PICC\9.83\sources\awmod.c"
  2982 ;; Parameters:    Size  Location     Type
  2983 ;;  divisor         2    0[COMMON] int 
  2984 ;;  dividend        2    2[COMMON] int 
  2985 ;; Auto vars:     Size  Location     Type
  2986 ;;  sign            1    6[COMMON] unsigned char 
  2987 ;;  counter         1    5[COMMON] unsigned char 
  2988 ;; Return value:  Size  Location     Type
  2989 ;;                  2    0[COMMON] int 
  2990 ;; Registers used:
  2991 ;;		wreg, status,2, status,0
  2992 ;; Tracked objects:
  2993 ;;		On entry : 0/0
  2994 ;;		On exit  : 0/0
  2995 ;;		Unchanged: 0/0
  2996 ;; Data sizes:     COMMON   BANK0   BANK1   BANK3   BANK2
  2997 ;;      Params:         4       0       0       0       0
  2998 ;;      Locals:         2       0       0       0       0
  2999 ;;      Temps:          1       0       0       0       0
  3000 ;;      Totals:         7       0       0       0       0
  3001 ;;Total ram usage:        7 bytes
  3002 ;; Hardware stack levels used:    1
  3003 ;; This function calls:
  3004 ;;		Nothing
  3005 ;; This function is called by:
  3006 ;;		_START
  3007 ;; This function uses a non-reentrant model
  3008 ;;
  3009                           psect	text361
  3010                           	file	"C:\Program Files (x86)\HI-TECH Software\PICC\9.83\sources\awmod.c"
  3011                           	line	5
  3012                           	global	__size_of___awmod
  3013  0066                     	__size_of___awmod	equ	__end_of___awmod-___awmod
  3014                           	
  3015  02C5                     ___awmod:	
  3016                           	opt	stack 5
  3017                           ; Regs used in ___awmod: [wreg+status,2+status,0]
  3018                           	line	8
  3019                           	
  3020  02C5                     l4088:	
  3021  02C5  01F6               	clrf	(___awmod@sign)
  3022                           	line	9
  3023  02C6  1FF3               	btfss	(___awmod@dividend+1),7
  3024  02C7  2AC9               	goto	u3081
  3025  02C8  2ACA               	goto	u3080
  3026  02C9                     u3081:
  3027  02C9  2AD3               	goto	l4092
  3028  02CA                     u3080:
  3029                           	line	10
  3030                           	
  3031  02CA                     l4090:	
  3032  02CA  09F2               	comf	(___awmod@dividend),f
  3033  02CB  09F3               	comf	(___awmod@dividend+1),f
  3034  02CC  0AF2               	incf	(___awmod@dividend),f
  3035  02CD  1903               	skipnz
  3036  02CE  0AF3               	incf	(___awmod@dividend+1),f
  3037                           	line	11
  3038  02CF  01F6               	clrf	(___awmod@sign)
  3039  02D0  1403               	bsf	status,0
  3040  02D1  0DF6               	rlf	(___awmod@sign),f
  3041  02D2  2AD3               	goto	l4092
  3042                           	line	12
  3043                           	
  3044  02D3                     l2416:	
  3045                           	line	13
  3046                           	
  3047  02D3                     l4092:	
  3048  02D3  1FF1               	btfss	(___awmod@divisor+1),7
  3049  02D4  2AD6               	goto	u3091
  3050  02D5  2AD7               	goto	u3090
  3051  02D6                     u3091:
  3052  02D6  2ADD               	goto	l4096
  3053  02D7                     u3090:
  3054                           	line	14
  3055                           	
  3056  02D7                     l4094:	
  3057  02D7  09F0               	comf	(___awmod@divisor),f
  3058  02D8  09F1               	comf	(___awmod@divisor+1),f
  3059  02D9  0AF0               	incf	(___awmod@divisor),f
  3060  02DA  1903               	skipnz
  3061  02DB  0AF1               	incf	(___awmod@divisor+1),f
  3062  02DC  2ADD               	goto	l4096
  3063                           	
  3064  02DD                     l2417:	
  3065                           	line	15
  3066                           	
  3067  02DD                     l4096:	
  3068  02DD  0871               	movf	(___awmod@divisor+1),w
  3069  02DE  0470               	iorwf	(___awmod@divisor),w
  3070  02DF  1903               	skipnz
  3071  02E0  2AE2               	goto	u3101
  3072  02E1  2AE3               	goto	u3100
  3073  02E2                     u3101:
  3074  02E2  2B19               	goto	l4114
  3075  02E3                     u3100:
  3076                           	line	16
  3077                           	
  3078  02E3                     l4098:	
  3079  02E3  01F5               	clrf	(___awmod@counter)
  3080  02E4  1403               	bsf	status,0
  3081  02E5  0DF5               	rlf	(___awmod@counter),f
  3082                           	line	17
  3083  02E6  2AF3               	goto	l4104
  3084                           	
  3085  02E7                     l2420:	
  3086                           	line	18
  3087                           	
  3088  02E7                     l4100:	
  3089  02E7  3001               	movlw	01h
  3090                           	
  3091  02E8                     u3115:
  3092  02E8  1003               	clrc
  3093  02E9  0DF0               	rlf	(___awmod@divisor),f
  3094  02EA  0DF1               	rlf	(___awmod@divisor+1),f
  3095  02EB  3EFF               	addlw	-1
  3096  02EC  1D03               	skipz
  3097  02ED  2AE8               	goto	u3115
  3098                           	line	19
  3099                           	
  3100  02EE                     l4102:	
  3101  02EE  3001               	movlw	(01h)
  3102  02EF  00F4               	movwf	(??___awmod+0)+0
  3103  02F0  0874               	movf	(??___awmod+0)+0,w
  3104  02F1  07F5               	addwf	(___awmod@counter),f
  3105  02F2  2AF3               	goto	l4104
  3106                           	line	20
  3107                           	
  3108  02F3                     l2419:	
  3109                           	line	17
  3110                           	
  3111  02F3                     l4104:	
  3112  02F3  1FF1               	btfss	(___awmod@divisor+1),(15)&7
  3113  02F4  2AF6               	goto	u3121
  3114  02F5  2AF7               	goto	u3120
  3115  02F6                     u3121:
  3116  02F6  2AE7               	goto	l4100
  3117  02F7                     u3120:
  3118  02F7  2AF9               	goto	l4106
  3119                           	
  3120  02F8                     l2421:	
  3121  02F8  2AF9               	goto	l4106
  3122                           	line	21
  3123                           	
  3124  02F9                     l2422:	
  3125                           	line	22
  3126                           	
  3127  02F9                     l4106:	
  3128  02F9  0871               	movf	(___awmod@divisor+1),w
  3129  02FA  0273               	subwf	(___awmod@dividend+1),w
  3130  02FB  1D03               	skipz
  3131  02FC  2AFF               	goto	u3135
  3132  02FD  0870               	movf	(___awmod@divisor),w
  3133  02FE  0272               	subwf	(___awmod@dividend),w
  3134  02FF                     u3135:
  3135  02FF  1C03               	skipc
  3136  0300  2B02               	goto	u3131
  3137  0301  2B03               	goto	u3130
  3138  0302                     u3131:
  3139  0302  2B0A               	goto	l4110
  3140  0303                     u3130:
  3141                           	line	23
  3142                           	
  3143  0303                     l4108:	
  3144  0303  0870               	movf	(___awmod@divisor),w
  3145  0304  02F2               	subwf	(___awmod@dividend),f
  3146  0305  0871               	movf	(___awmod@divisor+1),w
  3147  0306  1C03               	skipc
  3148  0307  03F3               	decf	(___awmod@dividend+1),f
  3149  0308  02F3               	subwf	(___awmod@dividend+1),f
  3150  0309  2B0A               	goto	l4110
  3151                           	
  3152  030A                     l2423:	
  3153                           	line	24
  3154                           	
  3155  030A                     l4110:	
  3156  030A  3001               	movlw	01h
  3157                           	
  3158  030B                     u3145:
  3159  030B  1003               	clrc
  3160  030C  0CF1               	rrf	(___awmod@divisor+1),f
  3161  030D  0CF0               	rrf	(___awmod@divisor),f
  3162  030E  3EFF               	addlw	-1
  3163  030F  1D03               	skipz
  3164  0310  2B0B               	goto	u3145
  3165                           	line	25
  3166                           	
  3167  0311                     l4112:	
  3168  0311  3001               	movlw	low(01h)
  3169  0312  02F5               	subwf	(___awmod@counter),f
  3170  0313  1D03               	btfss	status,2
  3171  0314  2B16               	goto	u3151
  3172  0315  2B17               	goto	u3150
  3173  0316                     u3151:
  3174  0316  2AF9               	goto	l4106
  3175  0317                     u3150:
  3176  0317  2B19               	goto	l4114
  3177                           	
  3178  0318                     l2424:	
  3179  0318  2B19               	goto	l4114
  3180                           	line	26
  3181                           	
  3182  0319                     l2418:	
  3183                           	line	27
  3184                           	
  3185  0319                     l4114:	
  3186  0319  0876               	movf	(___awmod@sign),w
  3187  031A  1D03               	skipz
  3188  031B  2B1D               	goto	u3160
  3189  031C  2B23               	goto	l4118
  3190  031D                     u3160:
  3191                           	line	28
  3192                           	
  3193  031D                     l4116:	
  3194  031D  09F2               	comf	(___awmod@dividend),f
  3195  031E  09F3               	comf	(___awmod@dividend+1),f
  3196  031F  0AF2               	incf	(___awmod@dividend),f
  3197  0320  1903               	skipnz
  3198  0321  0AF3               	incf	(___awmod@dividend+1),f
  3199  0322  2B23               	goto	l4118
  3200                           	
  3201  0323                     l2425:	
  3202                           	line	29
  3203                           	
  3204  0323                     l4118:	
  3205  0323  0873               	movf	(___awmod@dividend+1),w
  3206  0324  01F1               	clrf	(?___awmod+1)
  3207  0325  07F1               	addwf	(?___awmod+1)
  3208  0326  0872               	movf	(___awmod@dividend),w
  3209  0327  01F0               	clrf	(?___awmod)
  3210  0328  07F0               	addwf	(?___awmod)
  3211                           
  3212  0329  2B2A               	goto	l2426
  3213                           	
  3214  032A                     l4120:	
  3215                           	line	30
  3216                           	
  3217  032A                     l2426:	
  3218  032A  0008               	return
  3219                           	opt stack 0
  3220                           GLOBAL	__end_of___awmod
  3221  032B                     	__end_of___awmod:
  3222 ;; =============== function ___awmod ends ============
  3223                           
  3224                           	signat	___awmod,8314
  3225                           	global	___lldiv
  3226                           psect	text362,local,class=CODE,delta=2
  3227                           global __ptext362
  3228  032B                     __ptext362:
  3229                           
  3230 ;; *************** function ___lldiv *****************
  3231 ;; Defined at:
  3232 ;;		line 5 in file "C:\Program Files (x86)\HI-TECH Software\PICC\9.83\sources\lldiv.c"
  3233 ;; Parameters:    Size  Location     Type
  3234 ;;  divisor         4    0[COMMON] unsigned long 
  3235 ;;  dividend        4    4[COMMON] unsigned long 
  3236 ;; Auto vars:     Size  Location     Type
  3237 ;;  quotient        4    9[COMMON] unsigned long 
  3238 ;;  counter         1   13[COMMON] unsigned char 
  3239 ;; Return value:  Size  Location     Type
  3240 ;;                  4    0[COMMON] unsigned long 
  3241 ;; Registers used:
  3242 ;;		wreg, status,2, status,0
  3243 ;; Tracked objects:
  3244 ;;		On entry : 0/0
  3245 ;;		On exit  : 0/0
  3246 ;;		Unchanged: 0/0
  3247 ;; Data sizes:     COMMON   BANK0   BANK1   BANK3   BANK2
  3248 ;;      Params:         8       0       0       0       0
  3249 ;;      Locals:         5       0       0       0       0
  3250 ;;      Temps:          1       0       0       0       0
  3251 ;;      Totals:        14       0       0       0       0
  3252 ;;Total ram usage:       14 bytes
  3253 ;; Hardware stack levels used:    1
  3254 ;; This function calls:
  3255 ;;		Nothing
  3256 ;; This function is called by:
  3257 ;;		_START
  3258 ;; This function uses a non-reentrant model
  3259 ;;
  3260                           psect	text362
  3261                           	file	"C:\Program Files (x86)\HI-TECH Software\PICC\9.83\sources\lldiv.c"
  3262                           	line	5
  3263                           	global	__size_of___lldiv
  3264  006E                     	__size_of___lldiv	equ	__end_of___lldiv-___lldiv
  3265                           	
  3266  032B                     ___lldiv:	
  3267                           	opt	stack 5
  3268                           ; Regs used in ___lldiv: [wreg+status,2+status,0]
  3269                           	line	9
  3270                           	
  3271  032B                     l4064:	
  3272  032B  3000               	movlw	0
  3273  032C  00FC               	movwf	(___lldiv@quotient+3)
  3274  032D  3000               	movlw	0
  3275  032E  00FB               	movwf	(___lldiv@quotient+2)
  3276  032F  3000               	movlw	0
  3277  0330  00FA               	movwf	(___lldiv@quotient+1)
  3278  0331  3000               	movlw	0
  3279  0332  00F9               	movwf	(___lldiv@quotient)
  3280                           
  3281                           	line	10
  3282  0333  0873               	movf	(___lldiv@divisor+3),w
  3283  0334  0472               	iorwf	(___lldiv@divisor+2),w
  3284  0335  0471               	iorwf	(___lldiv@divisor+1),w
  3285  0336  0470               	iorwf	(___lldiv@divisor),w
  3286  0337  1903               	skipnz
  3287  0338  2B3A               	goto	u3011
  3288  0339  2B3B               	goto	u3010
  3289  033A                     u3011:
  3290  033A  2B8F               	goto	l4084
  3291  033B                     u3010:
  3292                           	line	11
  3293                           	
  3294  033B                     l4066:	
  3295  033B  01FD               	clrf	(___lldiv@counter)
  3296  033C  1403               	bsf	status,0
  3297  033D  0DFD               	rlf	(___lldiv@counter),f
  3298                           	line	12
  3299  033E  2B4D               	goto	l4070
  3300                           	
  3301  033F                     l2382:	
  3302                           	line	13
  3303                           	
  3304  033F                     l4068:	
  3305  033F  3001               	movlw	01h
  3306  0340  00F8               	movwf	(??___lldiv+0)+0
  3307  0341                     u3025:
  3308  0341  1003               	clrc
  3309  0342  0DF0               	rlf	(___lldiv@divisor),f
  3310  0343  0DF1               	rlf	(___lldiv@divisor+1),f
  3311  0344  0DF2               	rlf	(___lldiv@divisor+2),f
  3312  0345  0DF3               	rlf	(___lldiv@divisor+3),f
  3313  0346  0BF8               	decfsz	(??___lldiv+0)+0
  3314  0347  2B41               	goto	u3025
  3315                           	line	14
  3316  0348  3001               	movlw	(01h)
  3317  0349  00F8               	movwf	(??___lldiv+0)+0
  3318  034A  0878               	movf	(??___lldiv+0)+0,w
  3319  034B  07FD               	addwf	(___lldiv@counter),f
  3320  034C  2B4D               	goto	l4070
  3321                           	line	15
  3322                           	
  3323  034D                     l2381:	
  3324                           	line	12
  3325                           	
  3326  034D                     l4070:	
  3327  034D  1FF3               	btfss	(___lldiv@divisor+3),(31)&7
  3328  034E  2B50               	goto	u3031
  3329  034F  2B51               	goto	u3030
  3330  0350                     u3031:
  3331  0350  2B3F               	goto	l4068
  3332  0351                     u3030:
  3333  0351  2B53               	goto	l4072
  3334                           	
  3335  0352                     l2383:	
  3336  0352  2B53               	goto	l4072
  3337                           	line	16
  3338                           	
  3339  0353                     l2384:	
  3340                           	line	17
  3341                           	
  3342  0353                     l4072:	
  3343  0353  3001               	movlw	01h
  3344  0354  00F8               	movwf	(??___lldiv+0)+0
  3345  0355                     u3045:
  3346  0355  1003               	clrc
  3347  0356  0DF9               	rlf	(___lldiv@quotient),f
  3348  0357  0DFA               	rlf	(___lldiv@quotient+1),f
  3349  0358  0DFB               	rlf	(___lldiv@quotient+2),f
  3350  0359  0DFC               	rlf	(___lldiv@quotient+3),f
  3351  035A  0BF8               	decfsz	(??___lldiv+0)+0
  3352  035B  2B55               	goto	u3045
  3353                           	line	18
  3354                           	
  3355  035C                     l4074:	
  3356  035C  0873               	movf	(___lldiv@divisor+3),w
  3357  035D  0277               	subwf	(___lldiv@dividend+3),w
  3358  035E  1D03               	skipz
  3359  035F  2B6A               	goto	u3055
  3360  0360  0872               	movf	(___lldiv@divisor+2),w
  3361  0361  0276               	subwf	(___lldiv@dividend+2),w
  3362  0362  1D03               	skipz
  3363  0363  2B6A               	goto	u3055
  3364  0364  0871               	movf	(___lldiv@divisor+1),w
  3365  0365  0275               	subwf	(___lldiv@dividend+1),w
  3366  0366  1D03               	skipz
  3367  0367  2B6A               	goto	u3055
  3368  0368  0870               	movf	(___lldiv@divisor),w
  3369  0369  0274               	subwf	(___lldiv@dividend),w
  3370  036A                     u3055:
  3371  036A  1C03               	skipc
  3372  036B  2B6D               	goto	u3051
  3373  036C  2B6E               	goto	u3050
  3374  036D                     u3051:
  3375  036D  2B7E               	goto	l4080
  3376  036E                     u3050:
  3377                           	line	19
  3378                           	
  3379  036E                     l4076:	
  3380  036E  0870               	movf	(___lldiv@divisor),w
  3381  036F  02F4               	subwf	(___lldiv@dividend),f
  3382  0370  0871               	movf	(___lldiv@divisor+1),w
  3383  0371  1C03               	skipc
  3384  0372  0F71               	incfsz	(___lldiv@divisor+1),w
  3385  0373  02F5               	subwf	(___lldiv@dividend+1),f
  3386  0374  0872               	movf	(___lldiv@divisor+2),w
  3387  0375  1C03               	skipc
  3388  0376  0F72               	incfsz	(___lldiv@divisor+2),w
  3389  0377  02F6               	subwf	(___lldiv@dividend+2),f
  3390  0378  0873               	movf	(___lldiv@divisor+3),w
  3391  0379  1C03               	skipc
  3392  037A  0F73               	incfsz	(___lldiv@divisor+3),w
  3393  037B  02F7               	subwf	(___lldiv@dividend+3),f
  3394                           	line	20
  3395                           	
  3396  037C                     l4078:	
  3397  037C  1479               	bsf	(___lldiv@quotient)+(0/8),(0)&7
  3398  037D  2B7E               	goto	l4080
  3399                           	line	21
  3400                           	
  3401  037E                     l2385:	
  3402                           	line	22
  3403                           	
  3404  037E                     l4080:	
  3405  037E  3001               	movlw	01h
  3406  037F                     u3065:
  3407  037F  1003               	clrc
  3408  0380  0CF3               	rrf	(___lldiv@divisor+3),f
  3409  0381  0CF2               	rrf	(___lldiv@divisor+2),f
  3410  0382  0CF1               	rrf	(___lldiv@divisor+1),f
  3411  0383  0CF0               	rrf	(___lldiv@divisor),f
  3412  0384  3EFF               	addlw	-1
  3413  0385  1D03               	skipz
  3414  0386  2B7F               	goto	u3065
  3415                           
  3416                           	line	23
  3417                           	
  3418  0387                     l4082:	
  3419  0387  3001               	movlw	low(01h)
  3420  0388  02FD               	subwf	(___lldiv@counter),f
  3421  0389  1D03               	btfss	status,2
  3422  038A  2B8C               	goto	u3071
  3423  038B  2B8D               	goto	u3070
  3424  038C                     u3071:
  3425  038C  2B53               	goto	l4072
  3426  038D                     u3070:
  3427  038D  2B8F               	goto	l4084
  3428                           	
  3429  038E                     l2386:	
  3430  038E  2B8F               	goto	l4084
  3431                           	line	24
  3432                           	
  3433  038F                     l2380:	
  3434                           	line	25
  3435                           	
  3436  038F                     l4084:	
  3437  038F  087C               	movf	(___lldiv@quotient+3),w
  3438  0390  00F3               	movwf	(?___lldiv+3)
  3439  0391  087B               	movf	(___lldiv@quotient+2),w
  3440  0392  00F2               	movwf	(?___lldiv+2)
  3441  0393  087A               	movf	(___lldiv@quotient+1),w
  3442  0394  00F1               	movwf	(?___lldiv+1)
  3443  0395  0879               	movf	(___lldiv@quotient),w
  3444  0396  00F0               	movwf	(?___lldiv)
  3445                           
  3446  0397  2B98               	goto	l2387
  3447                           	
  3448  0398                     l4086:	
  3449                           	line	26
  3450                           	
  3451  0398                     l2387:	
  3452  0398  0008               	return
  3453                           	opt stack 0
  3454                           GLOBAL	__end_of___lldiv
  3455  0399                     	__end_of___lldiv:
  3456 ;; =============== function ___lldiv ends ============
  3457                           
  3458                           	signat	___lldiv,8316
  3459                           	global	___llmod
  3460                           psect	text363,local,class=CODE,delta=2
  3461                           global __ptext363
  3462  0269                     __ptext363:
  3463                           
  3464 ;; *************** function ___llmod *****************
  3465 ;; Defined at:
  3466 ;;		line 5 in file "C:\Program Files (x86)\HI-TECH Software\PICC\9.83\sources\llmod.c"
  3467 ;; Parameters:    Size  Location     Type
  3468 ;;  divisor         4    0[COMMON] unsigned long 
  3469 ;;  dividend        4    4[COMMON] unsigned long 
  3470 ;; Auto vars:     Size  Location     Type
  3471 ;;  counter         1    9[COMMON] unsigned char 
  3472 ;; Return value:  Size  Location     Type
  3473 ;;                  4    0[COMMON] unsigned long 
  3474 ;; Registers used:
  3475 ;;		wreg, status,2, status,0
  3476 ;; Tracked objects:
  3477 ;;		On entry : 0/0
  3478 ;;		On exit  : 0/0
  3479 ;;		Unchanged: 0/0
  3480 ;; Data sizes:     COMMON   BANK0   BANK1   BANK3   BANK2
  3481 ;;      Params:         8       0       0       0       0
  3482 ;;      Locals:         1       0       0       0       0
  3483 ;;      Temps:          1       0       0       0       0
  3484 ;;      Totals:        10       0       0       0       0
  3485 ;;Total ram usage:       10 bytes
  3486 ;; Hardware stack levels used:    1
  3487 ;; This function calls:
  3488 ;;		Nothing
  3489 ;; This function is called by:
  3490 ;;		_START
  3491 ;; This function uses a non-reentrant model
  3492 ;;
  3493                           psect	text363
  3494                           	file	"C:\Program Files (x86)\HI-TECH Software\PICC\9.83\sources\llmod.c"
  3495                           	line	5
  3496                           	global	__size_of___llmod
  3497  005C                     	__size_of___llmod	equ	__end_of___llmod-___llmod
  3498                           	
  3499  0269                     ___llmod:	
  3500                           	opt	stack 5
  3501                           ; Regs used in ___llmod: [wreg+status,2+status,0]
  3502                           	line	8
  3503                           	
  3504  0269                     l4044:	
  3505  0269  0873               	movf	(___llmod@divisor+3),w
  3506  026A  0472               	iorwf	(___llmod@divisor+2),w
  3507  026B  0471               	iorwf	(___llmod@divisor+1),w
  3508  026C  0470               	iorwf	(___llmod@divisor),w
  3509  026D  1903               	skipnz
  3510  026E  2A70               	goto	u2951
  3511  026F  2A71               	goto	u2950
  3512  0270                     u2951:
  3513  0270  2ABB               	goto	l4060
  3514  0271                     u2950:
  3515                           	line	9
  3516                           	
  3517  0271                     l4046:	
  3518  0271  01F9               	clrf	(___llmod@counter)
  3519  0272  1403               	bsf	status,0
  3520  0273  0DF9               	rlf	(___llmod@counter),f
  3521                           	line	10
  3522  0274  2A83               	goto	l4050
  3523                           	
  3524  0275                     l2363:	
  3525                           	line	11
  3526                           	
  3527  0275                     l4048:	
  3528  0275  3001               	movlw	01h
  3529  0276  00F8               	movwf	(??___llmod+0)+0
  3530  0277                     u2965:
  3531  0277  1003               	clrc
  3532  0278  0DF0               	rlf	(___llmod@divisor),f
  3533  0279  0DF1               	rlf	(___llmod@divisor+1),f
  3534  027A  0DF2               	rlf	(___llmod@divisor+2),f
  3535  027B  0DF3               	rlf	(___llmod@divisor+3),f
  3536  027C  0BF8               	decfsz	(??___llmod+0)+0
  3537  027D  2A77               	goto	u2965
  3538                           	line	12
  3539  027E  3001               	movlw	(01h)
  3540  027F  00F8               	movwf	(??___llmod+0)+0
  3541  0280  0878               	movf	(??___llmod+0)+0,w
  3542  0281  07F9               	addwf	(___llmod@counter),f
  3543  0282  2A83               	goto	l4050
  3544                           	line	13
  3545                           	
  3546  0283                     l2362:	
  3547                           	line	10
  3548                           	
  3549  0283                     l4050:	
  3550  0283  1FF3               	btfss	(___llmod@divisor+3),(31)&7
  3551  0284  2A86               	goto	u2971
  3552  0285  2A87               	goto	u2970
  3553  0286                     u2971:
  3554  0286  2A75               	goto	l4048
  3555  0287                     u2970:
  3556  0287  2A89               	goto	l4052
  3557                           	
  3558  0288                     l2364:	
  3559  0288  2A89               	goto	l4052
  3560                           	line	14
  3561                           	
  3562  0289                     l2365:	
  3563                           	line	15
  3564                           	
  3565  0289                     l4052:	
  3566  0289  0873               	movf	(___llmod@divisor+3),w
  3567  028A  0277               	subwf	(___llmod@dividend+3),w
  3568  028B  1D03               	skipz
  3569  028C  2A97               	goto	u2985
  3570  028D  0872               	movf	(___llmod@divisor+2),w
  3571  028E  0276               	subwf	(___llmod@dividend+2),w
  3572  028F  1D03               	skipz
  3573  0290  2A97               	goto	u2985
  3574  0291  0871               	movf	(___llmod@divisor+1),w
  3575  0292  0275               	subwf	(___llmod@dividend+1),w
  3576  0293  1D03               	skipz
  3577  0294  2A97               	goto	u2985
  3578  0295  0870               	movf	(___llmod@divisor),w
  3579  0296  0274               	subwf	(___llmod@dividend),w
  3580  0297                     u2985:
  3581  0297  1C03               	skipc
  3582  0298  2A9A               	goto	u2981
  3583  0299  2A9B               	goto	u2980
  3584  029A                     u2981:
  3585  029A  2AAA               	goto	l4056
  3586  029B                     u2980:
  3587                           	line	16
  3588                           	
  3589  029B                     l4054:	
  3590  029B  0870               	movf	(___llmod@divisor),w
  3591  029C  02F4               	subwf	(___llmod@dividend),f
  3592  029D  0871               	movf	(___llmod@divisor+1),w
  3593  029E  1C03               	skipc
  3594  029F  0F71               	incfsz	(___llmod@divisor+1),w
  3595  02A0  02F5               	subwf	(___llmod@dividend+1),f
  3596  02A1  0872               	movf	(___llmod@divisor+2),w
  3597  02A2  1C03               	skipc
  3598  02A3  0F72               	incfsz	(___llmod@divisor+2),w
  3599  02A4  02F6               	subwf	(___llmod@dividend+2),f
  3600  02A5  0873               	movf	(___llmod@divisor+3),w
  3601  02A6  1C03               	skipc
  3602  02A7  0F73               	incfsz	(___llmod@divisor+3),w
  3603  02A8  02F7               	subwf	(___llmod@dividend+3),f
  3604  02A9  2AAA               	goto	l4056
  3605                           	
  3606  02AA                     l2366:	
  3607                           	line	17
  3608                           	
  3609  02AA                     l4056:	
  3610  02AA  3001               	movlw	01h
  3611  02AB                     u2995:
  3612  02AB  1003               	clrc
  3613  02AC  0CF3               	rrf	(___llmod@divisor+3),f
  3614  02AD  0CF2               	rrf	(___llmod@divisor+2),f
  3615  02AE  0CF1               	rrf	(___llmod@divisor+1),f
  3616  02AF  0CF0               	rrf	(___llmod@divisor),f
  3617  02B0  3EFF               	addlw	-1
  3618  02B1  1D03               	skipz
  3619  02B2  2AAB               	goto	u2995
  3620                           
  3621                           	line	18
  3622                           	
  3623  02B3                     l4058:	
  3624  02B3  3001               	movlw	low(01h)
  3625  02B4  02F9               	subwf	(___llmod@counter),f
  3626  02B5  1D03               	btfss	status,2
  3627  02B6  2AB8               	goto	u3001
  3628  02B7  2AB9               	goto	u3000
  3629  02B8                     u3001:
  3630  02B8  2A89               	goto	l4052
  3631  02B9                     u3000:
  3632  02B9  2ABB               	goto	l4060
  3633                           	
  3634  02BA                     l2367:	
  3635  02BA  2ABB               	goto	l4060
  3636                           	line	19
  3637                           	
  3638  02BB                     l2361:	
  3639                           	line	20
  3640                           	
  3641  02BB                     l4060:	
  3642  02BB  0877               	movf	(___llmod@dividend+3),w
  3643  02BC  00F3               	movwf	(?___llmod+3)
  3644  02BD  0876               	movf	(___llmod@dividend+2),w
  3645  02BE  00F2               	movwf	(?___llmod+2)
  3646  02BF  0875               	movf	(___llmod@dividend+1),w
  3647  02C0  00F1               	movwf	(?___llmod+1)
  3648  02C1  0874               	movf	(___llmod@dividend),w
  3649  02C2  00F0               	movwf	(?___llmod)
  3650                           
  3651  02C3  2AC4               	goto	l2368
  3652                           	
  3653  02C4                     l4062:	
  3654                           	line	21
  3655                           	
  3656  02C4                     l2368:	
  3657  02C4  0008               	return
  3658                           	opt stack 0
  3659                           GLOBAL	__end_of___llmod
  3660  02C5                     	__end_of___llmod:
  3661 ;; =============== function ___llmod ends ============
  3662                           
  3663                           	signat	___llmod,8316
  3664                           	global	___awdiv
  3665                           psect	text364,local,class=CODE,delta=2
  3666                           global __ptext364
  3667  0399                     __ptext364:
  3668                           
  3669 ;; *************** function ___awdiv *****************
  3670 ;; Defined at:
  3671 ;;		line 5 in file "C:\Program Files (x86)\HI-TECH Software\PICC\9.83\sources\awdiv.c"
  3672 ;; Parameters:    Size  Location     Type
  3673 ;;  divisor         2    0[COMMON] int 
  3674 ;;  dividend        2    2[COMMON] int 
  3675 ;; Auto vars:     Size  Location     Type
  3676 ;;  quotient        2    7[COMMON] int 
  3677 ;;  sign            1    6[COMMON] unsigned char 
  3678 ;;  counter         1    5[COMMON] unsigned char 
  3679 ;; Return value:  Size  Location     Type
  3680 ;;                  2    0[COMMON] int 
  3681 ;; Registers used:
  3682 ;;		wreg, status,2, status,0
  3683 ;; Tracked objects:
  3684 ;;		On entry : 0/0
  3685 ;;		On exit  : 0/0
  3686 ;;		Unchanged: 0/0
  3687 ;; Data sizes:     COMMON   BANK0   BANK1   BANK3   BANK2
  3688 ;;      Params:         4       0       0       0       0
  3689 ;;      Locals:         4       0       0       0       0
  3690 ;;      Temps:          1       0       0       0       0
  3691 ;;      Totals:         9       0       0       0       0
  3692 ;;Total ram usage:        9 bytes
  3693 ;; Hardware stack levels used:    1
  3694 ;; This function calls:
  3695 ;;		Nothing
  3696 ;; This function is called by:
  3697 ;;		_getkey
  3698 ;;		_START
  3699 ;; This function uses a non-reentrant model
  3700 ;;
  3701                           psect	text364
  3702                           	file	"C:\Program Files (x86)\HI-TECH Software\PICC\9.83\sources\awdiv.c"
  3703                           	line	5
  3704                           	global	__size_of___awdiv
  3705  0074                     	__size_of___awdiv	equ	__end_of___awdiv-___awdiv
  3706                           	
  3707  0399                     ___awdiv:	
  3708                           	opt	stack 5
  3709                           ; Regs used in ___awdiv: [wreg+status,2+status,0]
  3710                           	line	9
  3711                           	
  3712  0399                     l4004:	
  3713  0399  01F6               	clrf	(___awdiv@sign)
  3714                           	line	10
  3715  039A  1FF1               	btfss	(___awdiv@divisor+1),7
  3716  039B  2B9D               	goto	u2851
  3717  039C  2B9E               	goto	u2850
  3718  039D                     u2851:
  3719  039D  2BA7               	goto	l4008
  3720  039E                     u2850:
  3721                           	line	11
  3722                           	
  3723  039E                     l4006:	
  3724  039E  09F0               	comf	(___awdiv@divisor),f
  3725  039F  09F1               	comf	(___awdiv@divisor+1),f
  3726  03A0  0AF0               	incf	(___awdiv@divisor),f
  3727  03A1  1903               	skipnz
  3728  03A2  0AF1               	incf	(___awdiv@divisor+1),f
  3729                           	line	12
  3730  03A3  01F6               	clrf	(___awdiv@sign)
  3731  03A4  1403               	bsf	status,0
  3732  03A5  0DF6               	rlf	(___awdiv@sign),f
  3733  03A6  2BA7               	goto	l4008
  3734                           	line	13
  3735                           	
  3736  03A7                     l2348:	
  3737                           	line	14
  3738                           	
  3739  03A7                     l4008:	
  3740  03A7  1FF3               	btfss	(___awdiv@dividend+1),7
  3741  03A8  2BAA               	goto	u2861
  3742  03A9  2BAB               	goto	u2860
  3743  03AA                     u2861:
  3744  03AA  2BB5               	goto	l4014
  3745  03AB                     u2860:
  3746                           	line	15
  3747                           	
  3748  03AB                     l4010:	
  3749  03AB  09F2               	comf	(___awdiv@dividend),f
  3750  03AC  09F3               	comf	(___awdiv@dividend+1),f
  3751  03AD  0AF2               	incf	(___awdiv@dividend),f
  3752  03AE  1903               	skipnz
  3753  03AF  0AF3               	incf	(___awdiv@dividend+1),f
  3754                           	line	16
  3755                           	
  3756  03B0                     l4012:	
  3757  03B0  3001               	movlw	(01h)
  3758  03B1  00F4               	movwf	(??___awdiv+0)+0
  3759  03B2  0874               	movf	(??___awdiv+0)+0,w
  3760  03B3  06F6               	xorwf	(___awdiv@sign),f
  3761  03B4  2BB5               	goto	l4014
  3762                           	line	17
  3763                           	
  3764  03B5                     l2349:	
  3765                           	line	18
  3766                           	
  3767  03B5                     l4014:	
  3768  03B5  01F7               	clrf	(___awdiv@quotient)
  3769  03B6  01F8               	clrf	(___awdiv@quotient+1)
  3770                           	line	19
  3771                           	
  3772  03B7                     l4016:	
  3773  03B7  0871               	movf	(___awdiv@divisor+1),w
  3774  03B8  0470               	iorwf	(___awdiv@divisor),w
  3775  03B9  1903               	skipnz
  3776  03BA  2BBC               	goto	u2871
  3777  03BB  2BBD               	goto	u2870
  3778  03BC                     u2871:
  3779  03BC  2BFB               	goto	l4036
  3780  03BD                     u2870:
  3781                           	line	20
  3782                           	
  3783  03BD                     l4018:	
  3784  03BD  01F5               	clrf	(___awdiv@counter)
  3785  03BE  1403               	bsf	status,0
  3786  03BF  0DF5               	rlf	(___awdiv@counter),f
  3787                           	line	21
  3788  03C0  2BCD               	goto	l4024
  3789                           	
  3790  03C1                     l2352:	
  3791                           	line	22
  3792                           	
  3793  03C1                     l4020:	
  3794  03C1  3001               	movlw	01h
  3795                           	
  3796  03C2                     u2885:
  3797  03C2  1003               	clrc
  3798  03C3  0DF0               	rlf	(___awdiv@divisor),f
  3799  03C4  0DF1               	rlf	(___awdiv@divisor+1),f
  3800  03C5  3EFF               	addlw	-1
  3801  03C6  1D03               	skipz
  3802  03C7  2BC2               	goto	u2885
  3803                           	line	23
  3804                           	
  3805  03C8                     l4022:	
  3806  03C8  3001               	movlw	(01h)
  3807  03C9  00F4               	movwf	(??___awdiv+0)+0
  3808  03CA  0874               	movf	(??___awdiv+0)+0,w
  3809  03CB  07F5               	addwf	(___awdiv@counter),f
  3810  03CC  2BCD               	goto	l4024
  3811                           	line	24
  3812                           	
  3813  03CD                     l2351:	
  3814                           	line	21
  3815                           	
  3816  03CD                     l4024:	
  3817  03CD  1FF1               	btfss	(___awdiv@divisor+1),(15)&7
  3818  03CE  2BD0               	goto	u2891
  3819  03CF  2BD1               	goto	u2890
  3820  03D0                     u2891:
  3821  03D0  2BC1               	goto	l4020
  3822  03D1                     u2890:
  3823  03D1  2BD3               	goto	l4026
  3824                           	
  3825  03D2                     l2353:	
  3826  03D2  2BD3               	goto	l4026
  3827                           	line	25
  3828                           	
  3829  03D3                     l2354:	
  3830                           	line	26
  3831                           	
  3832  03D3                     l4026:	
  3833  03D3  3001               	movlw	01h
  3834                           	
  3835  03D4                     u2905:
  3836  03D4  1003               	clrc
  3837  03D5  0DF7               	rlf	(___awdiv@quotient),f
  3838  03D6  0DF8               	rlf	(___awdiv@quotient+1),f
  3839  03D7  3EFF               	addlw	-1
  3840  03D8  1D03               	skipz
  3841  03D9  2BD4               	goto	u2905
  3842                           	line	27
  3843  03DA  0871               	movf	(___awdiv@divisor+1),w
  3844  03DB  0273               	subwf	(___awdiv@dividend+1),w
  3845  03DC  1D03               	skipz
  3846  03DD  2BE0               	goto	u2915
  3847  03DE  0870               	movf	(___awdiv@divisor),w
  3848  03DF  0272               	subwf	(___awdiv@dividend),w
  3849  03E0                     u2915:
  3850  03E0  1C03               	skipc
  3851  03E1  2BE3               	goto	u2911
  3852  03E2  2BE4               	goto	u2910
  3853  03E3                     u2911:
  3854  03E3  2BEC               	goto	l4032
  3855  03E4                     u2910:
  3856                           	line	28
  3857                           	
  3858  03E4                     l4028:	
  3859  03E4  0870               	movf	(___awdiv@divisor),w
  3860  03E5  02F2               	subwf	(___awdiv@dividend),f
  3861  03E6  0871               	movf	(___awdiv@divisor+1),w
  3862  03E7  1C03               	skipc
  3863  03E8  03F3               	decf	(___awdiv@dividend+1),f
  3864  03E9  02F3               	subwf	(___awdiv@dividend+1),f
  3865                           	line	29
  3866                           	
  3867  03EA                     l4030:	
  3868  03EA  1477               	bsf	(___awdiv@quotient)+(0/8),(0)&7
  3869  03EB  2BEC               	goto	l4032
  3870                           	line	30
  3871                           	
  3872  03EC                     l2355:	
  3873                           	line	31
  3874                           	
  3875  03EC                     l4032:	
  3876  03EC  3001               	movlw	01h
  3877                           	
  3878  03ED                     u2925:
  3879  03ED  1003               	clrc
  3880  03EE  0CF1               	rrf	(___awdiv@divisor+1),f
  3881  03EF  0CF0               	rrf	(___awdiv@divisor),f
  3882  03F0  3EFF               	addlw	-1
  3883  03F1  1D03               	skipz
  3884  03F2  2BED               	goto	u2925
  3885                           	line	32
  3886                           	
  3887  03F3                     l4034:	
  3888  03F3  3001               	movlw	low(01h)
  3889  03F4  02F5               	subwf	(___awdiv@counter),f
  3890  03F5  1D03               	btfss	status,2
  3891  03F6  2BF8               	goto	u2931
  3892  03F7  2BF9               	goto	u2930
  3893  03F8                     u2931:
  3894  03F8  2BD3               	goto	l4026
  3895  03F9                     u2930:
  3896  03F9  2BFB               	goto	l4036
  3897                           	
  3898  03FA                     l2356:	
  3899  03FA  2BFB               	goto	l4036
  3900                           	line	33
  3901                           	
  3902  03FB                     l2350:	
  3903                           	line	34
  3904                           	
  3905  03FB                     l4036:	
  3906  03FB  0876               	movf	(___awdiv@sign),w
  3907  03FC  1D03               	skipz
  3908  03FD  2BFF               	goto	u2940
  3909  03FE  2C05               	goto	l4040
  3910  03FF                     u2940:
  3911                           	line	35
  3912                           	
  3913  03FF                     l4038:	
  3914  03FF  09F7               	comf	(___awdiv@quotient),f
  3915  0400  09F8               	comf	(___awdiv@quotient+1),f
  3916  0401  0AF7               	incf	(___awdiv@quotient),f
  3917  0402  1903               	skipnz
  3918  0403  0AF8               	incf	(___awdiv@quotient+1),f
  3919  0404  2C05               	goto	l4040
  3920                           	
  3921  0405                     l2357:	
  3922                           	line	36
  3923                           	
  3924  0405                     l4040:	
  3925  0405  0878               	movf	(___awdiv@quotient+1),w
  3926  0406  01F1               	clrf	(?___awdiv+1)
  3927  0407  07F1               	addwf	(?___awdiv+1)
  3928  0408  0877               	movf	(___awdiv@quotient),w
  3929  0409  01F0               	clrf	(?___awdiv)
  3930  040A  07F0               	addwf	(?___awdiv)
  3931                           
  3932  040B  2C0C               	goto	l2358
  3933                           	
  3934  040C                     l4042:	
  3935                           	line	37
  3936                           	
  3937  040C                     l2358:	
  3938  040C  0008               	return
  3939                           	opt stack 0
  3940                           GLOBAL	__end_of___awdiv
  3941  040D                     	__end_of___awdiv:
  3942 ;; =============== function ___awdiv ends ============
  3943                           
  3944                           	signat	___awdiv,8314
  3945                           	global	___wmul
  3946                           psect	text365,local,class=CODE,delta=2
  3947                           global __ptext365
  3948  01AD                     __ptext365:
  3949                           
  3950 ;; *************** function ___wmul *****************
  3951 ;; Defined at:
  3952 ;;		line 3 in file "C:\Program Files (x86)\HI-TECH Software\PICC\9.83\sources\wmul.c"
  3953 ;; Parameters:    Size  Location     Type
  3954 ;;  multiplier      2    0[COMMON] unsigned int 
  3955 ;;  multiplicand    2    2[COMMON] unsigned int 
  3956 ;; Auto vars:     Size  Location     Type
  3957 ;;  product         2    4[COMMON] unsigned int 
  3958 ;; Return value:  Size  Location     Type
  3959 ;;                  2    0[COMMON] unsigned int 
  3960 ;; Registers used:
  3961 ;;		wreg, status,2, status,0
  3962 ;; Tracked objects:
  3963 ;;		On entry : 0/0
  3964 ;;		On exit  : 0/0
  3965 ;;		Unchanged: 0/0
  3966 ;; Data sizes:     COMMON   BANK0   BANK1   BANK3   BANK2
  3967 ;;      Params:         4       0       0       0       0
  3968 ;;      Locals:         2       0       0       0       0
  3969 ;;      Temps:          0       0       0       0       0
  3970 ;;      Totals:         6       0       0       0       0
  3971 ;;Total ram usage:        6 bytes
  3972 ;; Hardware stack levels used:    1
  3973 ;; This function calls:
  3974 ;;		Nothing
  3975 ;; This function is called by:
  3976 ;;		_START
  3977 ;; This function uses a non-reentrant model
  3978 ;;
  3979                           psect	text365
  3980                           	file	"C:\Program Files (x86)\HI-TECH Software\PICC\9.83\sources\wmul.c"
  3981                           	line	3
  3982                           	global	__size_of___wmul
  3983  002A                     	__size_of___wmul	equ	__end_of___wmul-___wmul
  3984                           	
  3985  01AD                     ___wmul:	
  3986                           	opt	stack 5
  3987                           ; Regs used in ___wmul: [wreg+status,2+status,0]
  3988                           	line	4
  3989                           	
  3990  01AD                     l3992:	
  3991  01AD  01F4               	clrf	(___wmul@product)
  3992  01AE  01F5               	clrf	(___wmul@product+1)
  3993  01AF  29B0               	goto	l3994
  3994                           	line	6
  3995                           	
  3996  01B0                     l2208:	
  3997                           	line	7
  3998                           	
  3999  01B0                     l3994:	
  4000  01B0  1C70               	btfss	(___wmul@multiplier),(0)&7
  4001  01B1  29B3               	goto	u2811
  4002  01B2  29B4               	goto	u2810
  4003  01B3                     u2811:
  4004  01B3  29BA               	goto	l2209
  4005  01B4                     u2810:
  4006                           	line	8
  4007                           	
  4008  01B4                     l3996:	
  4009  01B4  0872               	movf	(___wmul@multiplicand),w
  4010  01B5  07F4               	addwf	(___wmul@product),f
  4011  01B6  1803               	skipnc
  4012  01B7  0AF5               	incf	(___wmul@product+1),f
  4013  01B8  0873               	movf	(___wmul@multiplicand+1),w
  4014  01B9  07F5               	addwf	(___wmul@product+1),f
  4015                           	
  4016  01BA                     l2209:	
  4017                           	line	9
  4018  01BA  3001               	movlw	01h
  4019                           	
  4020  01BB                     u2825:
  4021  01BB  1003               	clrc
  4022  01BC  0DF2               	rlf	(___wmul@multiplicand),f
  4023  01BD  0DF3               	rlf	(___wmul@multiplicand+1),f
  4024  01BE  3EFF               	addlw	-1
  4025  01BF  1D03               	skipz
  4026  01C0  29BB               	goto	u2825
  4027                           	line	10
  4028                           	
  4029  01C1                     l3998:	
  4030  01C1  3001               	movlw	01h
  4031                           	
  4032  01C2                     u2835:
  4033  01C2  1003               	clrc
  4034  01C3  0CF1               	rrf	(___wmul@multiplier+1),f
  4035  01C4  0CF0               	rrf	(___wmul@multiplier),f
  4036  01C5  3EFF               	addlw	-1
  4037  01C6  1D03               	skipz
  4038  01C7  29C2               	goto	u2835
  4039                           	line	11
  4040  01C8  0871               	movf	((___wmul@multiplier+1)),w
  4041  01C9  0470               	iorwf	((___wmul@multiplier)),w
  4042  01CA  1D03               	skipz
  4043  01CB  29CD               	goto	u2841
  4044  01CC  29CE               	goto	u2840
  4045  01CD                     u2841:
  4046  01CD  29B0               	goto	l3994
  4047  01CE                     u2840:
  4048  01CE  29CF               	goto	l4000
  4049                           	
  4050  01CF                     l2210:	
  4051                           	line	12
  4052                           	
  4053  01CF                     l4000:	
  4054  01CF  0875               	movf	(___wmul@product+1),w
  4055  01D0  01F1               	clrf	(?___wmul+1)
  4056  01D1  07F1               	addwf	(?___wmul+1)
  4057  01D2  0874               	movf	(___wmul@product),w
  4058  01D3  01F0               	clrf	(?___wmul)
  4059  01D4  07F0               	addwf	(?___wmul)
  4060                           
  4061  01D5  29D6               	goto	l2211
  4062                           	
  4063  01D6                     l4002:	
  4064                           	line	13
  4065                           	
  4066  01D6                     l2211:	
  4067  01D6  0008               	return
  4068                           	opt stack 0
  4069                           GLOBAL	__end_of___wmul
  4070  01D7                     	__end_of___wmul:
  4071 ;; =============== function ___wmul ends ============
  4072                           
  4073                           	signat	___wmul,8314
  4074                           	global	_lcd_write
  4075                           psect	text366,local,class=CODE,delta=2
  4076                           global __ptext366
  4077  013D                     __ptext366:
  4078                           
  4079 ;; *************** function _lcd_write *****************
  4080 ;; Defined at:
  4081 ;;		line 23 in file "C:\Users\abdal\Desktop\University\Year 4\Second Semester\Real Time Lab\Experiments and Codes\todoBZ
       UID\lcd.c"
  4082 ;; Parameters:    Size  Location     Type
  4083 ;;  c               1    wreg     unsigned char 
  4084 ;; Auto vars:     Size  Location     Type
  4085 ;;  c               1    2[COMMON] unsigned char 
  4086 ;;  _dcnt           1    1[COMMON] unsigned char 
  4087 ;; Return value:  Size  Location     Type
  4088 ;;		None               void
  4089 ;; Registers used:
  4090 ;;		wreg, status,2, status,0
  4091 ;; Tracked objects:
  4092 ;;		On entry : 0/0
  4093 ;;		On exit  : 0/0
  4094 ;;		Unchanged: 0/0
  4095 ;; Data sizes:     COMMON   BANK0   BANK1   BANK3   BANK2
  4096 ;;      Params:         0       0       0       0       0
  4097 ;;      Locals:         2       0       0       0       0
  4098 ;;      Temps:          1       0       0       0       0
  4099 ;;      Totals:         3       0       0       0       0
  4100 ;;Total ram usage:        3 bytes
  4101 ;; Hardware stack levels used:    1
  4102 ;; This function calls:
  4103 ;;		Nothing
  4104 ;; This function is called by:
  4105 ;;		_lcd_clear
  4106 ;;		_lcd_puts
  4107 ;;		_lcd_goto
  4108 ;;		_lcd_init
  4109 ;; This function uses a non-reentrant model
  4110 ;;
  4111                           psect	text366
  4112                           	file	"C:\Users\abdal\Desktop\University\Year 4\Second Semester\Real Time Lab\Experiment
                                 s and Codes\todoBZUID\lcd.c"
  4113                           	line	23
  4114                           	global	__size_of_lcd_write
  4115  0025                     	__size_of_lcd_write	equ	__end_of_lcd_write-_lcd_write
  4116                           	
  4117  013D                     _lcd_write:	
  4118                           	opt	stack 4
  4119                           ; Regs used in _lcd_write: [wreg+status,2+status,0]
  4120                           ;lcd_write@c stored from wreg
  4121  013D  00F2               	movwf	(lcd_write@c)
  4122                           	line	24
  4123                           	
  4124  013E                     l3978:	
  4125                           ;lcd.c: 24: PORTD = (PORTD & 0x0F) | (c);
  4126  013E  1283               	bcf	status, 5	;RP0=0, select bank0
  4127  013F  1303               	bcf	status, 6	;RP1=0, select bank0
  4128  0140  0808               	movf	(8),w
  4129  0141  390F               	andlw	0Fh
  4130  0142  0472               	iorwf	(lcd_write@c),w
  4131  0143  0088               	movwf	(8)	;volatile
  4132                           	line	25
  4133                           	
  4134  0144                     l3980:	
  4135                           ;lcd.c: 25: ((RE1 = 1),(RE1=0));
  4136  0144  1489               	bsf	(73/8),(73)&7
  4137                           	
  4138  0145                     l3982:	
  4139  0145  1089               	bcf	(73/8),(73)&7
  4140                           	line	26
  4141                           ;lcd.c: 26: PORTD = (PORTD & 0x0F) | (c << 4);
  4142  0146  0872               	movf	(lcd_write@c),w
  4143  0147  00F0               	movwf	(??_lcd_write+0)+0
  4144  0148  3004               	movlw	04h
  4145  0149                     u2795:
  4146  0149  1003               	clrc
  4147  014A  0DF0               	rlf	(??_lcd_write+0)+0,f
  4148  014B  3EFF               	addlw	-1
  4149  014C  1D03               	skipz
  4150  014D  2949               	goto	u2795
  4151  014E  0808               	movf	(8),w
  4152  014F  390F               	andlw	0Fh
  4153  0150  0470               	iorwf	0+(??_lcd_write+0)+0,w
  4154  0151  0088               	movwf	(8)	;volatile
  4155                           	line	27
  4156                           	
  4157  0152                     l3984:	
  4158                           ;lcd.c: 27: ((RE1 = 1),(RE1=0));
  4159  0152  1489               	bsf	(73/8),(73)&7
  4160                           	
  4161  0153                     l3986:	
  4162  0153  1089               	bcf	(73/8),(73)&7
  4163                           	line	28
  4164                           	
  4165  0154                     l3988:	
  4166                           ;lcd.c: 28: { unsigned char _dcnt; _dcnt = (40)/((12*1000L)/(4*1000L))|1; while(--_dcnt 
                                 != 0) continue; };
  4167  0154  300D               	movlw	(0Dh)
  4168  0155  00F0               	movwf	(??_lcd_write+0)+0
  4169  0156  0870               	movf	(??_lcd_write+0)+0,w
  4170  0157  00F1               	movwf	(lcd_write@_dcnt)
  4171  0158  295A               	goto	l3990
  4172                           	
  4173  0159                     l1496:	
  4174  0159  295A               	goto	l3990
  4175                           	
  4176  015A                     l1495:	
  4177                           	
  4178  015A                     l3990:	
  4179  015A  3001               	movlw	low(01h)
  4180  015B  02F1               	subwf	(lcd_write@_dcnt),f
  4181  015C  1D03               	btfss	status,2
  4182  015D  295F               	goto	u2801
  4183  015E  2960               	goto	u2800
  4184  015F                     u2801:
  4185  015F  295A               	goto	l3990
  4186  0160                     u2800:
  4187  0160  2961               	goto	l1498
  4188                           	
  4189  0161                     l1497:	
  4190                           	line	29
  4191                           	
  4192  0161                     l1498:	
  4193  0161  0008               	return
  4194                           	opt stack 0
  4195                           GLOBAL	__end_of_lcd_write
  4196  0162                     	__end_of_lcd_write:
  4197 ;; =============== function _lcd_write ends ============
  4198                           
  4199                           	signat	_lcd_write,4216
  4200                           	global	_lcd_putch
  4201                           psect	text367,local,class=CODE,delta=2
  4202                           global __ptext367
  4203  0187                     __ptext367:
  4204                           
  4205 ;; *************** function _lcd_putch *****************
  4206 ;; Defined at:
  4207 ;;		line 43 in file "C:\Users\abdal\Desktop\University\Year 4\Second Semester\Real Time Lab\Experiments and Codes\todoBZ
       UID\lcd.c"
  4208 ;; Parameters:    Size  Location     Type
  4209 ;;  c               1    wreg     unsigned char 
  4210 ;; Auto vars:     Size  Location     Type
  4211 ;;  c               1    2[COMMON] unsigned char 
  4212 ;;  _dcnt           1    1[COMMON] unsigned char 
  4213 ;; Return value:  Size  Location     Type
  4214 ;;		None               void
  4215 ;; Registers used:
  4216 ;;		wreg, status,2, status,0
  4217 ;; Tracked objects:
  4218 ;;		On entry : 0/0
  4219 ;;		On exit  : 0/0
  4220 ;;		Unchanged: 0/0
  4221 ;; Data sizes:     COMMON   BANK0   BANK1   BANK3   BANK2
  4222 ;;      Params:         0       0       0       0       0
  4223 ;;      Locals:         2       0       0       0       0
  4224 ;;      Temps:          1       0       0       0       0
  4225 ;;      Totals:         3       0       0       0       0
  4226 ;;Total ram usage:        3 bytes
  4227 ;; Hardware stack levels used:    1
  4228 ;; This function calls:
  4229 ;;		Nothing
  4230 ;; This function is called by:
  4231 ;;		_putchar
  4232 ;;		_START
  4233 ;; This function uses a non-reentrant model
  4234 ;;
  4235                           psect	text367
  4236                           	file	"C:\Users\abdal\Desktop\University\Year 4\Second Semester\Real Time Lab\Experiment
                                 s and Codes\todoBZUID\lcd.c"
  4237                           	line	43
  4238                           	global	__size_of_lcd_putch
  4239  0026                     	__size_of_lcd_putch	equ	__end_of_lcd_putch-_lcd_putch
  4240                           	
  4241  0187                     _lcd_putch:	
  4242                           	opt	stack 6
  4243                           ; Regs used in _lcd_putch: [wreg+status,2+status,0]
  4244                           ;lcd_putch@c stored from wreg
  4245  0187  00F2               	movwf	(lcd_putch@c)
  4246                           	line	44
  4247                           	
  4248  0188                     l3962:	
  4249                           ;lcd.c: 44: RE0 = 1;
  4250  0188  1283               	bcf	status, 5	;RP0=0, select bank0
  4251  0189  1303               	bcf	status, 6	;RP1=0, select bank0
  4252  018A  1409               	bsf	(72/8),(72)&7
  4253                           	line	45
  4254                           	
  4255  018B                     l3964:	
  4256                           ;lcd.c: 45: PORTD = (PORTD & 0x0F) | (c);
  4257  018B  0808               	movf	(8),w
  4258  018C  390F               	andlw	0Fh
  4259  018D  0472               	iorwf	(lcd_putch@c),w
  4260  018E  0088               	movwf	(8)	;volatile
  4261                           	line	46
  4262                           	
  4263  018F                     l3966:	
  4264                           ;lcd.c: 46: ((RE1 = 1),(RE1=0));
  4265  018F  1489               	bsf	(73/8),(73)&7
  4266                           	
  4267  0190                     l3968:	
  4268  0190  1089               	bcf	(73/8),(73)&7
  4269                           	line	47
  4270                           ;lcd.c: 47: PORTD = (PORTD & 0x0F) | (c << 4);
  4271  0191  0872               	movf	(lcd_putch@c),w
  4272  0192  00F0               	movwf	(??_lcd_putch+0)+0
  4273  0193  3004               	movlw	04h
  4274  0194                     u2775:
  4275  0194  1003               	clrc
  4276  0195  0DF0               	rlf	(??_lcd_putch+0)+0,f
  4277  0196  3EFF               	addlw	-1
  4278  0197  1D03               	skipz
  4279  0198  2994               	goto	u2775
  4280  0199  0808               	movf	(8),w
  4281  019A  390F               	andlw	0Fh
  4282  019B  0470               	iorwf	0+(??_lcd_putch+0)+0,w
  4283  019C  0088               	movwf	(8)	;volatile
  4284                           	line	48
  4285                           	
  4286  019D                     l3970:	
  4287                           ;lcd.c: 48: ((RE1 = 1),(RE1=0));
  4288  019D  1489               	bsf	(73/8),(73)&7
  4289                           	
  4290  019E                     l3972:	
  4291  019E  1089               	bcf	(73/8),(73)&7
  4292                           	line	49
  4293                           	
  4294  019F                     l3974:	
  4295                           ;lcd.c: 49: { unsigned char _dcnt; _dcnt = (40)/((12*1000L)/(4*1000L))|1; while(--_dcnt 
                                 != 0) continue; };
  4296  019F  300D               	movlw	(0Dh)
  4297  01A0  00F0               	movwf	(??_lcd_putch+0)+0
  4298  01A1  0870               	movf	(??_lcd_putch+0)+0,w
  4299  01A2  00F1               	movwf	(lcd_putch@_dcnt)
  4300  01A3  29A5               	goto	l3976
  4301                           	
  4302  01A4                     l1511:	
  4303  01A4  29A5               	goto	l3976
  4304                           	
  4305  01A5                     l1510:	
  4306                           	
  4307  01A5                     l3976:	
  4308  01A5  3001               	movlw	low(01h)
  4309  01A6  02F1               	subwf	(lcd_putch@_dcnt),f
  4310  01A7  1D03               	btfss	status,2
  4311  01A8  29AA               	goto	u2781
  4312  01A9  29AB               	goto	u2780
  4313  01AA                     u2781:
  4314  01AA  29A5               	goto	l3976
  4315  01AB                     u2780:
  4316  01AB  29AC               	goto	l1513
  4317                           	
  4318  01AC                     l1512:	
  4319                           	line	50
  4320                           	
  4321  01AC                     l1513:	
  4322  01AC  0008               	return
  4323                           	opt stack 0
  4324                           GLOBAL	__end_of_lcd_putch
  4325  01AD                     	__end_of_lcd_putch:
  4326 ;; =============== function _lcd_putch ends ============
  4327                           
  4328                           	signat	_lcd_putch,4216
  4329                           	global	_DelayMs
  4330                           psect	text368,local,class=CODE,delta=2
  4331                           global __ptext368
  4332  00F8                     __ptext368:
  4333                           
  4334 ;; *************** function _DelayMs *****************
  4335 ;; Defined at:
  4336 ;;		line 11 in file "C:\Users\abdal\Desktop\University\Year 4\Second Semester\Real Time Lab\Experiments and Codes\todoBZ
       UID\delay.c"
  4337 ;; Parameters:    Size  Location     Type
  4338 ;;  cnt             1    wreg     unsigned char 
  4339 ;; Auto vars:     Size  Location     Type
  4340 ;;  cnt             1    1[COMMON] unsigned char 
  4341 ;;  _dcnt           1    3[COMMON] unsigned char 
  4342 ;;  i               1    2[COMMON] unsigned char 
  4343 ;; Return value:  Size  Location     Type
  4344 ;;		None               void
  4345 ;; Registers used:
  4346 ;;		wreg, status,2, status,0
  4347 ;; Tracked objects:
  4348 ;;		On entry : 0/0
  4349 ;;		On exit  : 0/0
  4350 ;;		Unchanged: 0/0
  4351 ;; Data sizes:     COMMON   BANK0   BANK1   BANK3   BANK2
  4352 ;;      Params:         0       0       0       0       0
  4353 ;;      Locals:         3       0       0       0       0
  4354 ;;      Temps:          1       0       0       0       0
  4355 ;;      Totals:         4       0       0       0       0
  4356 ;;Total ram usage:        4 bytes
  4357 ;; Hardware stack levels used:    1
  4358 ;; This function calls:
  4359 ;;		Nothing
  4360 ;; This function is called by:
  4361 ;;		_main
  4362 ;;		_getkey
  4363 ;;		_lcd_clear
  4364 ;;		_lcd_init
  4365 ;; This function uses a non-reentrant model
  4366 ;;
  4367                           psect	text368
  4368                           	file	"C:\Users\abdal\Desktop\University\Year 4\Second Semester\Real Time Lab\Experiment
                                 s and Codes\todoBZUID\delay.c"
  4369                           	line	11
  4370                           	global	__size_of_DelayMs
  4371  0021                     	__size_of_DelayMs	equ	__end_of_DelayMs-_DelayMs
  4372                           	
  4373  00F8                     _DelayMs:	
  4374                           	opt	stack 5
  4375                           ; Regs used in _DelayMs: [wreg+status,2+status,0]
  4376                           ;DelayMs@cnt stored from wreg
  4377  00F8  00F1               	movwf	(DelayMs@cnt)
  4378                           	line	20
  4379                           ;delay.c: 19: unsigned char i;
  4380                           ;delay.c: 20: do {
  4381                           	
  4382  00F9                     l3:	
  4383                           	line	21
  4384                           	
  4385  00F9                     l3954:	
  4386                           ;delay.c: 21: i = 4;
  4387  00F9  3004               	movlw	(04h)
  4388  00FA  00F0               	movwf	(??_DelayMs+0)+0
  4389  00FB  0870               	movf	(??_DelayMs+0)+0,w
  4390  00FC  00F2               	movwf	(DelayMs@i)
  4391                           	line	22
  4392                           ;delay.c: 22: do {
  4393                           	
  4394  00FD                     l4:	
  4395                           	line	23
  4396                           ;delay.c: 23: { unsigned char _dcnt; _dcnt = (250)/((12*1000L)/(4*1000L))|1; while(--_dc
                                 nt != 0) continue; };
  4397  00FD  3053               	movlw	(053h)
  4398  00FE  00F0               	movwf	(??_DelayMs+0)+0
  4399  00FF  0870               	movf	(??_DelayMs+0)+0,w
  4400  0100  00F3               	movwf	(DelayMs@_dcnt)
  4401  0101  2903               	goto	l3956
  4402                           	
  4403  0102                     l6:	
  4404  0102  2903               	goto	l3956
  4405                           	
  4406  0103                     l5:	
  4407                           	
  4408  0103                     l3956:	
  4409  0103  3001               	movlw	low(01h)
  4410  0104  02F3               	subwf	(DelayMs@_dcnt),f
  4411  0105  1D03               	btfss	status,2
  4412  0106  2908               	goto	u2741
  4413  0107  2909               	goto	u2740
  4414  0108                     u2741:
  4415  0108  2903               	goto	l3956
  4416  0109                     u2740:
  4417  0109  290A               	goto	l3958
  4418                           	
  4419  010A                     l7:	
  4420                           	line	24
  4421                           	
  4422  010A                     l3958:	
  4423                           ;delay.c: 24: } while(--i);
  4424  010A  3001               	movlw	low(01h)
  4425  010B  02F2               	subwf	(DelayMs@i),f
  4426  010C  1D03               	btfss	status,2
  4427  010D  290F               	goto	u2751
  4428  010E  2910               	goto	u2750
  4429  010F                     u2751:
  4430  010F  28FD               	goto	l4
  4431  0110                     u2750:
  4432  0110  2911               	goto	l3960
  4433                           	
  4434  0111                     l8:	
  4435                           	line	25
  4436                           	
  4437  0111                     l3960:	
  4438                           ;delay.c: 25: } while(--cnt);
  4439  0111  3001               	movlw	low(01h)
  4440  0112  02F1               	subwf	(DelayMs@cnt),f
  4441  0113  1D03               	btfss	status,2
  4442  0114  2916               	goto	u2761
  4443  0115  2917               	goto	u2760
  4444  0116                     u2761:
  4445  0116  28F9               	goto	l3
  4446  0117                     u2760:
  4447  0117  2918               	goto	l10
  4448                           	
  4449  0118                     l9:	
  4450                           	line	27
  4451                           	
  4452  0118                     l10:	
  4453  0118  0008               	return
  4454                           	opt stack 0
  4455                           GLOBAL	__end_of_DelayMs
  4456  0119                     	__end_of_DelayMs:
  4457 ;; =============== function _DelayMs ends ============
  4458                           
  4459                           	signat	_DelayMs,4216
  4460                           psect	text369,local,class=CODE,delta=2
  4461                           global __ptext369
  4462  0000                     __ptext369:
  4463                           	global	btemp
  4464  007E                     	btemp set 07Eh
  4465                           
  4466                           	DABS	1,126,2	;btemp
  4467                           	global	wtemp0
  4468  007E                     	wtemp0 set btemp


HI-TECH Software PICC Macro Assembler V9.83 build 10920 
Symbol Table                                                                                   Mon Apr 04 18:40:12 2022

                   l3 00F9                     l4 00FD                     l5 0103                     l6 0102  
                   l7 010A                     l8 0111                     l9 0118                     pc 0002  
                  l10 0118                    _RD 0C60                    _WR 0C61          ___awdiv@sign 0076  
                  fsr 0004   ___wmul@multiplicand 0072                   l800 0718                   l801 0743  
                 l802 07F2                   l731 0526                   l803 07D8                   l740 057A  
                 l732 053E                   l804 07DC                   l741 058C                   l733 0545  
                 l805 07ED                   l725 01F4                   l750 0629                   l742 0586  
                 l734 0550                   l806 07F1                   l726 020A                   l751 0638  
                 l735 05C4                   l743 058B                   l807 07FF                   l727 020B  
                 l752 0635                   l744 05AE                   l736 0561                   l808 07FF  
                 l760 0519                   l728 020B                   l753 0637                   l745 05C3  
                 l737 05C2                   l761 043F                   l754 064D                   l746 05E9  
                 l738 056E                   l762 0518                   l770 0514                   l747 063A  
                 l739 058D                   l771 048A                   l763 044E                   l748 0609  
                 l764 0517                   l772 0513                   l780 050F                   l749 0639  
                 l781 04D5                   l773 0499                   l765 045D                   l757 0421  
                 l758 051A                   l766 0516                   l774 0512                   l782 050E  
                 l783 04E4                   l775 04A8                   l767 046C                   l759 0430  
                 l792 0738                   l768 0515                   l776 0511                   l784 050D  
                 l793 064F                   l785 04F3                   l777 04B7                   l769 047B  
                 l794 0687                   l778 0510                   l786 050C                   l795 06AC  
                 l787 0502                   l779 04C6                   l796 06D1                   l788 050B  
                 l797 06F0                   l789 051A                   l798 06FD                   l799 070A  
                 _GIE 005F                   _RC0 0038                   _RC1 0039                   _RC2 003A  
                 _RE0 0048                   _RE1 0049                   _RE2 004A                   _RC7 003F  
                 _col 002E                   _num 0037                   fsr0 0004                   _row 0032  
                 _str 0034          ___awmod@sign 0076           lcd_goto@pos 0073                  l2210 01CF  
                l2211 01D6                  l1501 00F7                  l1510 01A5                  l1511 01A4  
                l1512 01AC                  l4000 01CF                  l2208 01B0                  l1520 022C  
                l1504 012F                  l1513 01AC                  l2209 01BA                  l1521 0233  
                l1505 011E                  l4002 01D6                  l4010 03AB                  l1522 0249  
                l1506 013C                  l1523 0248                  l1507 013C                  l4020 03C1  
                l4012 03B0                  l4004 0399                  l4100 02E7                  l2420 02E7  
                l1524 0250                  l1516 00E7                  l2421 02F8                  l1525 0268  
                l2350 03FB                  l4030 03EA                  l4022 03C8                  l4014 03B5  
                l4006 039E                  l4110 030A                  l2422 02F9                  l4102 02EE  
                l2351 03CD                  l2423 030A                  l1519 022D                  l4040 0405  
                l4032 03EC                  l2352 03C1                  l4024 03CD                  l4016 03B7  
                l4008 03A7                  l4120 032A                  l2424 0318                  l4112 0311  
                l4104 02F3                  l2416 02D3                  l4200 05A2                  l2353 03D2  
                l2361 02BB                  l2425 0323                  l2417 02DD                  l4042 040C  
                l4034 03F3                  l2354 03D3                  l4026 03D3                  l4018 03BD  
                l2362 0283                  l4050 0283                  l2426 032A                  l2418 0319  
                l4106 02F9                  l4114 0319                  l4130 021C                  l4122 020E  
                l4210 05CB                  l4202 05A9                  l2355 03EC                  l2363 0275  
                l2419 02F3                  l2356 03FA                  l4028 03E4                  l4036 03FB  
                l2348 03A7                  l2364 0288                  l4052 0289                  l4060 02BB  
                l4044 0269                  l2380 038F                  l4116 031D                  l4108 0303  
                l4140 0237                  l4132 021D                  l4124 0211                  l4220 0622  
                l4212 05E2                  l4204 05AE                  l4300 0429                  l2357 0405  
                l2349 03B5                  l2365 0289                  l2381 034D                  l2358 040C  
                l4038 03FF                  l4062 02C4                  l2366 02AA                  l4054 029B  
                l4046 0271                  l2382 033F                  l4070 034D                  l4118 0323  
                l4150 0249                  l4142 023D                  l4134 0223                  l4126 0217  
                l4222 0629                  l4214 05E9                  l4206 05B4                  l4230 00E0  
                l4310 044E                  l4302 0430                  l1495 015A                  l2367 02BA  
                l2383 0352                  l1496 0159                  l2368 02C4                  l4056 02AA  
                l4048 0275                  l4080 037E                  l2384 0353                  l4072 0353  
                l4064 032B                  l4152 0250                  l4144 0241                  l4136 0226  
                l4128 021B                  l4224 0631                  l4216 0602                  l4208 05C4  
                l4160 051F                  l4232 011A                  l4240 064E                  l4320 0474  
                l4312 0456                  l4304 0438                  l1497 0161                  l2385 037E  
                l1498 0161                  l4058 02B3                  l2386 038E                  l4082 0387  
                l4074 035C                  l4066 033B                  l4090 02CA                  l4146 0242  
                l4138 022D                  l4154 00E8                  l4218 0609                  l4226 063A  
                l4170 0545                  l4162 0526                  l4234 011E                  l4250 068E  
                l4242 064F                  l4330 0499                  l4322 047B                  l4314 045D  
                l4306 043F                  l2387 0398                  l4076 036E                  l4068 033F  
                l4084 038F                  l4092 02D3                  l4148 0243                  l4156 00EB  
                l4180 0561                  l4172 054F                  l4164 0529                  l4228 00DD  
                l4236 012A                  l4260 06D1                  l4252 06A5                  l4244 0657  
                l4340 04BF                  l4332 04A1                  l4324 0483                  l4316 0465  
                l4308 0447                  l4086 0398                  l4078 037C                  l4094 02D7  
                l4190 057A                  l4182 0564                  l4174 0550                  l4166 052D  
                l4158 051B                  l4238 012F                  l4270 0711                  l4262 06D8  
                l4254 06AC                  l4246 0674                  l4350 04E4                  l4342 04C6  
                l4334 04A8                  l4326 048A                  l4318 046C                  l4096 02DD  
                l4088 02C5                  l4192 0581                  l4184 056A                  l4176 0552  
                l4168 053E                  l4280 07CE                  l4272 0718                  l4264 06F0  
                l4256 06B3                  l4248 067B                  l4352 04EC                  l4344 04CE  
                l4336 04B0                  l4328 0492                  l4360 01D7                  l4098 02E3  
                l4194 0586                  l4186 056E                  l4178 0560                  l4290 07F8  
                l4282 07D4                  l4266 06F7                  l4258 06CA                  l4274 0738  
                l4354 04F3                  l4346 04D5                  l4338 04B7                  l4370 01E3  
                l4362 01DA                  l4188 0575                  l4196 058D                  l4284 07DC  
                l4276 0743                  l4268 0704                  l4356 04FB                  l4348 04DD  
                l4292 0410                  l4380 01FF                  l4372 01E9                  l4364 01DD  
                l4198 0591                  l4286 07E9                  l4278 074A                  l4358 0502  
                l4294 0416                  l4382 0203                  l4374 01EE                  l4366 01DF  
                l4288 07F2                  l4296 041B                  l4376 01F4                  l4368 01E2  
                l4298 0421                  l4378 01F9                  l3960 0111                  l3954 00F9  
                l3970 019D                  l3962 0188                  l3956 0103                  l3972 019E  
                l3964 018B                  l3980 0144                  l3958 010A                  l3974 019F  
                l3966 018F                  l3990 015A                  l3982 0145                  l3976 01A5  
                l3968 0190                  l3984 0152                  l3992 01AD                  l3986 0153  
                l3978 013E                  l3994 01B0                  l3988 0154                  l3996 01B4  
                l3998 01C1                  STR_1 0009                  u3000 02B9                  u3001 02B8  
                u3010 033B                  u3011 033A                  u3100 02E3                  u3101 02E2  
                u3030 0351                  u3031 0350                  u3120 02F7                  u3200 053D  
                u3025 0341                  u3121 02F6                  u3201 053C                  u3050 036E  
                u3130 0303                  u3210 054E                  u3051 036D                  u3131 0302  
                u3115 02E8                  u3211 054D                  u3300 0602                  u3220 055F  
                u3045 0355                  u3301 0601                  u3221 055E                  u3070 038D  
                u3150 0317                  u3310 0622                  u3230 056A                  u3071 038C  
                u3055 036A                  u3151 0316                  u3135 02FF                  u3311 0621  
                u3231 0569                  u3160 031D                  u3080 02CA                  u3320 0631  
                u3240 0575                  u3400 0704                  u3065 037F                  u3145 030B  
                u3081 02C9                  u3321 0630                  u3241 0574                  u3225 055B  
                u3401 0703                  u3090 02D7                  u3170 0233                  u3250 0581  
                u3410 0711                  u3091 02D6                  u3171 0232                  u3251 0580  
                u3411 0710                  u3180 024F                  u3340 013B                  u3420 0742  
                u3500 0456                  u3181 024E                  u3341 013A                  u3421 0741  
                u3501 0455                  u3270 05A9                  u3430 074A                  u3350 067B  
                u3510 0465                  u3335 0640                  u3271 05A8                  u3431 0749  
                u3351 067A                  u3511 0464                  u2800 0160                  u3280 05C1  
                u3440 07D4                  u3360 068E                  u3600 04EC                  u3520 0474  
                u2801 015F                  u3281 05C0                  u3265 0596                  u3441 07D3  
                u3361 068D                  u3601 04EB                  u3521 0473                  u2810 01B4  
                u3290 05E2                  u3450 07E9                  u3370 06B3                  u3610 04FB  
                u3530 0483                  u2811 01B3                  u3291 05E1                  u3195 0532  
                u3451 07E8                  u3371 06B2                  u3611 04FA                  u3531 0482  
                u2740 0109                  u3380 06D8                  u3540 0492                  u3460 0416  
                u2741 0108                  u3285 05BD                  u3381 06D7                  u3541 0491  
                u3461 0415                  u2750 0110                  u2910 03E4                  u3390 06F7  
                u3550 04A1                  u3470 0429                  u2751 010F                  u2911 03E3  
                u3455 07E5                  u3391 06F6                  u3551 04A0                  u3471 0428  
                u2760 0117                  u2840 01CE                  u3560 04B0                  u3480 0438  
                u2761 0116                  u2841 01CD                  u2825 01BB                  u2905 03D4  
                u3561 04AF                  u3481 0437                  u2930 03F9                  u2850 039E  
                u3570 04BF                  u3490 0447                  u2835 01C2                  u2931 03F8  
                u2915 03E0                  u2851 039D                  u3571 04BE                  u3491 0446  
                u2780 01AB                  u2940 03FF                  u2860 03AB                  u3580 04CE  
                u2781 01AA                  u2925 03ED                  u2861 03AA                  u3581 04CD  
                u2870 03BD                  u2950 0271                  u3590 04DD                  u2775 0194  
                u2871 03BC                  u2951 0270                  u3591 04DC                  u2890 03D1  
                u2970 0287                  u2795 0149                  u2891 03D0                  u2971 0286  
                u2980 029B                  u2885 03C2                  u2981 029A                  u2965 0277  
                u2985 0297                  u2995 02AB                  _WREN 0C62                  _main 01D7  
                btemp 007E                  start 0000       __end_of_DelayMs 0119                 ?_main 0070  
     __end_of___awdiv 040D                 _EEADR 010D       __end_of___awmod 032B                 _CARRY 0018  
     __end_of___lldiv 0399       ___awdiv@divisor 0070       __end_of___llmod 02C5       ___awdiv@counter 0075  
               _PORTB 0006                 _PORTC 0007                 _PORTD 0008                 _START 064E  
               _TRISB 0086                 _TRISC 0087                 _TRISD 0088                 _TRISE 0089  
               _Chkey 0036                 _nRBPU 040F         lcd_init@_dcnt 0075                 pclath 000A  
     __end_of_putchar 051B                 status 0003                 wtemp0 007E          getkey@colVar 0022  
        getkey@rowVar 0023          __end_of_main 020E                ??_main 002D                ?_START 0070  
              _ADCON1 009F      ___llmod@dividend 0074                _EEDATA 010C                _EECON1 018C  
              _EECON2 018D      ___awdiv@dividend 0072             ??_DelayMs 0070      __end_of_lcd_init 0269  
    __end_of_lcd_goto 00E8      __end_of_lcd_puts 013D                ___wmul 01AD             ??___awdiv 0074  
           ??___awmod 0074             ??___lldiv 0078             ??___llmod 0078                _getkey 051B  
    ___awdiv@quotient 0077       ___awmod@divisor 0070       ___awmod@counter 0075             ??_putchar 007E  
       __end_of_START 0800        __pcstackCOMMON 0070          __pidataBANK0 00D8               ??_START 007E  
  __size_of_lcd_clear 0010    __size_of_lcd_putch 0026    __size_of_lcd_write 0025            __pbssBANK0 002E  
          __pmaintext 01D7               ?___wmul 0070               ?_getkey 0070             ?_lcd_init 0070  
           ?_lcd_goto 0070             ?_lcd_puts 0070               _DelayMs 00F8     __end_of_lcd_clear 00F8  
   __end_of_lcd_putch 01AD               ___awdiv 0399               ___awmod 02C5     __end_of_lcd_write 0162  
             ___lldiv 032B       __size_of___wmul 002A               ___llmod 0269       __size_of_getkey 0133  
  lcd_init@_dcnt_2127 0076        lcd_putch@_dcnt 0071      ___awmod@dividend 0072               _putchar 040D  
          ??_lcd_init 0074            ??_lcd_goto 0073            ??_lcd_puts 0073  end_of_initialization 0183  
     ___lldiv@divisor 0070       ___lldiv@counter 007D        lcd_write@_dcnt 0071            lcd_putch@c 0072  
          getkey@flag 0020            lcd_write@c 0072        __end_of___wmul 01D7        __end_of_getkey 064E  
        DelayMs@_dcnt 0073      START@first_three 0026   start_initialization 0162       ___llmod@divisor 0070  
     ___llmod@counter 0079              ??___wmul 0074           __pdataBANK0 0037              ??_getkey 0079  
       __pcstackBANK0 0020              ?_DelayMs 0070     __size_of_lcd_init 005B     __size_of_lcd_goto 000C  
   __size_of_lcd_puts 0024              ?___awdiv 0070             __ptext360 020E             __ptext361 02C5  
           __ptext362 032B             __ptext354 040D             __ptext363 0269             __ptext355 064E  
            ?___awmod 0070             __ptext364 0399             __ptext356 0119             __ptext365 01AD  
           __ptext357 00DC             __ptext366 013D             __ptext358 051B             __ptext367 0187  
           __ptext359 00E8             __ptext368 00F8             __ptext369 0000              ?___lldiv 0070  
            ?___llmod 0070             _lcd_clear 00E8             __pstrings 0003             _lcd_putch 0187  
            START@sum 0024             _lcd_write 013D        __size_of_START 01B2              ?_putchar 0070  
      ___wmul@product 0074              DelayMs@i 0072            START@digit 002A            START@count 0028  
          ?_lcd_clear 0070            ?_lcd_putch 0070           __stringbase 0008            ?_lcd_write 0070  
   ___wmul@multiplier 0070             lcd_puts@s 0074      __size_of_DelayMs 0021      __size_of___awdiv 0074  
    __size_of___awmod 0066      __size_of___lldiv 006E      __size_of___llmod 005C              _lcd_init 020E  
            _lcd_goto 00DC              _lcd_puts 0119      __size_of_putchar 010E         __size_of_main 0037  
         ??_lcd_clear 0074       START@sumLastTow 0022           ??_lcd_putch 0070           ??_lcd_write 0070  
          DelayMs@cnt 0071             putchar@ch 002C      ___lldiv@dividend 0074             stringcode 0003  
    ___lldiv@quotient 0079              stringdir 0003              stringtab 0003          START@oddEven 0020  
         _pressed_key 0030  
